
out_2022-02-01/asm_test/riscv_u_mode_rand_test_0.o:     file format elf32-littleriscv


Disassembly of section .text:

80000000 <_start>:
80000000:	f14022f3          	csrr	t0,mhartid
80000004:	00000313          	li	t1,0
80000008:	00628263          	beq	t0,t1,8000000c <_start+0xc>
8000000c:	00000d17          	auipc	s10,0x0
80000010:	00cd0d13          	addi	s10,s10,12 # 80000018 <h0_start>
80000014:	000d0067          	jr	s10

80000018 <h0_start>:
80000018:	40000837          	lui	a6,0x40000
8000001c:	10080813          	addi	a6,a6,256 # 40000100 <_start-0x3fffff00>
80000020:	30181073          	csrw	misa,a6

80000024 <kernel_sp>:
80000024:	0002fa97          	auipc	s5,0x2f
80000028:	e58a8a93          	addi	s5,s5,-424 # 8002ee7c <kernel_stack_end>

8000002c <trap_vec_init>:
8000002c:	0000c817          	auipc	a6,0xc
80000030:	fd480813          	addi	a6,a6,-44 # 8000c000 <mtvec_handler>
80000034:	00086813          	ori	a6,a6,0
80000038:	30581073          	csrw	mtvec,a6

8000003c <process_pt>:
8000003c:	0000f497          	auipc	s1,0xf
80000040:	7c448493          	addi	s1,s1,1988 # 8000f800 <page_table_0+0x800>
80000044:	8004a283          	lw	t0,-2048(s1)
80000048:	00010817          	auipc	a6,0x10
8000004c:	fb880813          	addi	a6,a6,-72 # 80010000 <page_table_1>
80000050:	00285813          	srli	a6,a6,0x2
80000054:	005862b3          	or	t0,a6,t0
80000058:	8054a023          	sw	t0,-2048(s1)
8000005c:	8044a283          	lw	t0,-2044(s1)
80000060:	00011817          	auipc	a6,0x11
80000064:	fa080813          	addi	a6,a6,-96 # 80011000 <page_table_2>
80000068:	00285813          	srli	a6,a6,0x2
8000006c:	005862b3          	or	t0,a6,t0
80000070:	8054a223          	sw	t0,-2044(s1)
80000074:	12000073          	sfence.vma

80000078 <mepc_setup>:
80000078:	00000817          	auipc	a6,0x0
8000007c:	05080813          	addi	a6,a6,80 # 800000c8 <init>
80000080:	01481813          	slli	a6,a6,0x14
80000084:	01485813          	srli	a6,a6,0x14
80000088:	34181073          	csrw	mepc,a6

8000008c <custom_csr_setup>:
8000008c:	00000013          	nop

80000090 <init_user_mode>:
80000090:	80000837          	lui	a6,0x80000
80000094:	18081073          	csrw	satp,a6
80000098:	0000f817          	auipc	a6,0xf
8000009c:	f6880813          	addi	a6,a6,-152 # 8000f000 <page_table_0>
800000a0:	00c85813          	srli	a6,a6,0xc
800000a4:	004004b7          	lui	s1,0x400
800000a8:	fff48493          	addi	s1,s1,-1 # 3fffff <_start-0x7fc00001>
800000ac:	00987833          	and	a6,a6,s1
800000b0:	18082073          	csrs	satp,a6
800000b4:	00080837          	lui	a6,0x80
800000b8:	30081073          	csrw	mstatus,a6
800000bc:	00000813          	li	a6,0
800000c0:	30481073          	csrw	mie,a6
800000c4:	30200073          	mret

800000c8 <init>:
800000c8:	00b00013          	li	zero,11
800000cc:	fafba0b7          	lui	ra,0xfafba
800000d0:	77608093          	addi	ra,ra,1910 # fafba776 <_end+0x7af8b8f6>
800000d4:	d7430137          	lui	sp,0xd7430
800000d8:	c9310113          	addi	sp,sp,-877 # d742fc93 <_end+0x57400e13>
800000dc:	00700193          	li	gp,7
800000e0:	00600213          	li	tp,6
800000e4:	00800293          	li	t0,8
800000e8:	80000337          	lui	t1,0x80000
800000ec:	00000393          	li	t2,0
800000f0:	1813a437          	lui	s0,0x1813a
800000f4:	d8b40413          	addi	s0,s0,-629 # 18139d8b <_start-0x67ec6275>
800000f8:	00300493          	li	s1,3
800000fc:	fdfba537          	lui	a0,0xfdfba
80000100:	06950513          	addi	a0,a0,105 # fdfba069 <_end+0x7df8b1e9>
80000104:	800005b7          	lui	a1,0x80000
80000108:	80000637          	lui	a2,0x80000
8000010c:	30a746b7          	lui	a3,0x30a74
80000110:	e1468693          	addi	a3,a3,-492 # 30a73e14 <_start-0x4f58c1ec>
80000114:	80000737          	lui	a4,0x80000
80000118:	800007b7          	lui	a5,0x80000
8000011c:	fb1eb837          	lui	a6,0xfb1eb
80000120:	65180813          	addi	a6,a6,1617 # fb1eb651 <_end+0x7b1bc7d1>
80000124:	c8e718b7          	lui	a7,0xc8e71
80000128:	ca688893          	addi	a7,a7,-858 # c8e70ca6 <_end+0x48e41e26>
8000012c:	80000937          	lui	s2,0x80000
80000130:	7634d9b7          	lui	s3,0x7634d
80000134:	8ca98993          	addi	s3,s3,-1846 # 7634c8ca <_start-0x9cb3736>
80000138:	00500a13          	li	s4,5
8000013c:	00c00b13          	li	s6,12
80000140:	feceebb7          	lui	s7,0xfecee
80000144:	d92b8b93          	addi	s7,s7,-622 # fecedd92 <_end+0x7ecbef12>
80000148:	00000c13          	li	s8,0
8000014c:	f34c5cb7          	lui	s9,0xf34c5
80000150:	ebec8c93          	addi	s9,s9,-322 # f34c4ebe <_end+0x7349603e>
80000154:	2793ed37          	lui	s10,0x2793e
80000158:	5add0d13          	addi	s10,s10,1453 # 2793e5ad <_start-0x586c1a53>
8000015c:	fcd54db7          	lui	s11,0xfcd54
80000160:	428d8d93          	addi	s11,s11,1064 # fcd54428 <_end+0x7cd255a8>
80000164:	80000eb7          	lui	t4,0x80000
80000168:	00500f13          	li	t5,5
8000016c:	80000fb7          	lui	t6,0x80000
80000170:	0002be17          	auipc	t3,0x2b
80000174:	cace0e13          	addi	t3,t3,-852 # 8002ae1c <user_stack_end>

80000178 <main>:
80000178:	1d860217          	auipc	tp,0x1d860
8000017c:	038d1e63          	bne	s10,s8,800001b8 <main+0x40>
80000180:	015ad993          	srli	s3,s5,0x15
80000184:	00000013          	nop
80000188:	40ed8c33          	sub	s8,s11,a4
8000018c:	058d1063          	bne	s10,s8,800001cc <main+0x54>
80000190:	fb4ee413          	ori	s0,t4,-76
80000194:	4cb37c13          	andi	s8,t1,1227
80000198:	cc92a0b7          	lui	ra,0xcc92a
8000019c:	bce1a693          	slti	a3,gp,-1074
800001a0:	cc92a0b7          	lui	ra,0xcc92a
800001a4:	bce1a693          	slti	a3,gp,-1074
800001a8:	023b4c63          	blt	s6,gp,800001e0 <main+0x68>
800001ac:	01bef5b3          	and	a1,t4,s11
800001b0:	0033c233          	xor	tp,t2,gp
800001b4:	b35a3893          	sltiu	a7,s4,-1227
800001b8:	fb4ee413          	ori	s0,t4,-76
800001bc:	20648893          	addi	a7,s1,518
800001c0:	20648893          	addi	a7,s1,518
800001c4:	000706b3          	add	a3,a4,zero
800001c8:	05d2d063          	bge	t0,t4,80000208 <main+0x90>
800001cc:	4111dd93          	srai	s11,gp,0x11
800001d0:	0ff0000f          	fence
800001d4:	409a5633          	sra	a2,s4,s1
800001d8:	40ed8c33          	sub	s8,s11,a4
800001dc:	01c4dbb3          	srl	s7,s1,t3
800001e0:	4111dd93          	srai	s11,gp,0x11
800001e4:	4cb37c13          	andi	s8,t1,1227
800001e8:	006410b3          	sll	ra,s0,t1
800001ec:	1d860217          	auipc	tp,0x1d860
800001f0:	000706b3          	add	a3,a4,zero
800001f4:	00000013          	nop
800001f8:	20648893          	addi	a7,s1,518
800001fc:	006410b3          	sll	ra,s0,t1
80000200:	0ff0000f          	fence
80000204:	cc92a0b7          	lui	ra,0xcc92a
80000208:	4111dd93          	srai	s11,gp,0x11
8000020c:	00cea633          	slt	a2,t4,a2
80000210:	01a0ea63          	bltu	ra,s10,80000224 <main+0xac>
80000214:	01bef5b3          	and	a1,t4,s11
80000218:	5dff4793          	xori	a5,t5,1503
8000021c:	0000100f          	fence.i
80000220:	00406333          	or	t1,zero,tp
80000224:	008c8663          	beq	s9,s0,80000230 <main+0xb8>
80000228:	b35a3893          	sltiu	a7,s4,-1227
8000022c:	b35a3893          	sltiu	a7,s4,-1227
80000230:	01c4dbb3          	srl	s7,s1,t3
80000234:	0000100f          	fence.i
80000238:	058d1663          	bne	s10,s8,80000284 <main+0x10c>
8000023c:	01bef5b3          	and	a1,t4,s11
80000240:	1d860217          	auipc	tp,0x1d860
80000244:	00cea633          	slt	a2,t4,a2
80000248:	01bef5b3          	and	a1,t4,s11
8000024c:	015f1093          	slli	ra,t5,0x15
80000250:	008c8663          	beq	s9,s0,8000025c <main+0xe4>
80000254:	00000013          	nop
80000258:	1d860217          	auipc	tp,0x1d860
8000025c:	038d1063          	bne	s10,s8,8000027c <main+0x104>
80000260:	00406333          	or	t1,zero,tp
80000264:	b35a3893          	sltiu	a7,s4,-1227
80000268:	05a0e263          	bltu	ra,s10,800002ac <main+0x134>
8000026c:	038d1463          	bne	s10,s8,80000294 <main+0x11c>
80000270:	01457663          	bgeu	a0,s4,8000027c <main+0x104>
80000274:	05a0e663          	bltu	ra,s10,800002c0 <main+0x148>
80000278:	0ff0000f          	fence
8000027c:	1d860217          	auipc	tp,0x1d860
80000280:	4111dd93          	srai	s11,gp,0x11
80000284:	043b4863          	blt	s6,gp,800002d4 <main+0x15c>
80000288:	1d860217          	auipc	tp,0x1d860
8000028c:	5dff4793          	xori	a5,t5,1503
80000290:	03d2d663          	bge	t0,t4,800002bc <main+0x144>
80000294:	015f1093          	slli	ra,t5,0x15
80000298:	00cea633          	slt	a2,t4,a2
8000029c:	fb4ee413          	ori	s0,t4,-76
800002a0:	b35a3893          	sltiu	a7,s4,-1227
800002a4:	01bef5b3          	and	a1,t4,s11
800002a8:	cc92a0b7          	lui	ra,0xcc92a
800002ac:	4111dd93          	srai	s11,gp,0x11
800002b0:	018d1e63          	bne	s10,s8,800002cc <main+0x154>
800002b4:	409a5633          	sra	a2,s4,s1
800002b8:	409a5633          	sra	a2,s4,s1
800002bc:	409a5633          	sra	a2,s4,s1
800002c0:	40ed8c33          	sub	s8,s11,a4
800002c4:	0000100f          	fence.i
800002c8:	01a0ec63          	bltu	ra,s10,800002e0 <main+0x168>
800002cc:	01457e63          	bgeu	a0,s4,800002e8 <main+0x170>
800002d0:	01d2d263          	bge	t0,t4,800002d4 <main+0x15c>
800002d4:	00ee3233          	sltu	tp,t3,a4
800002d8:	20648893          	addi	a7,s1,518
800002dc:	00ee3233          	sltu	tp,t3,a4
800002e0:	0000100f          	fence.i
800002e4:	01c4dbb3          	srl	s7,s1,t3
800002e8:	05457263          	bgeu	a0,s4,8000032c <main+0x1b4>
800002ec:	4111dd93          	srai	s11,gp,0x11
800002f0:	bce1a693          	slti	a3,gp,-1074
800002f4:	00406333          	or	t1,zero,tp
800002f8:	00000013          	nop
800002fc:	00cea633          	slt	a2,t4,a2
80000300:	01bef5b3          	and	a1,t4,s11
80000304:	20648893          	addi	a7,s1,518
80000308:	fb4ee413          	ori	s0,t4,-76
8000030c:	0033c233          	xor	tp,t2,gp
80000310:	006410b3          	sll	ra,s0,t1
80000314:	00000013          	nop
80000318:	4111dd93          	srai	s11,gp,0x11
8000031c:	409a5633          	sra	a2,s4,s1
80000320:	03a0ee63          	bltu	ra,s10,8000035c <main+0x1e4>
80000324:	409a5633          	sra	a2,s4,s1
80000328:	000706b3          	add	a3,a4,zero
8000032c:	40ed8c33          	sub	s8,s11,a4
80000330:	00000013          	nop
80000334:	4111dd93          	srai	s11,gp,0x11
80000338:	0ff0000f          	fence
8000033c:	1d860217          	auipc	tp,0x1d860
80000340:	4111dd93          	srai	s11,gp,0x11
80000344:	0033c233          	xor	tp,t2,gp
80000348:	bce1a693          	slti	a3,gp,-1074
8000034c:	4111dd93          	srai	s11,gp,0x11
80000350:	00000013          	nop
80000354:	008c8e63          	beq	s9,s0,80000370 <main+0x1f8>
80000358:	40ed8c33          	sub	s8,s11,a4
8000035c:	006410b3          	sll	ra,s0,t1
80000360:	20648893          	addi	a7,s1,518
80000364:	0000100f          	fence.i
80000368:	00000013          	nop
8000036c:	cc92a0b7          	lui	ra,0xcc92a
80000370:	0000100f          	fence.i
80000374:	1d860217          	auipc	tp,0x1d860
80000378:	bce1a693          	slti	a3,gp,-1074
8000037c:	4cb37c13          	andi	s8,t1,1227
80000380:	4111dd93          	srai	s11,gp,0x11
80000384:	00406333          	or	t1,zero,tp
80000388:	0033c233          	xor	tp,t2,gp
8000038c:	00406333          	or	t1,zero,tp
80000390:	bce1a693          	slti	a3,gp,-1074
80000394:	006410b3          	sll	ra,s0,t1
80000398:	018d1463          	bne	s10,s8,800003a0 <main+0x228>
8000039c:	5dff4793          	xori	a5,t5,1503
800003a0:	409a5633          	sra	a2,s4,s1
800003a4:	4cb37c13          	andi	s8,t1,1227
800003a8:	028c8263          	beq	s9,s0,800003cc <main+0x254>
800003ac:	4111dd93          	srai	s11,gp,0x11
800003b0:	5dff4793          	xori	a5,t5,1503
800003b4:	05a0e063          	bltu	ra,s10,800003f4 <main+0x27c>
800003b8:	00ee3233          	sltu	tp,t3,a4
800003bc:	bce1a693          	slti	a3,gp,-1074
800003c0:	fb4ee413          	ori	s0,t4,-76
800003c4:	015ad993          	srli	s3,s5,0x15
800003c8:	40ed8c33          	sub	s8,s11,a4
800003cc:	1d860217          	auipc	tp,0x1d860
800003d0:	4cb37c13          	andi	s8,t1,1227
800003d4:	000706b3          	add	a3,a4,zero
800003d8:	006410b3          	sll	ra,s0,t1
800003dc:	00406333          	or	t1,zero,tp
800003e0:	4111dd93          	srai	s11,gp,0x11
800003e4:	5dff4793          	xori	a5,t5,1503
800003e8:	b35a3893          	sltiu	a7,s4,-1227
800003ec:	000706b3          	add	a3,a4,zero
800003f0:	043b4463          	blt	s6,gp,80000438 <main+0x2c0>
800003f4:	015ad993          	srli	s3,s5,0x15
800003f8:	015ad993          	srli	s3,s5,0x15
800003fc:	0ff0000f          	fence
80000400:	003b4663          	blt	s6,gp,8000040c <main+0x294>
80000404:	018d1263          	bne	s10,s8,80000408 <main+0x290>
80000408:	023b4663          	blt	s6,gp,80000434 <main+0x2bc>
8000040c:	5dff4793          	xori	a5,t5,1503
80000410:	0000100f          	fence.i
80000414:	038d1463          	bne	s10,s8,8000043c <main+0x2c4>
80000418:	409a5633          	sra	a2,s4,s1
8000041c:	000706b3          	add	a3,a4,zero
80000420:	4cb37c13          	andi	s8,t1,1227
80000424:	043b4663          	blt	s6,gp,80000470 <main+0x2f8>
80000428:	006410b3          	sll	ra,s0,t1
8000042c:	4cb37c13          	andi	s8,t1,1227
80000430:	01c4dbb3          	srl	s7,s1,t3
80000434:	00406333          	or	t1,zero,tp
80000438:	015f1093          	slli	ra,t5,0x15
8000043c:	00000013          	nop
80000440:	05457063          	bgeu	a0,s4,80000480 <main+0x308>
80000444:	409a5633          	sra	a2,s4,s1
80000448:	fb4ee413          	ori	s0,t4,-76
8000044c:	00ee3233          	sltu	tp,t3,a4
80000450:	0000100f          	fence.i
80000454:	05457263          	bgeu	a0,s4,80000498 <main+0x320>
80000458:	00000013          	nop
8000045c:	03a0ee63          	bltu	ra,s10,80000498 <main+0x320>
80000460:	20648893          	addi	a7,s1,518
80000464:	00000013          	nop
80000468:	0000100f          	fence.i
8000046c:	01c4dbb3          	srl	s7,s1,t3
80000470:	40ed8c33          	sub	s8,s11,a4
80000474:	01457a63          	bgeu	a0,s4,80000488 <main+0x310>
80000478:	0033c233          	xor	tp,t2,gp
8000047c:	5dff4793          	xori	a5,t5,1503
80000480:	03457663          	bgeu	a0,s4,800004ac <main+0x334>
80000484:	006410b3          	sll	ra,s0,t1
80000488:	b35a3893          	sltiu	a7,s4,-1227
8000048c:	006410b3          	sll	ra,s0,t1
80000490:	5dff4793          	xori	a5,t5,1503
80000494:	003b4263          	blt	s6,gp,80000498 <main+0x320>
80000498:	0000100f          	fence.i
8000049c:	409a5633          	sra	a2,s4,s1
800004a0:	5dff4793          	xori	a5,t5,1503
800004a4:	b35a3893          	sltiu	a7,s4,-1227
800004a8:	03a0e063          	bltu	ra,s10,800004c8 <main+0x350>
800004ac:	409a5633          	sra	a2,s4,s1
800004b0:	409a5633          	sra	a2,s4,s1
800004b4:	20648893          	addi	a7,s1,518
800004b8:	4111dd93          	srai	s11,gp,0x11
800004bc:	4cb37c13          	andi	s8,t1,1227
800004c0:	fb4ee413          	ori	s0,t4,-76
800004c4:	05a0e463          	bltu	ra,s10,8000050c <main_j1+0x1c>
800004c8:	07457263          	bgeu	a0,s4,8000052c <main_j1+0x3c>
800004cc:	00000013          	nop
800004d0:	00007297          	auipc	t0,0x7
800004d4:	57028293          	addi	t0,t0,1392 # 80007a40 <sub_1>
800004d8:	00cea6b3          	slt	a3,t4,a2
800004dc:	cc92a0b7          	lui	ra,0xcc92a
800004e0:	25128293          	addi	t0,t0,593
800004e4:	40ed8cb3          	sub	s9,s11,a4
800004e8:	4111de93          	srai	t4,gp,0x11
800004ec:	4cb37c93          	andi	s9,t1,1227

800004f0 <main_j1>:
800004f0:	daf28fe7          	jalr	t6,-593(t0)
800004f4:	00ee3233          	sltu	tp,t3,a4
800004f8:	015f1093          	slli	ra,t5,0x15
800004fc:	409a5633          	sra	a2,s4,s1
80000500:	cc92a0b7          	lui	ra,0xcc92a
80000504:	5dff4793          	xori	a5,t5,1503
80000508:	bce1a693          	slti	a3,gp,-1074
8000050c:	0000100f          	fence.i
80000510:	0033c233          	xor	tp,t2,gp
80000514:	00000013          	nop
80000518:	00cea633          	slt	a2,t4,a2
8000051c:	015ad993          	srli	s3,s5,0x15
80000520:	fb4ee413          	ori	s0,t4,-76
80000524:	00406333          	or	t1,zero,tp
80000528:	01bef5b3          	and	a1,t4,s11
8000052c:	1d860217          	auipc	tp,0x1d860
80000530:	cc92a0b7          	lui	ra,0xcc92a
80000534:	05d2d663          	bge	t0,t4,80000580 <main_j1+0x90>
80000538:	003b4463          	blt	s6,gp,80000540 <main_j1+0x50>
8000053c:	4cb37c13          	andi	s8,t1,1227
80000540:	409a5633          	sra	a2,s4,s1
80000544:	01c4dbb3          	srl	s7,s1,t3
80000548:	058d1263          	bne	s10,s8,8000058c <main_j1+0x9c>
8000054c:	20648893          	addi	a7,s1,518
80000550:	01a0e663          	bltu	ra,s10,8000055c <main_j1+0x6c>
80000554:	015ad993          	srli	s3,s5,0x15
80000558:	006410b3          	sll	ra,s0,t1
8000055c:	4cb37c13          	andi	s8,t1,1227
80000560:	00000013          	nop
80000564:	bce1a693          	slti	a3,gp,-1074
80000568:	015ad993          	srli	s3,s5,0x15
8000056c:	40ed8c33          	sub	s8,s11,a4
80000570:	5dff4793          	xori	a5,t5,1503
80000574:	cc92a0b7          	lui	ra,0xcc92a
80000578:	03a0e463          	bltu	ra,s10,800005a0 <main_j1+0xb0>
8000057c:	5dff4793          	xori	a5,t5,1503
80000580:	20648893          	addi	a7,s1,518
80000584:	0033c233          	xor	tp,t2,gp
80000588:	5dff4793          	xori	a5,t5,1503
8000058c:	01c4dbb3          	srl	s7,s1,t3
80000590:	00cea633          	slt	a2,t4,a2
80000594:	20648893          	addi	a7,s1,518
80000598:	00406333          	or	t1,zero,tp
8000059c:	cc92a0b7          	lui	ra,0xcc92a
800005a0:	015f1093          	slli	ra,t5,0x15
800005a4:	01c4dbb3          	srl	s7,s1,t3
800005a8:	01a0ee63          	bltu	ra,s10,800005c4 <main_j1+0xd4>
800005ac:	409a5633          	sra	a2,s4,s1
800005b0:	01d2d663          	bge	t0,t4,800005bc <main_j1+0xcc>
800005b4:	018d1e63          	bne	s10,s8,800005d0 <main_j1+0xe0>
800005b8:	000706b3          	add	a3,a4,zero
800005bc:	015f1093          	slli	ra,t5,0x15
800005c0:	bce1a693          	slti	a3,gp,-1074
800005c4:	01d2d263          	bge	t0,t4,800005c8 <main_j1+0xd8>
800005c8:	03457463          	bgeu	a0,s4,800005f0 <main_j1+0x100>
800005cc:	03457c63          	bgeu	a0,s4,80000604 <main_j1+0x114>
800005d0:	015ad993          	srli	s3,s5,0x15
800005d4:	0000100f          	fence.i
800005d8:	01bef5b3          	and	a1,t4,s11
800005dc:	05d2d063          	bge	t0,t4,8000061c <main_j1+0x12c>
800005e0:	01c4dbb3          	srl	s7,s1,t3
800005e4:	00000013          	nop
800005e8:	409a5633          	sra	a2,s4,s1
800005ec:	5dff4793          	xori	a5,t5,1503
800005f0:	bce1a693          	slti	a3,gp,-1074
800005f4:	4111dd93          	srai	s11,gp,0x11
800005f8:	20648893          	addi	a7,s1,518
800005fc:	015f1093          	slli	ra,t5,0x15
80000600:	b35a3893          	sltiu	a7,s4,-1227
80000604:	00cea633          	slt	a2,t4,a2
80000608:	409a5633          	sra	a2,s4,s1
8000060c:	000706b3          	add	a3,a4,zero
80000610:	015ad993          	srli	s3,s5,0x15
80000614:	cc92a0b7          	lui	ra,0xcc92a
80000618:	038d1e63          	bne	s10,s8,80000654 <main_j1+0x164>
8000061c:	00406333          	or	t1,zero,tp
80000620:	409a5633          	sra	a2,s4,s1
80000624:	05d2d863          	bge	t0,t4,80000674 <main_j1+0x184>
80000628:	015f1093          	slli	ra,t5,0x15
8000062c:	4111dd93          	srai	s11,gp,0x11
80000630:	015ad993          	srli	s3,s5,0x15
80000634:	018d1e63          	bne	s10,s8,80000650 <main_j1+0x160>
80000638:	cc92a0b7          	lui	ra,0xcc92a
8000063c:	1d860217          	auipc	tp,0x1d860
80000640:	4cb37c13          	andi	s8,t1,1227
80000644:	01a0e663          	bltu	ra,s10,80000650 <main_j1+0x160>
80000648:	05d2d463          	bge	t0,t4,80000690 <main_j1+0x1a0>
8000064c:	01c4dbb3          	srl	s7,s1,t3
80000650:	038d1663          	bne	s10,s8,8000067c <main_j1+0x18c>
80000654:	006410b3          	sll	ra,s0,t1
80000658:	0000100f          	fence.i
8000065c:	409a5633          	sra	a2,s4,s1
80000660:	409a5633          	sra	a2,s4,s1
80000664:	20648893          	addi	a7,s1,518
80000668:	1d860217          	auipc	tp,0x1d860
8000066c:	00000013          	nop
80000670:	1d860217          	auipc	tp,0x1d860
80000674:	bce1a693          	slti	a3,gp,-1074
80000678:	000706b3          	add	a3,a4,zero
8000067c:	008c8663          	beq	s9,s0,80000688 <main_j1+0x198>
80000680:	008c8c63          	beq	s9,s0,80000698 <main_j1+0x1a8>
80000684:	03457463          	bgeu	a0,s4,800006ac <main_j1+0x1bc>
80000688:	00000013          	nop
8000068c:	5dff4793          	xori	a5,t5,1503
80000690:	01c4dbb3          	srl	s7,s1,t3
80000694:	015f1093          	slli	ra,t5,0x15
80000698:	03a0e263          	bltu	ra,s10,800006bc <main_j1+0x1cc>
8000069c:	40ed8c33          	sub	s8,s11,a4
800006a0:	008c8e63          	beq	s9,s0,800006bc <main_j1+0x1cc>
800006a4:	40ed8c33          	sub	s8,s11,a4
800006a8:	20648893          	addi	a7,s1,518
800006ac:	0ff0000f          	fence
800006b0:	4cb37c13          	andi	s8,t1,1227
800006b4:	023b4c63          	blt	s6,gp,800006ec <main_j1+0x1fc>
800006b8:	20648893          	addi	a7,s1,518
800006bc:	05a0e063          	bltu	ra,s10,800006fc <main_j1+0x20c>
800006c0:	409a5633          	sra	a2,s4,s1
800006c4:	015ad993          	srli	s3,s5,0x15
800006c8:	01bef5b3          	and	a1,t4,s11
800006cc:	028c8e63          	beq	s9,s0,80000708 <main_j1+0x218>
800006d0:	0ff0000f          	fence
800006d4:	01d2d663          	bge	t0,t4,800006e0 <main_j1+0x1f0>
800006d8:	20648893          	addi	a7,s1,518
800006dc:	05d2d263          	bge	t0,t4,80000720 <main_j1+0x230>
800006e0:	5dff4793          	xori	a5,t5,1503
800006e4:	5dff4793          	xori	a5,t5,1503
800006e8:	fb4ee413          	ori	s0,t4,-76
800006ec:	01bef5b3          	and	a1,t4,s11
800006f0:	05457263          	bgeu	a0,s4,80000734 <main_j1+0x244>
800006f4:	038d1663          	bne	s10,s8,80000720 <main_j1+0x230>
800006f8:	038d1063          	bne	s10,s8,80000718 <main_j1+0x228>
800006fc:	01bef5b3          	and	a1,t4,s11
80000700:	000706b3          	add	a3,a4,zero
80000704:	b35a3893          	sltiu	a7,s4,-1227
80000708:	40ed8c33          	sub	s8,s11,a4
8000070c:	4cb37c13          	andi	s8,t1,1227
80000710:	4cb37c13          	andi	s8,t1,1227
80000714:	015f1093          	slli	ra,t5,0x15
80000718:	0000100f          	fence.i
8000071c:	006410b3          	sll	ra,s0,t1
80000720:	058d1663          	bne	s10,s8,8000076c <main_j1+0x27c>
80000724:	008c8263          	beq	s9,s0,80000728 <main_j1+0x238>
80000728:	015ad993          	srli	s3,s5,0x15
8000072c:	015ad993          	srli	s3,s5,0x15
80000730:	1d860217          	auipc	tp,0x1d860
80000734:	b35a3893          	sltiu	a7,s4,-1227
80000738:	b35a3893          	sltiu	a7,s4,-1227
8000073c:	00cea633          	slt	a2,t4,a2
80000740:	00000013          	nop
80000744:	01bef5b3          	and	a1,t4,s11
80000748:	20648893          	addi	a7,s1,518
8000074c:	00ee3233          	sltu	tp,t3,a4
80000750:	015ad993          	srli	s3,s5,0x15
80000754:	01d2dc63          	bge	t0,t4,8000076c <main_j1+0x27c>
80000758:	0000100f          	fence.i
8000075c:	0ff0000f          	fence
80000760:	01c4dbb3          	srl	s7,s1,t3
80000764:	409a5633          	sra	a2,s4,s1
80000768:	018d1a63          	bne	s10,s8,8000077c <main_j1+0x28c>
8000076c:	5dff4793          	xori	a5,t5,1503
80000770:	00ee3233          	sltu	tp,t3,a4
80000774:	043b4863          	blt	s6,gp,800007c4 <main_j1+0x2d4>
80000778:	05457063          	bgeu	a0,s4,800007b8 <main_j1+0x2c8>
8000077c:	00ee3233          	sltu	tp,t3,a4
80000780:	b35a3893          	sltiu	a7,s4,-1227
80000784:	00cea633          	slt	a2,t4,a2
80000788:	023b4e63          	blt	s6,gp,800007c4 <main_j1+0x2d4>
8000078c:	01bef5b3          	and	a1,t4,s11
80000790:	20648893          	addi	a7,s1,518
80000794:	01bef5b3          	and	a1,t4,s11
80000798:	b35a3893          	sltiu	a7,s4,-1227
8000079c:	015ad993          	srli	s3,s5,0x15
800007a0:	015ad993          	srli	s3,s5,0x15
800007a4:	01c4dbb3          	srl	s7,s1,t3
800007a8:	0033c233          	xor	tp,t2,gp
800007ac:	00000013          	nop
800007b0:	0ff0000f          	fence
800007b4:	01c4dbb3          	srl	s7,s1,t3
800007b8:	bce1a693          	slti	a3,gp,-1074
800007bc:	00ee3233          	sltu	tp,t3,a4
800007c0:	01d2d663          	bge	t0,t4,800007cc <main_j1+0x2dc>
800007c4:	1d860217          	auipc	tp,0x1d860
800007c8:	00ee3233          	sltu	tp,t3,a4
800007cc:	018d1663          	bne	s10,s8,800007d8 <main_j1+0x2e8>
800007d0:	01bef5b3          	and	a1,t4,s11
800007d4:	015ad993          	srli	s3,s5,0x15
800007d8:	03a0e463          	bltu	ra,s10,80000800 <main_j1+0x310>
800007dc:	043b4063          	blt	s6,gp,8000081c <main_j1+0x32c>
800007e0:	cc92a0b7          	lui	ra,0xcc92a
800007e4:	0033c233          	xor	tp,t2,gp
800007e8:	20648893          	addi	a7,s1,518
800007ec:	008c8263          	beq	s9,s0,800007f0 <main_j1+0x300>
800007f0:	bce1a693          	slti	a3,gp,-1074
800007f4:	40ed8c33          	sub	s8,s11,a4
800007f8:	40ed8c33          	sub	s8,s11,a4
800007fc:	01457463          	bgeu	a0,s4,80000804 <main_j1+0x314>
80000800:	01bef5b3          	and	a1,t4,s11
80000804:	0000100f          	fence.i
80000808:	00406333          	or	t1,zero,tp
8000080c:	bce1a693          	slti	a3,gp,-1074
80000810:	006410b3          	sll	ra,s0,t1
80000814:	b35a3893          	sltiu	a7,s4,-1227
80000818:	4111dd93          	srai	s11,gp,0x11
8000081c:	00cea633          	slt	a2,t4,a2
80000820:	00000013          	nop
80000824:	01bef5b3          	and	a1,t4,s11
80000828:	003b4e63          	blt	s6,gp,80000844 <main_j1+0x354>
8000082c:	4cb37c13          	andi	s8,t1,1227
80000830:	bce1a693          	slti	a3,gp,-1074
80000834:	4111dd93          	srai	s11,gp,0x11
80000838:	b35a3893          	sltiu	a7,s4,-1227
8000083c:	058d1663          	bne	s10,s8,80000888 <main_j1+0x398>
80000840:	015ad993          	srli	s3,s5,0x15
80000844:	038d1663          	bne	s10,s8,80000870 <main_j1+0x380>
80000848:	5dff4793          	xori	a5,t5,1503
8000084c:	05457463          	bgeu	a0,s4,80000894 <main_j1+0x3a4>
80000850:	40ed8c33          	sub	s8,s11,a4
80000854:	b35a3893          	sltiu	a7,s4,-1227
80000858:	0033c233          	xor	tp,t2,gp
8000085c:	018d1663          	bne	s10,s8,80000868 <main_j1+0x378>
80000860:	409a5633          	sra	a2,s4,s1
80000864:	01c4dbb3          	srl	s7,s1,t3
80000868:	018d1e63          	bne	s10,s8,80000884 <main_j1+0x394>
8000086c:	fb4ee413          	ori	s0,t4,-76
80000870:	1d860217          	auipc	tp,0x1d860
80000874:	20648893          	addi	a7,s1,518
80000878:	0ff0000f          	fence
8000087c:	0ff0000f          	fence
80000880:	00cea633          	slt	a2,t4,a2
80000884:	20648893          	addi	a7,s1,518
80000888:	00000013          	nop
8000088c:	00000013          	nop
80000890:	fb4ee413          	ori	s0,t4,-76
80000894:	cc92a0b7          	lui	ra,0xcc92a
80000898:	015f1093          	slli	ra,t5,0x15
8000089c:	5dff4793          	xori	a5,t5,1503
800008a0:	b35a3893          	sltiu	a7,s4,-1227
800008a4:	01457463          	bgeu	a0,s4,800008ac <main_j1+0x3bc>
800008a8:	b35a3893          	sltiu	a7,s4,-1227
800008ac:	006410b3          	sll	ra,s0,t1
800008b0:	038d1463          	bne	s10,s8,800008d8 <main_j1+0x3e8>
800008b4:	0033c233          	xor	tp,t2,gp
800008b8:	01bef5b3          	and	a1,t4,s11
800008bc:	409a5633          	sra	a2,s4,s1
800008c0:	5dff4793          	xori	a5,t5,1503
800008c4:	006410b3          	sll	ra,s0,t1
800008c8:	000706b3          	add	a3,a4,zero
800008cc:	40ed8c33          	sub	s8,s11,a4
800008d0:	015ad993          	srli	s3,s5,0x15
800008d4:	0ff0000f          	fence
800008d8:	20648893          	addi	a7,s1,518
800008dc:	015ad993          	srli	s3,s5,0x15
800008e0:	00406333          	or	t1,zero,tp
800008e4:	00406333          	or	t1,zero,tp
800008e8:	00406333          	or	t1,zero,tp
800008ec:	cc92a0b7          	lui	ra,0xcc92a
800008f0:	006410b3          	sll	ra,s0,t1
800008f4:	05a0e263          	bltu	ra,s10,80000938 <main_j1+0x448>
800008f8:	1d860217          	auipc	tp,0x1d860
800008fc:	038d1e63          	bne	s10,s8,80000938 <main_j1+0x448>
80000900:	5dff4793          	xori	a5,t5,1503
80000904:	01bef5b3          	and	a1,t4,s11
80000908:	1d860217          	auipc	tp,0x1d860
8000090c:	023b4e63          	blt	s6,gp,80000948 <main_j1+0x458>
80000910:	003b4c63          	blt	s6,gp,80000928 <main_j1+0x438>
80000914:	05a0e463          	bltu	ra,s10,8000095c <main_j1+0x46c>
80000918:	015f1093          	slli	ra,t5,0x15
8000091c:	00000013          	nop
80000920:	01c4dbb3          	srl	s7,s1,t3
80000924:	0000100f          	fence.i
80000928:	00ee3233          	sltu	tp,t3,a4
8000092c:	0000100f          	fence.i
80000930:	058d1063          	bne	s10,s8,80000970 <main_j1+0x480>
80000934:	409a5633          	sra	a2,s4,s1
80000938:	000706b3          	add	a3,a4,zero
8000093c:	00cea633          	slt	a2,t4,a2
80000940:	cc92a0b7          	lui	ra,0xcc92a
80000944:	006410b3          	sll	ra,s0,t1
80000948:	008c8263          	beq	s9,s0,8000094c <main_j1+0x45c>
8000094c:	00ee3233          	sltu	tp,t3,a4
80000950:	409a5633          	sra	a2,s4,s1
80000954:	4cb37c13          	andi	s8,t1,1227
80000958:	01bef5b3          	and	a1,t4,s11
8000095c:	4111dd93          	srai	s11,gp,0x11
80000960:	00cea633          	slt	a2,t4,a2
80000964:	00cea633          	slt	a2,t4,a2
80000968:	00cea633          	slt	a2,t4,a2
8000096c:	05d2d663          	bge	t0,t4,800009b8 <main_j1+0x4c8>
80000970:	01457663          	bgeu	a0,s4,8000097c <main_j1+0x48c>
80000974:	0000100f          	fence.i
80000978:	01d2de63          	bge	t0,t4,80000994 <main_j1+0x4a4>
8000097c:	0000100f          	fence.i
80000980:	4111dd93          	srai	s11,gp,0x11
80000984:	05d2d063          	bge	t0,t4,800009c4 <main_j1+0x4d4>
80000988:	01457663          	bgeu	a0,s4,80000994 <main_j1+0x4a4>
8000098c:	cc92a0b7          	lui	ra,0xcc92a
80000990:	01a0ee63          	bltu	ra,s10,800009ac <main_j1+0x4bc>
80000994:	0000100f          	fence.i
80000998:	01bef5b3          	and	a1,t4,s11
8000099c:	00cea633          	slt	a2,t4,a2
800009a0:	03a0e663          	bltu	ra,s10,800009cc <main_j1+0x4dc>
800009a4:	01c4dbb3          	srl	s7,s1,t3
800009a8:	00cea633          	slt	a2,t4,a2
800009ac:	01bef5b3          	and	a1,t4,s11
800009b0:	05d2d863          	bge	t0,t4,80000a00 <main_j1+0x510>
800009b4:	0000100f          	fence.i
800009b8:	0ff0000f          	fence
800009bc:	0000100f          	fence.i
800009c0:	01c4dbb3          	srl	s7,s1,t3
800009c4:	00ee3233          	sltu	tp,t3,a4
800009c8:	00ee3233          	sltu	tp,t3,a4
800009cc:	0033c233          	xor	tp,t2,gp
800009d0:	015f1093          	slli	ra,t5,0x15
800009d4:	00ee3233          	sltu	tp,t3,a4
800009d8:	023b4463          	blt	s6,gp,80000a00 <main_j1+0x510>
800009dc:	bce1a693          	slti	a3,gp,-1074
800009e0:	0033c233          	xor	tp,t2,gp
800009e4:	0000100f          	fence.i
800009e8:	00000013          	nop
800009ec:	00406333          	or	t1,zero,tp
800009f0:	03a0e663          	bltu	ra,s10,80000a1c <main_j1+0x52c>
800009f4:	008c8663          	beq	s9,s0,80000a00 <main_j1+0x510>
800009f8:	40ed8c33          	sub	s8,s11,a4
800009fc:	1d860217          	auipc	tp,0x1d860
80000a00:	00ee3233          	sltu	tp,t3,a4
80000a04:	015f1093          	slli	ra,t5,0x15
80000a08:	bce1a693          	slti	a3,gp,-1074
80000a0c:	008c8a63          	beq	s9,s0,80000a20 <main_j1+0x530>
80000a10:	4111dd93          	srai	s11,gp,0x11
80000a14:	01457e63          	bgeu	a0,s4,80000a30 <main_j1+0x540>
80000a18:	028c8063          	beq	s9,s0,80000a38 <main_j1+0x548>
80000a1c:	1d860217          	auipc	tp,0x1d860
80000a20:	058d1063          	bne	s10,s8,80000a60 <main_j1+0x570>
80000a24:	40ed8c33          	sub	s8,s11,a4
80000a28:	05a0e663          	bltu	ra,s10,80000a74 <main_j1+0x584>
80000a2c:	015ad993          	srli	s3,s5,0x15
80000a30:	0000100f          	fence.i
80000a34:	1d860217          	auipc	tp,0x1d860
80000a38:	40ed8c33          	sub	s8,s11,a4
80000a3c:	5dff4793          	xori	a5,t5,1503
80000a40:	0000100f          	fence.i
80000a44:	00000013          	nop
80000a48:	409a5633          	sra	a2,s4,s1
80000a4c:	00406333          	or	t1,zero,tp
80000a50:	003b4263          	blt	s6,gp,80000a54 <main_j1+0x564>
80000a54:	5dff4793          	xori	a5,t5,1503
80000a58:	00ee3233          	sltu	tp,t3,a4
80000a5c:	03d2d263          	bge	t0,t4,80000a80 <main_j1+0x590>
80000a60:	bce1a693          	slti	a3,gp,-1074
80000a64:	00000013          	nop
80000a68:	01bef5b3          	and	a1,t4,s11
80000a6c:	01c4dbb3          	srl	s7,s1,t3
80000a70:	4cb37c13          	andi	s8,t1,1227
80000a74:	01bef5b3          	and	a1,t4,s11
80000a78:	b35a3893          	sltiu	a7,s4,-1227
80000a7c:	023b4c63          	blt	s6,gp,80000ab4 <main_j1+0x5c4>
80000a80:	05457263          	bgeu	a0,s4,80000ac4 <main_j1+0x5d4>
80000a84:	40ed8c33          	sub	s8,s11,a4
80000a88:	015ad993          	srli	s3,s5,0x15
80000a8c:	006410b3          	sll	ra,s0,t1
80000a90:	1d860217          	auipc	tp,0x1d860
80000a94:	0000100f          	fence.i
80000a98:	fb4ee413          	ori	s0,t4,-76
80000a9c:	00ee3233          	sltu	tp,t3,a4
80000aa0:	000706b3          	add	a3,a4,zero
80000aa4:	5dff4793          	xori	a5,t5,1503
80000aa8:	015ad993          	srli	s3,s5,0x15
80000aac:	bce1a693          	slti	a3,gp,-1074
80000ab0:	006410b3          	sll	ra,s0,t1
80000ab4:	5dff4793          	xori	a5,t5,1503
80000ab8:	018d1663          	bne	s10,s8,80000ac4 <main_j1+0x5d4>
80000abc:	20648893          	addi	a7,s1,518
80000ac0:	0ff0000f          	fence
80000ac4:	fb4ee413          	ori	s0,t4,-76
80000ac8:	00000013          	nop
80000acc:	20648893          	addi	a7,s1,518
80000ad0:	006410b3          	sll	ra,s0,t1
80000ad4:	00cea633          	slt	a2,t4,a2
80000ad8:	00cea633          	slt	a2,t4,a2
80000adc:	4cb37c13          	andi	s8,t1,1227
80000ae0:	0000100f          	fence.i
80000ae4:	1d860217          	auipc	tp,0x1d860
80000ae8:	4111dd93          	srai	s11,gp,0x11
80000aec:	5dff4793          	xori	a5,t5,1503
80000af0:	0033c233          	xor	tp,t2,gp
80000af4:	05457263          	bgeu	a0,s4,80000b38 <main_j1+0x648>
80000af8:	015ad993          	srli	s3,s5,0x15
80000afc:	015f1093          	slli	ra,t5,0x15
80000b00:	4111dd93          	srai	s11,gp,0x11
80000b04:	0033c233          	xor	tp,t2,gp
80000b08:	015ad993          	srli	s3,s5,0x15
80000b0c:	00ee3233          	sltu	tp,t3,a4
80000b10:	00ee3233          	sltu	tp,t3,a4
80000b14:	00000013          	nop
80000b18:	4111dd93          	srai	s11,gp,0x11
80000b1c:	4cb37c13          	andi	s8,t1,1227
80000b20:	0033c233          	xor	tp,t2,gp
80000b24:	20648893          	addi	a7,s1,518
80000b28:	023b4663          	blt	s6,gp,80000b54 <main_j1+0x664>
80000b2c:	4111dd93          	srai	s11,gp,0x11
80000b30:	03d2d463          	bge	t0,t4,80000b58 <main_j1+0x668>
80000b34:	0033c233          	xor	tp,t2,gp
80000b38:	cc92a0b7          	lui	ra,0xcc92a
80000b3c:	00000013          	nop
80000b40:	006410b3          	sll	ra,s0,t1
80000b44:	4cb37c13          	andi	s8,t1,1227
80000b48:	40ed8c33          	sub	s8,s11,a4
80000b4c:	4111dd93          	srai	s11,gp,0x11
80000b50:	01c4dbb3          	srl	s7,s1,t3
80000b54:	4111dd93          	srai	s11,gp,0x11
80000b58:	b35a3893          	sltiu	a7,s4,-1227
80000b5c:	40ed8c33          	sub	s8,s11,a4
80000b60:	00ee3233          	sltu	tp,t3,a4
80000b64:	038d1063          	bne	s10,s8,80000b84 <main_j1+0x694>
80000b68:	fb4ee413          	ori	s0,t4,-76
80000b6c:	40ed8c33          	sub	s8,s11,a4
80000b70:	bce1a693          	slti	a3,gp,-1074
80000b74:	0000100f          	fence.i
80000b78:	b35a3893          	sltiu	a7,s4,-1227
80000b7c:	cc92a0b7          	lui	ra,0xcc92a
80000b80:	0033c233          	xor	tp,t2,gp
80000b84:	bce1a693          	slti	a3,gp,-1074
80000b88:	03457e63          	bgeu	a0,s4,80000bc4 <main_j1+0x6d4>
80000b8c:	fb4ee413          	ori	s0,t4,-76
80000b90:	00ee3233          	sltu	tp,t3,a4
80000b94:	008c8c63          	beq	s9,s0,80000bac <main_j1+0x6bc>
80000b98:	fb4ee413          	ori	s0,t4,-76
80000b9c:	20648893          	addi	a7,s1,518
80000ba0:	018d1663          	bne	s10,s8,80000bac <main_j1+0x6bc>
80000ba4:	0ff0000f          	fence
80000ba8:	01c4dbb3          	srl	s7,s1,t3
80000bac:	01bef5b3          	and	a1,t4,s11
80000bb0:	4111dd93          	srai	s11,gp,0x11
80000bb4:	01c4dbb3          	srl	s7,s1,t3
80000bb8:	0000100f          	fence.i
80000bbc:	0ff0000f          	fence
80000bc0:	cc92a0b7          	lui	ra,0xcc92a
80000bc4:	4111dd93          	srai	s11,gp,0x11
80000bc8:	4111dd93          	srai	s11,gp,0x11
80000bcc:	cc92a0b7          	lui	ra,0xcc92a
80000bd0:	01bef5b3          	and	a1,t4,s11
80000bd4:	015f1093          	slli	ra,t5,0x15
80000bd8:	0033c233          	xor	tp,t2,gp
80000bdc:	00ee3233          	sltu	tp,t3,a4
80000be0:	01457263          	bgeu	a0,s4,80000be4 <main_j1+0x6f4>
80000be4:	015f1093          	slli	ra,t5,0x15
80000be8:	043b4463          	blt	s6,gp,80000c30 <main_j1+0x740>
80000bec:	0033c233          	xor	tp,t2,gp
80000bf0:	20648893          	addi	a7,s1,518
80000bf4:	006410b3          	sll	ra,s0,t1
80000bf8:	008c8663          	beq	s9,s0,80000c04 <main_j1+0x714>
80000bfc:	bce1a693          	slti	a3,gp,-1074
80000c00:	fb4ee413          	ori	s0,t4,-76
80000c04:	048c8063          	beq	s9,s0,80000c44 <main_j1+0x754>
80000c08:	20648893          	addi	a7,s1,518
80000c0c:	409a5633          	sra	a2,s4,s1
80000c10:	006410b3          	sll	ra,s0,t1
80000c14:	00ee3233          	sltu	tp,t3,a4
80000c18:	00cea633          	slt	a2,t4,a2
80000c1c:	000706b3          	add	a3,a4,zero
80000c20:	03457c63          	bgeu	a0,s4,80000c58 <main_j1+0x768>
80000c24:	015f1093          	slli	ra,t5,0x15
80000c28:	409a5633          	sra	a2,s4,s1
80000c2c:	006410b3          	sll	ra,s0,t1
80000c30:	00cea633          	slt	a2,t4,a2
80000c34:	015f1093          	slli	ra,t5,0x15
80000c38:	0ff0000f          	fence
80000c3c:	cc92a0b7          	lui	ra,0xcc92a
80000c40:	05a0e863          	bltu	ra,s10,80000c90 <main_j1+0x7a0>
80000c44:	40ed8c33          	sub	s8,s11,a4
80000c48:	03457663          	bgeu	a0,s4,80000c74 <main_j1+0x784>
80000c4c:	409a5633          	sra	a2,s4,s1
80000c50:	043b4063          	blt	s6,gp,80000c90 <main_j1+0x7a0>
80000c54:	1d860217          	auipc	tp,0x1d860
80000c58:	b35a3893          	sltiu	a7,s4,-1227
80000c5c:	00406333          	or	t1,zero,tp
80000c60:	01a0e663          	bltu	ra,s10,80000c6c <main_j1+0x77c>
80000c64:	00ee3233          	sltu	tp,t3,a4
80000c68:	00406333          	or	t1,zero,tp
80000c6c:	4111dd93          	srai	s11,gp,0x11
80000c70:	409a5633          	sra	a2,s4,s1
80000c74:	01d2d463          	bge	t0,t4,80000c7c <main_j1+0x78c>
80000c78:	003b4e63          	blt	s6,gp,80000c94 <main_j1+0x7a4>
80000c7c:	00406333          	or	t1,zero,tp
80000c80:	fb4ee413          	ori	s0,t4,-76
80000c84:	409a5633          	sra	a2,s4,s1
80000c88:	4cb37c13          	andi	s8,t1,1227
80000c8c:	01bef5b3          	and	a1,t4,s11
80000c90:	01d2da63          	bge	t0,t4,80000ca4 <main_j1+0x7b4>
80000c94:	0000100f          	fence.i
80000c98:	0000100f          	fence.i
80000c9c:	000706b3          	add	a3,a4,zero
80000ca0:	20648893          	addi	a7,s1,518
80000ca4:	00cea633          	slt	a2,t4,a2
80000ca8:	00000013          	nop
80000cac:	01c4dbb3          	srl	s7,s1,t3
80000cb0:	008c8663          	beq	s9,s0,80000cbc <main_j1+0x7cc>
80000cb4:	015ad993          	srli	s3,s5,0x15
80000cb8:	4111dd93          	srai	s11,gp,0x11
80000cbc:	bce1a693          	slti	a3,gp,-1074
80000cc0:	00000013          	nop
80000cc4:	00ee3233          	sltu	tp,t3,a4
80000cc8:	fb4ee413          	ori	s0,t4,-76
80000ccc:	048c8663          	beq	s9,s0,80000d18 <main_j1+0x828>
80000cd0:	20648893          	addi	a7,s1,518
80000cd4:	fb4ee413          	ori	s0,t4,-76
80000cd8:	01bef5b3          	and	a1,t4,s11
80000cdc:	cc92a0b7          	lui	ra,0xcc92a
80000ce0:	40ed8c33          	sub	s8,s11,a4
80000ce4:	0000100f          	fence.i
80000ce8:	0033c233          	xor	tp,t2,gp
80000cec:	00cea633          	slt	a2,t4,a2
80000cf0:	fb4ee413          	ori	s0,t4,-76
80000cf4:	4111dd93          	srai	s11,gp,0x11
80000cf8:	409a5633          	sra	a2,s4,s1
80000cfc:	00ee3233          	sltu	tp,t3,a4
80000d00:	003b4e63          	blt	s6,gp,80000d1c <main_j1+0x82c>
80000d04:	015ad993          	srli	s3,s5,0x15
80000d08:	000706b3          	add	a3,a4,zero
80000d0c:	fb4ee413          	ori	s0,t4,-76
80000d10:	00406333          	or	t1,zero,tp
80000d14:	03457263          	bgeu	a0,s4,80000d38 <main_j1+0x848>
80000d18:	05a0e063          	bltu	ra,s10,80000d58 <main_j1+0x868>
80000d1c:	058d1663          	bne	s10,s8,80000d68 <main_j1+0x878>
80000d20:	bce1a693          	slti	a3,gp,-1074
80000d24:	01c4dbb3          	srl	s7,s1,t3
80000d28:	0000100f          	fence.i
80000d2c:	0ff0000f          	fence
80000d30:	0033c233          	xor	tp,t2,gp
80000d34:	0ff0000f          	fence
80000d38:	bce1a693          	slti	a3,gp,-1074
80000d3c:	03d2de63          	bge	t0,t4,80000d78 <main_j1+0x888>
80000d40:	018d1263          	bne	s10,s8,80000d44 <main_j1+0x854>
80000d44:	cc92a0b7          	lui	ra,0xcc92a
80000d48:	b35a3893          	sltiu	a7,s4,-1227
80000d4c:	003b4e63          	blt	s6,gp,80000d68 <main_j1+0x878>
80000d50:	01bef5b3          	and	a1,t4,s11
80000d54:	00000013          	nop
80000d58:	01c4dbb3          	srl	s7,s1,t3
80000d5c:	05457263          	bgeu	a0,s4,80000da0 <main_j1+0x8b0>
80000d60:	015f1093          	slli	ra,t5,0x15
80000d64:	b35a3893          	sltiu	a7,s4,-1227
80000d68:	038d1463          	bne	s10,s8,80000d90 <main_j1+0x8a0>
80000d6c:	0ff0000f          	fence
80000d70:	0ff0000f          	fence
80000d74:	4111dd93          	srai	s11,gp,0x11
80000d78:	40ed8c33          	sub	s8,s11,a4
80000d7c:	03d2d463          	bge	t0,t4,80000da4 <main_j1+0x8b4>
80000d80:	00000013          	nop
80000d84:	00ee3233          	sltu	tp,t3,a4
80000d88:	00000013          	nop
80000d8c:	003b4e63          	blt	s6,gp,80000da8 <main_j1+0x8b8>
80000d90:	4111dd93          	srai	s11,gp,0x11
80000d94:	4111dd93          	srai	s11,gp,0x11
80000d98:	058d1463          	bne	s10,s8,80000de0 <main_j1+0x8f0>
80000d9c:	b35a3893          	sltiu	a7,s4,-1227
80000da0:	028c8663          	beq	s9,s0,80000dcc <main_j1+0x8dc>
80000da4:	015f1093          	slli	ra,t5,0x15
80000da8:	fb4ee413          	ori	s0,t4,-76
80000dac:	0ff0000f          	fence
80000db0:	00ee3233          	sltu	tp,t3,a4
80000db4:	058d1863          	bne	s10,s8,80000e04 <main_j1+0x914>
80000db8:	bce1a693          	slti	a3,gp,-1074
80000dbc:	00ee3233          	sltu	tp,t3,a4
80000dc0:	018d1663          	bne	s10,s8,80000dcc <main_j1+0x8dc>
80000dc4:	b35a3893          	sltiu	a7,s4,-1227
80000dc8:	05457063          	bgeu	a0,s4,80000e08 <main_j1+0x918>
80000dcc:	0000100f          	fence.i
80000dd0:	01bef5b3          	and	a1,t4,s11
80000dd4:	023b4463          	blt	s6,gp,80000dfc <main_j1+0x90c>
80000dd8:	00cea633          	slt	a2,t4,a2
80000ddc:	bce1a693          	slti	a3,gp,-1074
80000de0:	20648893          	addi	a7,s1,518
80000de4:	05d2d663          	bge	t0,t4,80000e30 <main_j1+0x940>
80000de8:	000706b3          	add	a3,a4,zero
80000dec:	01d2de63          	bge	t0,t4,80000e08 <main_j1+0x918>
80000df0:	01a0e663          	bltu	ra,s10,80000dfc <main_j1+0x90c>
80000df4:	4111dd93          	srai	s11,gp,0x11
80000df8:	01457e63          	bgeu	a0,s4,80000e14 <main_j1+0x924>
80000dfc:	006410b3          	sll	ra,s0,t1
80000e00:	1d860217          	auipc	tp,0x1d860
80000e04:	bce1a693          	slti	a3,gp,-1074
80000e08:	00406333          	or	t1,zero,tp
80000e0c:	015ad993          	srli	s3,s5,0x15
80000e10:	01bef5b3          	and	a1,t4,s11
80000e14:	043b4663          	blt	s6,gp,80000e60 <main_j1+0x970>
80000e18:	00cea633          	slt	a2,t4,a2
80000e1c:	00cea633          	slt	a2,t4,a2
80000e20:	01a0e663          	bltu	ra,s10,80000e2c <main_j1+0x93c>
80000e24:	01c4dbb3          	srl	s7,s1,t3
80000e28:	00cea633          	slt	a2,t4,a2
80000e2c:	028c8e63          	beq	s9,s0,80000e68 <main_j1+0x978>
80000e30:	0000100f          	fence.i
80000e34:	00406333          	or	t1,zero,tp
80000e38:	01bef5b3          	and	a1,t4,s11
80000e3c:	03a0e663          	bltu	ra,s10,80000e68 <main_j1+0x978>
80000e40:	409a5633          	sra	a2,s4,s1
80000e44:	05a0e263          	bltu	ra,s10,80000e88 <main_j1+0x998>
80000e48:	01a0ea63          	bltu	ra,s10,80000e5c <main_j1+0x96c>
80000e4c:	00ee3233          	sltu	tp,t3,a4
80000e50:	cc92a0b7          	lui	ra,0xcc92a
80000e54:	1d860217          	auipc	tp,0x1d860
80000e58:	048c8063          	beq	s9,s0,80000e98 <main_j1+0x9a8>
80000e5c:	01d2d263          	bge	t0,t4,80000e60 <main_j1+0x970>
80000e60:	fb4ee413          	ori	s0,t4,-76
80000e64:	00000013          	nop
80000e68:	1d860217          	auipc	tp,0x1d860
80000e6c:	5dff4793          	xori	a5,t5,1503
80000e70:	015f1093          	slli	ra,t5,0x15
80000e74:	006410b3          	sll	ra,s0,t1
80000e78:	20648893          	addi	a7,s1,518
80000e7c:	00000013          	nop
80000e80:	03d2de63          	bge	t0,t4,80000ebc <main_j1+0x9cc>
80000e84:	4cb37c13          	andi	s8,t1,1227
80000e88:	048c8063          	beq	s9,s0,80000ec8 <main_j1+0x9d8>
80000e8c:	1d860217          	auipc	tp,0x1d860
80000e90:	0ff0000f          	fence
80000e94:	01457c63          	bgeu	a0,s4,80000eac <main_j1+0x9bc>
80000e98:	00000013          	nop
80000e9c:	043b4263          	blt	s6,gp,80000ee0 <main_j1+0x9f0>
80000ea0:	1d860217          	auipc	tp,0x1d860
80000ea4:	409a5633          	sra	a2,s4,s1
80000ea8:	000706b3          	add	a3,a4,zero
80000eac:	4cb37c13          	andi	s8,t1,1227
80000eb0:	000706b3          	add	a3,a4,zero
80000eb4:	018d1663          	bne	s10,s8,80000ec0 <main_j1+0x9d0>
80000eb8:	000706b3          	add	a3,a4,zero
80000ebc:	00406333          	or	t1,zero,tp
80000ec0:	1d860217          	auipc	tp,0x1d860
80000ec4:	01bef5b3          	and	a1,t4,s11
80000ec8:	01c4dbb3          	srl	s7,s1,t3
80000ecc:	023b4263          	blt	s6,gp,80000ef0 <main_j1+0xa00>
80000ed0:	00ee3233          	sltu	tp,t3,a4
80000ed4:	038d1063          	bne	s10,s8,80000ef4 <main_j1+0xa04>
80000ed8:	fb4ee413          	ori	s0,t4,-76
80000edc:	01bef5b3          	and	a1,t4,s11
80000ee0:	000706b3          	add	a3,a4,zero
80000ee4:	00000013          	nop
80000ee8:	40ed8c33          	sub	s8,s11,a4
80000eec:	03457c63          	bgeu	a0,s4,80000f24 <main_j1+0xa34>
80000ef0:	003b4263          	blt	s6,gp,80000ef4 <main_j1+0xa04>
80000ef4:	00ee3233          	sltu	tp,t3,a4
80000ef8:	0033c233          	xor	tp,t2,gp
80000efc:	1d860217          	auipc	tp,0x1d860
80000f00:	01457463          	bgeu	a0,s4,80000f08 <main_j1+0xa18>
80000f04:	038d1e63          	bne	s10,s8,80000f40 <main_j1+0xa50>
80000f08:	018d1463          	bne	s10,s8,80000f10 <main_j1+0xa20>
80000f0c:	015ad993          	srli	s3,s5,0x15
80000f10:	015ad993          	srli	s3,s5,0x15
80000f14:	028c8063          	beq	s9,s0,80000f34 <main_j1+0xa44>
80000f18:	fb4ee413          	ori	s0,t4,-76
80000f1c:	1d860217          	auipc	tp,0x1d860
80000f20:	015ad993          	srli	s3,s5,0x15
80000f24:	01bef5b3          	and	a1,t4,s11
80000f28:	008c8263          	beq	s9,s0,80000f2c <main_j1+0xa3c>
80000f2c:	006410b3          	sll	ra,s0,t1
80000f30:	003b4e63          	blt	s6,gp,80000f4c <main_j1+0xa5c>
80000f34:	05a0e663          	bltu	ra,s10,80000f80 <main_j1+0xa90>
80000f38:	00ee3233          	sltu	tp,t3,a4
80000f3c:	fb4ee413          	ori	s0,t4,-76
80000f40:	006410b3          	sll	ra,s0,t1
80000f44:	0ff0000f          	fence
80000f48:	4cb37c13          	andi	s8,t1,1227
80000f4c:	20648893          	addi	a7,s1,518
80000f50:	00ee3233          	sltu	tp,t3,a4
80000f54:	bce1a693          	slti	a3,gp,-1074
80000f58:	000706b3          	add	a3,a4,zero
80000f5c:	b35a3893          	sltiu	a7,s4,-1227
80000f60:	4111dd93          	srai	s11,gp,0x11
80000f64:	cc92a0b7          	lui	ra,0xcc92a
80000f68:	01c4dbb3          	srl	s7,s1,t3
80000f6c:	40ed8c33          	sub	s8,s11,a4
80000f70:	01c4dbb3          	srl	s7,s1,t3
80000f74:	00ee3233          	sltu	tp,t3,a4
80000f78:	40ed8c33          	sub	s8,s11,a4
80000f7c:	0000100f          	fence.i
80000f80:	cc92a0b7          	lui	ra,0xcc92a
80000f84:	018d1e63          	bne	s10,s8,80000fa0 <main_j1+0xab0>
80000f88:	05a0e063          	bltu	ra,s10,80000fc8 <main_j1+0xad8>
80000f8c:	cc92a0b7          	lui	ra,0xcc92a
80000f90:	0000100f          	fence.i
80000f94:	0000100f          	fence.i
80000f98:	00406333          	or	t1,zero,tp
80000f9c:	4cb37c13          	andi	s8,t1,1227
80000fa0:	20648893          	addi	a7,s1,518
80000fa4:	5dff4793          	xori	a5,t5,1503
80000fa8:	4cb37c13          	andi	s8,t1,1227
80000fac:	0000100f          	fence.i
80000fb0:	028c8e63          	beq	s9,s0,80000fec <main_j1+0xafc>
80000fb4:	05a0e463          	bltu	ra,s10,80000ffc <main_j1+0xb0c>
80000fb8:	4cb37c13          	andi	s8,t1,1227
80000fbc:	006410b3          	sll	ra,s0,t1
80000fc0:	01a0ec63          	bltu	ra,s10,80000fd8 <main_j1+0xae8>
80000fc4:	006410b3          	sll	ra,s0,t1
80000fc8:	4111dd93          	srai	s11,gp,0x11
80000fcc:	40ed8c33          	sub	s8,s11,a4
80000fd0:	cc92a0b7          	lui	ra,0xcc92a
80000fd4:	0ff0000f          	fence
80000fd8:	20648893          	addi	a7,s1,518
80000fdc:	000706b3          	add	a3,a4,zero
80000fe0:	00406333          	or	t1,zero,tp
80000fe4:	4111dd93          	srai	s11,gp,0x11
80000fe8:	4111dd93          	srai	s11,gp,0x11
80000fec:	00000013          	nop
80000ff0:	00406333          	or	t1,zero,tp
80000ff4:	b35a3893          	sltiu	a7,s4,-1227
80000ff8:	4cb37c13          	andi	s8,t1,1227
80000ffc:	01bef5b3          	and	a1,t4,s11
80001000:	00406333          	or	t1,zero,tp
80001004:	cc92a0b7          	lui	ra,0xcc92a
80001008:	018d1663          	bne	s10,s8,80001014 <main_j1+0xb24>
8000100c:	20648893          	addi	a7,s1,518
80001010:	5dff4793          	xori	a5,t5,1503
80001014:	01c4dbb3          	srl	s7,s1,t3
80001018:	00406333          	or	t1,zero,tp
8000101c:	0ff0000f          	fence
80001020:	006410b3          	sll	ra,s0,t1
80001024:	fb4ee413          	ori	s0,t4,-76
80001028:	0033c233          	xor	tp,t2,gp
8000102c:	5dff4793          	xori	a5,t5,1503
80001030:	015ad993          	srli	s3,s5,0x15
80001034:	006410b3          	sll	ra,s0,t1
80001038:	05d2d063          	bge	t0,t4,80001078 <main_j1+0xb88>
8000103c:	20648893          	addi	a7,s1,518
80001040:	015ad993          	srli	s3,s5,0x15
80001044:	03d2d663          	bge	t0,t4,80001070 <main_j1+0xb80>
80001048:	0ff0000f          	fence
8000104c:	015ad993          	srli	s3,s5,0x15
80001050:	043b4263          	blt	s6,gp,80001094 <main_j1+0xba4>
80001054:	fb4ee413          	ori	s0,t4,-76
80001058:	003b4663          	blt	s6,gp,80001064 <main_j1+0xb74>
8000105c:	b35a3893          	sltiu	a7,s4,-1227
80001060:	4111dd93          	srai	s11,gp,0x11
80001064:	015f1093          	slli	ra,t5,0x15
80001068:	023b4c63          	blt	s6,gp,800010a0 <main_j1+0xbb0>
8000106c:	006410b3          	sll	ra,s0,t1
80001070:	01d2d263          	bge	t0,t4,80001074 <main_j1+0xb84>
80001074:	cc92a0b7          	lui	ra,0xcc92a
80001078:	015f1093          	slli	ra,t5,0x15
8000107c:	0ff0000f          	fence
80001080:	015ad993          	srli	s3,s5,0x15
80001084:	20648893          	addi	a7,s1,518
80001088:	0000100f          	fence.i
8000108c:	20648893          	addi	a7,s1,518
80001090:	0000100f          	fence.i
80001094:	5dff4793          	xori	a5,t5,1503
80001098:	cc92a0b7          	lui	ra,0xcc92a
8000109c:	01bef5b3          	and	a1,t4,s11
800010a0:	0000100f          	fence.i
800010a4:	00406333          	or	t1,zero,tp
800010a8:	00cea633          	slt	a2,t4,a2
800010ac:	000706b3          	add	a3,a4,zero
800010b0:	01bef5b3          	and	a1,t4,s11
800010b4:	058d1663          	bne	s10,s8,80001100 <main_j1+0xc10>
800010b8:	5dff4793          	xori	a5,t5,1503
800010bc:	4111dd93          	srai	s11,gp,0x11
800010c0:	409a5633          	sra	a2,s4,s1
800010c4:	5dff4793          	xori	a5,t5,1503
800010c8:	03457663          	bgeu	a0,s4,800010f4 <main_j1+0xc04>
800010cc:	4cb37c13          	andi	s8,t1,1227
800010d0:	01bef5b3          	and	a1,t4,s11
800010d4:	cc92a0b7          	lui	ra,0xcc92a
800010d8:	01457663          	bgeu	a0,s4,800010e4 <main_j1+0xbf4>
800010dc:	006410b3          	sll	ra,s0,t1
800010e0:	bce1a693          	slti	a3,gp,-1074
800010e4:	bce1a693          	slti	a3,gp,-1074
800010e8:	03d2d463          	bge	t0,t4,80001110 <main_j1+0xc20>
800010ec:	05d2d863          	bge	t0,t4,8000113c <main_j1+0xc4c>
800010f0:	4cb37c13          	andi	s8,t1,1227
800010f4:	20648893          	addi	a7,s1,518
800010f8:	015f1093          	slli	ra,t5,0x15
800010fc:	01c4dbb3          	srl	s7,s1,t3
80001100:	4111dd93          	srai	s11,gp,0x11
80001104:	bce1a693          	slti	a3,gp,-1074
80001108:	00000013          	nop
8000110c:	bce1a693          	slti	a3,gp,-1074
80001110:	40ed8c33          	sub	s8,s11,a4
80001114:	40ed8c33          	sub	s8,s11,a4
80001118:	00cea633          	slt	a2,t4,a2
8000111c:	bce1a693          	slti	a3,gp,-1074
80001120:	00cea633          	slt	a2,t4,a2
80001124:	00cea633          	slt	a2,t4,a2
80001128:	048c8263          	beq	s9,s0,8000116c <main_j1+0xc7c>
8000112c:	05a0e063          	bltu	ra,s10,8000116c <main_j1+0xc7c>
80001130:	03457263          	bgeu	a0,s4,80001154 <main_j1+0xc64>
80001134:	008c8663          	beq	s9,s0,80001140 <main_j1+0xc50>
80001138:	01c4dbb3          	srl	s7,s1,t3
8000113c:	006410b3          	sll	ra,s0,t1
80001140:	40ed8c33          	sub	s8,s11,a4
80001144:	0000100f          	fence.i
80001148:	00ee3233          	sltu	tp,t3,a4
8000114c:	01457a63          	bgeu	a0,s4,80001160 <main_j1+0xc70>
80001150:	006410b3          	sll	ra,s0,t1
80001154:	00cea633          	slt	a2,t4,a2
80001158:	015ad993          	srli	s3,s5,0x15
8000115c:	006410b3          	sll	ra,s0,t1
80001160:	5dff4793          	xori	a5,t5,1503
80001164:	01bef5b3          	and	a1,t4,s11
80001168:	03457463          	bgeu	a0,s4,80001190 <main_j1+0xca0>
8000116c:	4cb37c13          	andi	s8,t1,1227
80001170:	008c8e63          	beq	s9,s0,8000118c <main_j1+0xc9c>
80001174:	01c4dbb3          	srl	s7,s1,t3
80001178:	00cea633          	slt	a2,t4,a2
8000117c:	015f1093          	slli	ra,t5,0x15
80001180:	409a5633          	sra	a2,s4,s1
80001184:	00ee3233          	sltu	tp,t3,a4
80001188:	01c4dbb3          	srl	s7,s1,t3
8000118c:	409a5633          	sra	a2,s4,s1
80001190:	006410b3          	sll	ra,s0,t1
80001194:	01d2d263          	bge	t0,t4,80001198 <main_j1+0xca8>
80001198:	003b4663          	blt	s6,gp,800011a4 <main_j1+0xcb4>
8000119c:	03d2d663          	bge	t0,t4,800011c8 <main_j1+0xcd8>
800011a0:	5dff4793          	xori	a5,t5,1503
800011a4:	4cb37c13          	andi	s8,t1,1227
800011a8:	0000100f          	fence.i
800011ac:	028c8663          	beq	s9,s0,800011d8 <main_j1+0xce8>
800011b0:	058d1263          	bne	s10,s8,800011f4 <main_j1+0xd04>
800011b4:	0000100f          	fence.i
800011b8:	00ee3233          	sltu	tp,t3,a4
800011bc:	015ad993          	srli	s3,s5,0x15
800011c0:	01a0ee63          	bltu	ra,s10,800011dc <main_j1+0xcec>
800011c4:	20648893          	addi	a7,s1,518
800011c8:	015ad993          	srli	s3,s5,0x15
800011cc:	0000100f          	fence.i
800011d0:	00406333          	or	t1,zero,tp
800011d4:	01c4dbb3          	srl	s7,s1,t3
800011d8:	00ee3233          	sltu	tp,t3,a4
800011dc:	01bef5b3          	and	a1,t4,s11
800011e0:	fb4ee413          	ori	s0,t4,-76
800011e4:	03d2d263          	bge	t0,t4,80001208 <main_j1+0xd18>
800011e8:	20648893          	addi	a7,s1,518
800011ec:	00000013          	nop
800011f0:	5dff4793          	xori	a5,t5,1503
800011f4:	1d860217          	auipc	tp,0x1d860
800011f8:	00000013          	nop
800011fc:	0ff0000f          	fence
80001200:	b35a3893          	sltiu	a7,s4,-1227
80001204:	043b4663          	blt	s6,gp,80001250 <main_j1+0xd60>
80001208:	5dff4793          	xori	a5,t5,1503
8000120c:	1d860217          	auipc	tp,0x1d860
80001210:	000706b3          	add	a3,a4,zero
80001214:	5dff4793          	xori	a5,t5,1503
80001218:	015ad993          	srli	s3,s5,0x15
8000121c:	015ad993          	srli	s3,s5,0x15
80001220:	1d860217          	auipc	tp,0x1d860
80001224:	01bef5b3          	and	a1,t4,s11
80001228:	4cb37c13          	andi	s8,t1,1227
8000122c:	cc92a0b7          	lui	ra,0xcc92a
80001230:	1d860217          	auipc	tp,0x1d860
80001234:	cc92a0b7          	lui	ra,0xcc92a
80001238:	40ed8c33          	sub	s8,s11,a4
8000123c:	05457063          	bgeu	a0,s4,8000127c <main_j1+0xd8c>
80001240:	03457063          	bgeu	a0,s4,80001260 <main_j1+0xd70>
80001244:	023b4463          	blt	s6,gp,8000126c <main_j1+0xd7c>
80001248:	003b4e63          	blt	s6,gp,80001264 <main_j1+0xd74>
8000124c:	000706b3          	add	a3,a4,zero
80001250:	00ee3233          	sltu	tp,t3,a4
80001254:	4cb37c13          	andi	s8,t1,1227
80001258:	0033c233          	xor	tp,t2,gp
8000125c:	0000100f          	fence.i
80001260:	05a0e263          	bltu	ra,s10,800012a4 <main_j1+0xdb4>
80001264:	0ff0000f          	fence
80001268:	01bef5b3          	and	a1,t4,s11
8000126c:	015f1093          	slli	ra,t5,0x15
80001270:	20648893          	addi	a7,s1,518
80001274:	01c4dbb3          	srl	s7,s1,t3
80001278:	409a5633          	sra	a2,s4,s1
8000127c:	b35a3893          	sltiu	a7,s4,-1227
80001280:	4cb37c13          	andi	s8,t1,1227
80001284:	20648893          	addi	a7,s1,518
80001288:	0000100f          	fence.i
8000128c:	b35a3893          	sltiu	a7,s4,-1227
80001290:	008c8a63          	beq	s9,s0,800012a4 <main_j1+0xdb4>
80001294:	40ed8c33          	sub	s8,s11,a4
80001298:	01c4dbb3          	srl	s7,s1,t3
8000129c:	40ed8c33          	sub	s8,s11,a4
800012a0:	5dff4793          	xori	a5,t5,1503
800012a4:	00406333          	or	t1,zero,tp
800012a8:	00000013          	nop
800012ac:	1d860217          	auipc	tp,0x1d860
800012b0:	00ee3233          	sltu	tp,t3,a4
800012b4:	00ee3233          	sltu	tp,t3,a4
800012b8:	4111dd93          	srai	s11,gp,0x11
800012bc:	20648893          	addi	a7,s1,518
800012c0:	01bef5b3          	and	a1,t4,s11
800012c4:	4111dd93          	srai	s11,gp,0x11
800012c8:	0033c233          	xor	tp,t2,gp
800012cc:	0033c233          	xor	tp,t2,gp
800012d0:	20648893          	addi	a7,s1,518
800012d4:	fb4ee413          	ori	s0,t4,-76
800012d8:	05a0e063          	bltu	ra,s10,80001318 <main_j1+0xe28>
800012dc:	0ff0000f          	fence
800012e0:	01a0e263          	bltu	ra,s10,800012e4 <main_j1+0xdf4>
800012e4:	00000013          	nop
800012e8:	5dff4793          	xori	a5,t5,1503
800012ec:	5dff4793          	xori	a5,t5,1503
800012f0:	40ed8c33          	sub	s8,s11,a4
800012f4:	01a0e663          	bltu	ra,s10,80001300 <main_j1+0xe10>
800012f8:	00ee3233          	sltu	tp,t3,a4
800012fc:	40ed8c33          	sub	s8,s11,a4
80001300:	00ee3233          	sltu	tp,t3,a4
80001304:	01c4dbb3          	srl	s7,s1,t3
80001308:	0000100f          	fence.i
8000130c:	000706b3          	add	a3,a4,zero
80001310:	00406333          	or	t1,zero,tp
80001314:	0ff0000f          	fence
80001318:	409a5633          	sra	a2,s4,s1
8000131c:	0000100f          	fence.i
80001320:	01bef5b3          	and	a1,t4,s11
80001324:	409a5633          	sra	a2,s4,s1
80001328:	01c4dbb3          	srl	s7,s1,t3
8000132c:	0000100f          	fence.i
80001330:	0033c233          	xor	tp,t2,gp
80001334:	023b4c63          	blt	s6,gp,8000136c <main_j1+0xe7c>
80001338:	00ee3233          	sltu	tp,t3,a4
8000133c:	008c8663          	beq	s9,s0,80001348 <main_j1+0xe58>
80001340:	cc92a0b7          	lui	ra,0xcc92a
80001344:	4111dd93          	srai	s11,gp,0x11
80001348:	05d2d463          	bge	t0,t4,80001390 <main_j1+0xea0>
8000134c:	015f1093          	slli	ra,t5,0x15
80001350:	023b4e63          	blt	s6,gp,8000138c <main_j1+0xe9c>
80001354:	bce1a693          	slti	a3,gp,-1074
80001358:	4cb37c13          	andi	s8,t1,1227
8000135c:	000706b3          	add	a3,a4,zero
80001360:	01457663          	bgeu	a0,s4,8000136c <main_j1+0xe7c>
80001364:	5dff4793          	xori	a5,t5,1503
80001368:	01c4dbb3          	srl	s7,s1,t3
8000136c:	20648893          	addi	a7,s1,518
80001370:	cc92a0b7          	lui	ra,0xcc92a
80001374:	4111dd93          	srai	s11,gp,0x11
80001378:	015f1093          	slli	ra,t5,0x15
8000137c:	b35a3893          	sltiu	a7,s4,-1227
80001380:	00ee3233          	sltu	tp,t3,a4
80001384:	006410b3          	sll	ra,s0,t1
80001388:	40ed8c33          	sub	s8,s11,a4
8000138c:	20648893          	addi	a7,s1,518
80001390:	00cea633          	slt	a2,t4,a2
80001394:	4cb37c13          	andi	s8,t1,1227
80001398:	043b4063          	blt	s6,gp,800013d8 <main_j1+0xee8>
8000139c:	015ad993          	srli	s3,s5,0x15
800013a0:	01c4dbb3          	srl	s7,s1,t3
800013a4:	01bef5b3          	and	a1,t4,s11
800013a8:	023b4e63          	blt	s6,gp,800013e4 <main_j1+0xef4>
800013ac:	01c4dbb3          	srl	s7,s1,t3
800013b0:	20648893          	addi	a7,s1,518
800013b4:	fb4ee413          	ori	s0,t4,-76
800013b8:	000706b3          	add	a3,a4,zero
800013bc:	01c4dbb3          	srl	s7,s1,t3
800013c0:	00cea633          	slt	a2,t4,a2
800013c4:	038d1463          	bne	s10,s8,800013ec <main_j1+0xefc>
800013c8:	20648893          	addi	a7,s1,518
800013cc:	0ff0000f          	fence
800013d0:	5dff4793          	xori	a5,t5,1503
800013d4:	00ee3233          	sltu	tp,t3,a4
800013d8:	008c8463          	beq	s9,s0,800013e0 <main_j1+0xef0>
800013dc:	0000100f          	fence.i
800013e0:	b35a3893          	sltiu	a7,s4,-1227
800013e4:	40ed8c33          	sub	s8,s11,a4
800013e8:	05d2d863          	bge	t0,t4,80001438 <main_j1+0xf48>
800013ec:	4cb37c13          	andi	s8,t1,1227
800013f0:	0ff0000f          	fence
800013f4:	00ee3233          	sltu	tp,t3,a4
800013f8:	00ee3233          	sltu	tp,t3,a4
800013fc:	409a5633          	sra	a2,s4,s1
80001400:	4111dd93          	srai	s11,gp,0x11
80001404:	01c4dbb3          	srl	s7,s1,t3
80001408:	00000013          	nop
8000140c:	043b4663          	blt	s6,gp,80001458 <main_j1+0xf68>
80001410:	00406333          	or	t1,zero,tp
80001414:	5dff4793          	xori	a5,t5,1503
80001418:	003b4c63          	blt	s6,gp,80001430 <main_j1+0xf40>
8000141c:	b35a3893          	sltiu	a7,s4,-1227
80001420:	1d860217          	auipc	tp,0x1d860
80001424:	00000013          	nop
80001428:	20648893          	addi	a7,s1,518
8000142c:	018d1e63          	bne	s10,s8,80001448 <main_j1+0xf58>
80001430:	008c8663          	beq	s9,s0,8000143c <main_j1+0xf4c>
80001434:	00406333          	or	t1,zero,tp
80001438:	0033c233          	xor	tp,t2,gp
8000143c:	008c8e63          	beq	s9,s0,80001458 <main_j1+0xf68>
80001440:	cc92a0b7          	lui	ra,0xcc92a
80001444:	1d860217          	auipc	tp,0x1d860
80001448:	00cea633          	slt	a2,t4,a2
8000144c:	0033c233          	xor	tp,t2,gp
80001450:	00406333          	or	t1,zero,tp
80001454:	0ff0000f          	fence
80001458:	03d2d463          	bge	t0,t4,80001480 <main_j1+0xf90>
8000145c:	4cb37c13          	andi	s8,t1,1227
80001460:	000706b3          	add	a3,a4,zero
80001464:	01a0e663          	bltu	ra,s10,80001470 <main_j1+0xf80>
80001468:	01457263          	bgeu	a0,s4,8000146c <main_j1+0xf7c>
8000146c:	cc92a0b7          	lui	ra,0xcc92a
80001470:	00406333          	or	t1,zero,tp
80001474:	4cb37c13          	andi	s8,t1,1227
80001478:	409a5633          	sra	a2,s4,s1
8000147c:	028c8263          	beq	s9,s0,800014a0 <main_j1+0xfb0>
80001480:	4111dd93          	srai	s11,gp,0x11
80001484:	5dff4793          	xori	a5,t5,1503
80001488:	40ed8c33          	sub	s8,s11,a4
8000148c:	00ee3233          	sltu	tp,t3,a4
80001490:	01bef5b3          	and	a1,t4,s11
80001494:	fb4ee413          	ori	s0,t4,-76
80001498:	00000013          	nop
8000149c:	03457663          	bgeu	a0,s4,800014c8 <main_j1+0xfd8>
800014a0:	015ad993          	srli	s3,s5,0x15
800014a4:	000706b3          	add	a3,a4,zero
800014a8:	1d860217          	auipc	tp,0x1d860
800014ac:	018d1e63          	bne	s10,s8,800014c8 <main_j1+0xfd8>
800014b0:	048c8663          	beq	s9,s0,800014fc <main_j1+0x100c>
800014b4:	01d2d263          	bge	t0,t4,800014b8 <main_j1+0xfc8>
800014b8:	015f1093          	slli	ra,t5,0x15
800014bc:	01457463          	bgeu	a0,s4,800014c4 <main_j1+0xfd4>
800014c0:	01d2de63          	bge	t0,t4,800014dc <main_j1+0xfec>
800014c4:	048c8663          	beq	s9,s0,80001510 <main_j1+0x1020>
800014c8:	00000013          	nop
800014cc:	20648893          	addi	a7,s1,518
800014d0:	40ed8c33          	sub	s8,s11,a4
800014d4:	01bef5b3          	and	a1,t4,s11
800014d8:	00ee3233          	sltu	tp,t3,a4
800014dc:	015f1093          	slli	ra,t5,0x15
800014e0:	00406333          	or	t1,zero,tp
800014e4:	b35a3893          	sltiu	a7,s4,-1227
800014e8:	0000100f          	fence.i
800014ec:	00cea633          	slt	a2,t4,a2
800014f0:	00000013          	nop
800014f4:	5dff4793          	xori	a5,t5,1503
800014f8:	1d860217          	auipc	tp,0x1d860
800014fc:	00cea633          	slt	a2,t4,a2
80001500:	00cea633          	slt	a2,t4,a2
80001504:	20648893          	addi	a7,s1,518
80001508:	00000013          	nop
8000150c:	01bef5b3          	and	a1,t4,s11
80001510:	00cea633          	slt	a2,t4,a2
80001514:	4111dd93          	srai	s11,gp,0x11
80001518:	40ed8c33          	sub	s8,s11,a4
8000151c:	409a5633          	sra	a2,s4,s1
80001520:	00ee3233          	sltu	tp,t3,a4
80001524:	01c4dbb3          	srl	s7,s1,t3
80001528:	015ad993          	srli	s3,s5,0x15
8000152c:	1d860217          	auipc	tp,0x1d860
80001530:	5dff4793          	xori	a5,t5,1503
80001534:	0033c233          	xor	tp,t2,gp
80001538:	015f1093          	slli	ra,t5,0x15
8000153c:	05457863          	bgeu	a0,s4,8000158c <main_j1+0x109c>
80001540:	05a0e463          	bltu	ra,s10,80001588 <main_j1+0x1098>
80001544:	00ee3233          	sltu	tp,t3,a4
80001548:	4111dd93          	srai	s11,gp,0x11
8000154c:	b35a3893          	sltiu	a7,s4,-1227
80001550:	40ed8c33          	sub	s8,s11,a4
80001554:	0ff0000f          	fence
80001558:	20648893          	addi	a7,s1,518
8000155c:	4111dd93          	srai	s11,gp,0x11
80001560:	cc92a0b7          	lui	ra,0xcc92a
80001564:	058d1263          	bne	s10,s8,800015a8 <main_j1+0x10b8>
80001568:	0033c233          	xor	tp,t2,gp
8000156c:	01a0e663          	bltu	ra,s10,80001578 <main_j1+0x1088>
80001570:	0000100f          	fence.i
80001574:	023b4e63          	blt	s6,gp,800015b0 <main_j1+0x10c0>
80001578:	00000013          	nop
8000157c:	5dff4793          	xori	a5,t5,1503
80001580:	00cea633          	slt	a2,t4,a2
80001584:	028c8e63          	beq	s9,s0,800015c0 <main_j1+0x10d0>
80001588:	01c4dbb3          	srl	s7,s1,t3
8000158c:	006410b3          	sll	ra,s0,t1
80001590:	4cb37c13          	andi	s8,t1,1227
80001594:	40ed8c33          	sub	s8,s11,a4
80001598:	fb4ee413          	ori	s0,t4,-76
8000159c:	05d2d263          	bge	t0,t4,800015e0 <main_j1+0x10f0>
800015a0:	0033c233          	xor	tp,t2,gp
800015a4:	03d2d063          	bge	t0,t4,800015c4 <main_j1+0x10d4>
800015a8:	20648893          	addi	a7,s1,518
800015ac:	cc92a0b7          	lui	ra,0xcc92a
800015b0:	000706b3          	add	a3,a4,zero
800015b4:	4cb37c13          	andi	s8,t1,1227
800015b8:	cc92a0b7          	lui	ra,0xcc92a
800015bc:	0ff0000f          	fence
800015c0:	05d2d063          	bge	t0,t4,80001600 <main_j1+0x1110>
800015c4:	01a0e663          	bltu	ra,s10,800015d0 <main_j1+0x10e0>
800015c8:	b35a3893          	sltiu	a7,s4,-1227
800015cc:	01c4dbb3          	srl	s7,s1,t3
800015d0:	023b4463          	blt	s6,gp,800015f8 <main_j1+0x1108>
800015d4:	015f1093          	slli	ra,t5,0x15
800015d8:	015f1093          	slli	ra,t5,0x15
800015dc:	00ee3233          	sltu	tp,t3,a4
800015e0:	40ed8c33          	sub	s8,s11,a4
800015e4:	409a5633          	sra	a2,s4,s1
800015e8:	409a5633          	sra	a2,s4,s1
800015ec:	00cea633          	slt	a2,t4,a2
800015f0:	bce1a693          	slti	a3,gp,-1074
800015f4:	03d2dc63          	bge	t0,t4,8000162c <main_j1+0x113c>
800015f8:	40ed8c33          	sub	s8,s11,a4
800015fc:	015ad993          	srli	s3,s5,0x15
80001600:	b35a3893          	sltiu	a7,s4,-1227
80001604:	018d1c63          	bne	s10,s8,8000161c <main_j1+0x112c>
80001608:	00000013          	nop
8000160c:	0033c233          	xor	tp,t2,gp
80001610:	00ee3233          	sltu	tp,t3,a4
80001614:	01c4dbb3          	srl	s7,s1,t3
80001618:	fb4ee413          	ori	s0,t4,-76
8000161c:	015f1093          	slli	ra,t5,0x15
80001620:	00ee3233          	sltu	tp,t3,a4
80001624:	409a5633          	sra	a2,s4,s1
80001628:	0033c233          	xor	tp,t2,gp
8000162c:	40ed8c33          	sub	s8,s11,a4
80001630:	b35a3893          	sltiu	a7,s4,-1227
80001634:	5dff4793          	xori	a5,t5,1503
80001638:	00000013          	nop
8000163c:	409a5633          	sra	a2,s4,s1
80001640:	cc92a0b7          	lui	ra,0xcc92a
80001644:	008c8a63          	beq	s9,s0,80001658 <main_j1+0x1168>
80001648:	cc92a0b7          	lui	ra,0xcc92a
8000164c:	b35a3893          	sltiu	a7,s4,-1227
80001650:	015f1093          	slli	ra,t5,0x15
80001654:	058d1063          	bne	s10,s8,80001694 <main_j1+0x11a4>
80001658:	038d1663          	bne	s10,s8,80001684 <main_j1+0x1194>
8000165c:	01c4dbb3          	srl	s7,s1,t3
80001660:	05a0e063          	bltu	ra,s10,800016a0 <main_j1+0x11b0>
80001664:	5dff4793          	xori	a5,t5,1503
80001668:	015ad993          	srli	s3,s5,0x15
8000166c:	0033c233          	xor	tp,t2,gp
80001670:	000706b3          	add	a3,a4,zero
80001674:	bce1a693          	slti	a3,gp,-1074
80001678:	048c8663          	beq	s9,s0,800016c4 <main_j1+0x11d4>
8000167c:	00cea633          	slt	a2,t4,a2
80001680:	b35a3893          	sltiu	a7,s4,-1227
80001684:	05457863          	bgeu	a0,s4,800016d4 <main_j1+0x11e4>
80001688:	038d1463          	bne	s10,s8,800016b0 <main_j1+0x11c0>
8000168c:	048c8063          	beq	s9,s0,800016cc <main_j1+0x11dc>
80001690:	01bef5b3          	and	a1,t4,s11
80001694:	058d1463          	bne	s10,s8,800016dc <main_j1+0x11ec>
80001698:	4cb37c13          	andi	s8,t1,1227
8000169c:	cc92a0b7          	lui	ra,0xcc92a
800016a0:	40ed8c33          	sub	s8,s11,a4
800016a4:	01d2d663          	bge	t0,t4,800016b0 <main_j1+0x11c0>
800016a8:	409a5633          	sra	a2,s4,s1
800016ac:	00ee3233          	sltu	tp,t3,a4
800016b0:	03d2d063          	bge	t0,t4,800016d0 <main_j1+0x11e0>
800016b4:	fb4ee413          	ori	s0,t4,-76
800016b8:	000706b3          	add	a3,a4,zero
800016bc:	1d860217          	auipc	tp,0x1d860
800016c0:	cc92a0b7          	lui	ra,0xcc92a
800016c4:	1d860217          	auipc	tp,0x1d860
800016c8:	40ed8c33          	sub	s8,s11,a4
800016cc:	0000100f          	fence.i
800016d0:	5dff4793          	xori	a5,t5,1503
800016d4:	000706b3          	add	a3,a4,zero
800016d8:	01d2dc63          	bge	t0,t4,800016f0 <main_j1+0x1200>
800016dc:	023b4c63          	blt	s6,gp,80001714 <main_j1+0x1224>
800016e0:	409a5633          	sra	a2,s4,s1
800016e4:	006410b3          	sll	ra,s0,t1
800016e8:	015f1093          	slli	ra,t5,0x15
800016ec:	01c4dbb3          	srl	s7,s1,t3
800016f0:	00ee3233          	sltu	tp,t3,a4
800016f4:	bce1a693          	slti	a3,gp,-1074
800016f8:	01c4dbb3          	srl	s7,s1,t3
800016fc:	00000013          	nop
80001700:	00000013          	nop
80001704:	bce1a693          	slti	a3,gp,-1074
80001708:	bce1a693          	slti	a3,gp,-1074
8000170c:	bce1a693          	slti	a3,gp,-1074
80001710:	4111dd93          	srai	s11,gp,0x11
80001714:	40ed8c33          	sub	s8,s11,a4
80001718:	40ed8c33          	sub	s8,s11,a4
8000171c:	20648893          	addi	a7,s1,518
80001720:	015f1093          	slli	ra,t5,0x15
80001724:	00406333          	or	t1,zero,tp
80001728:	015ad993          	srli	s3,s5,0x15
8000172c:	018d1e63          	bne	s10,s8,80001748 <main_j1+0x1258>
80001730:	015ad993          	srli	s3,s5,0x15
80001734:	015f1093          	slli	ra,t5,0x15
80001738:	008c8263          	beq	s9,s0,8000173c <main_j1+0x124c>
8000173c:	40ed8c33          	sub	s8,s11,a4
80001740:	01bef5b3          	and	a1,t4,s11
80001744:	fb4ee413          	ori	s0,t4,-76
80001748:	00ee3233          	sltu	tp,t3,a4
8000174c:	006410b3          	sll	ra,s0,t1
80001750:	015ad993          	srli	s3,s5,0x15
80001754:	015ad993          	srli	s3,s5,0x15
80001758:	4111dd93          	srai	s11,gp,0x11
8000175c:	015ad993          	srli	s3,s5,0x15
80001760:	40ed8c33          	sub	s8,s11,a4
80001764:	0ff0000f          	fence
80001768:	00000013          	nop
8000176c:	cc92a0b7          	lui	ra,0xcc92a
80001770:	03a0ee63          	bltu	ra,s10,800017ac <main_j1+0x12bc>
80001774:	20648893          	addi	a7,s1,518
80001778:	0ff0000f          	fence
8000177c:	5dff4793          	xori	a5,t5,1503
80001780:	cc92a0b7          	lui	ra,0xcc92a
80001784:	409a5633          	sra	a2,s4,s1
80001788:	01c4dbb3          	srl	s7,s1,t3
8000178c:	01d2de63          	bge	t0,t4,800017a8 <main_j1+0x12b8>
80001790:	01d2d663          	bge	t0,t4,8000179c <main_j1+0x12ac>
80001794:	cc92a0b7          	lui	ra,0xcc92a
80001798:	4111dd93          	srai	s11,gp,0x11
8000179c:	5dff4793          	xori	a5,t5,1503
800017a0:	4cb37c13          	andi	s8,t1,1227
800017a4:	fb4ee413          	ori	s0,t4,-76
800017a8:	cc92a0b7          	lui	ra,0xcc92a
800017ac:	03d2d463          	bge	t0,t4,800017d4 <main_j1+0x12e4>
800017b0:	00000013          	nop
800017b4:	cc92a0b7          	lui	ra,0xcc92a
800017b8:	b35a3893          	sltiu	a7,s4,-1227
800017bc:	015f1093          	slli	ra,t5,0x15
800017c0:	05d2d263          	bge	t0,t4,80001804 <main_j1+0x1314>
800017c4:	4cb37c13          	andi	s8,t1,1227
800017c8:	4cb37c13          	andi	s8,t1,1227
800017cc:	03d2d663          	bge	t0,t4,800017f8 <main_j1+0x1308>
800017d0:	0000100f          	fence.i
800017d4:	01c4dbb3          	srl	s7,s1,t3
800017d8:	4111dd93          	srai	s11,gp,0x11
800017dc:	cc92a0b7          	lui	ra,0xcc92a
800017e0:	006410b3          	sll	ra,s0,t1
800017e4:	00406333          	or	t1,zero,tp
800017e8:	000706b3          	add	a3,a4,zero
800017ec:	015ad993          	srli	s3,s5,0x15
800017f0:	03a0e263          	bltu	ra,s10,80001814 <main_j1+0x1324>
800017f4:	01bef5b3          	and	a1,t4,s11
800017f8:	b35a3893          	sltiu	a7,s4,-1227
800017fc:	01bef5b3          	and	a1,t4,s11
80001800:	003b4663          	blt	s6,gp,8000180c <main_j1+0x131c>
80001804:	20648893          	addi	a7,s1,518
80001808:	00000013          	nop
8000180c:	409a5633          	sra	a2,s4,s1
80001810:	018d1463          	bne	s10,s8,80001818 <main_j1+0x1328>
80001814:	20648893          	addi	a7,s1,518
80001818:	0ff0000f          	fence
8000181c:	00cea633          	slt	a2,t4,a2
80001820:	bce1a693          	slti	a3,gp,-1074
80001824:	0033c233          	xor	tp,t2,gp
80001828:	01457263          	bgeu	a0,s4,8000182c <main_j1+0x133c>
8000182c:	0000100f          	fence.i
80001830:	40ed8c33          	sub	s8,s11,a4
80001834:	028c8663          	beq	s9,s0,80001860 <main_j1+0x1370>
80001838:	4cb37c13          	andi	s8,t1,1227
8000183c:	01c4dbb3          	srl	s7,s1,t3
80001840:	0000100f          	fence.i
80001844:	01c4dbb3          	srl	s7,s1,t3
80001848:	000706b3          	add	a3,a4,zero
8000184c:	40ed8c33          	sub	s8,s11,a4
80001850:	03d2de63          	bge	t0,t4,8000188c <main_j1+0x139c>
80001854:	000706b3          	add	a3,a4,zero
80001858:	00cea633          	slt	a2,t4,a2
8000185c:	018d1e63          	bne	s10,s8,80001878 <main_j1+0x1388>
80001860:	409a5633          	sra	a2,s4,s1
80001864:	1d860217          	auipc	tp,0x1d860
80001868:	1d860217          	auipc	tp,0x1d860
8000186c:	00cea633          	slt	a2,t4,a2
80001870:	01c4dbb3          	srl	s7,s1,t3
80001874:	5dff4793          	xori	a5,t5,1503
80001878:	40ed8c33          	sub	s8,s11,a4
8000187c:	043b4063          	blt	s6,gp,800018bc <main_j1+0x13cc>
80001880:	05a0e063          	bltu	ra,s10,800018c0 <main_j1+0x13d0>
80001884:	05457663          	bgeu	a0,s4,800018d0 <main_j1+0x13e0>
80001888:	01a0ea63          	bltu	ra,s10,8000189c <main_j1+0x13ac>
8000188c:	0033c233          	xor	tp,t2,gp
80001890:	01457663          	bgeu	a0,s4,8000189c <main_j1+0x13ac>
80001894:	4111dd93          	srai	s11,gp,0x11
80001898:	bce1a693          	slti	a3,gp,-1074
8000189c:	fb4ee413          	ori	s0,t4,-76
800018a0:	000706b3          	add	a3,a4,zero
800018a4:	015ad993          	srli	s3,s5,0x15
800018a8:	05457263          	bgeu	a0,s4,800018ec <main_j1+0x13fc>
800018ac:	008c8e63          	beq	s9,s0,800018c8 <main_j1+0x13d8>
800018b0:	006410b3          	sll	ra,s0,t1
800018b4:	1d860217          	auipc	tp,0x1d860
800018b8:	015f1093          	slli	ra,t5,0x15
800018bc:	cc92a0b7          	lui	ra,0xcc92a
800018c0:	409a5633          	sra	a2,s4,s1
800018c4:	01bef5b3          	and	a1,t4,s11
800018c8:	b35a3893          	sltiu	a7,s4,-1227
800018cc:	1d860217          	auipc	tp,0x1d860
800018d0:	038d1663          	bne	s10,s8,800018fc <main_j1+0x140c>
800018d4:	015ad993          	srli	s3,s5,0x15
800018d8:	000706b3          	add	a3,a4,zero
800018dc:	00ee3233          	sltu	tp,t3,a4
800018e0:	5dff4793          	xori	a5,t5,1503
800018e4:	0ff0000f          	fence
800018e8:	00ee3233          	sltu	tp,t3,a4
800018ec:	006410b3          	sll	ra,s0,t1
800018f0:	05457263          	bgeu	a0,s4,80001934 <main_j1+0x1444>
800018f4:	40ed8c33          	sub	s8,s11,a4
800018f8:	0ff0000f          	fence
800018fc:	0033c233          	xor	tp,t2,gp
80001900:	fb4ee413          	ori	s0,t4,-76
80001904:	023b4063          	blt	s6,gp,80001924 <main_j1+0x1434>
80001908:	20648893          	addi	a7,s1,518
8000190c:	01c4dbb3          	srl	s7,s1,t3
80001910:	00000013          	nop
80001914:	4cb37c13          	andi	s8,t1,1227
80001918:	1d860217          	auipc	tp,0x1d860
8000191c:	028c8463          	beq	s9,s0,80001944 <main_j1+0x1454>
80001920:	409a5633          	sra	a2,s4,s1
80001924:	cc92a0b7          	lui	ra,0xcc92a
80001928:	00406333          	or	t1,zero,tp
8000192c:	4cb37c13          	andi	s8,t1,1227
80001930:	015f1093          	slli	ra,t5,0x15
80001934:	0000100f          	fence.i
80001938:	01a0e263          	bltu	ra,s10,8000193c <main_j1+0x144c>
8000193c:	05a0e463          	bltu	ra,s10,80001984 <main_j1+0x1494>
80001940:	40ed8c33          	sub	s8,s11,a4
80001944:	00cea633          	slt	a2,t4,a2
80001948:	00cea633          	slt	a2,t4,a2
8000194c:	409a5633          	sra	a2,s4,s1
80001950:	fb4ee413          	ori	s0,t4,-76
80001954:	fb4ee413          	ori	s0,t4,-76
80001958:	00cea633          	slt	a2,t4,a2
8000195c:	20648893          	addi	a7,s1,518
80001960:	4cb37c13          	andi	s8,t1,1227
80001964:	015f1093          	slli	ra,t5,0x15
80001968:	bce1a693          	slti	a3,gp,-1074
8000196c:	03d2dc63          	bge	t0,t4,800019a4 <main_j1+0x14b4>
80001970:	015f1093          	slli	ra,t5,0x15
80001974:	01c4dbb3          	srl	s7,s1,t3
80001978:	01bef5b3          	and	a1,t4,s11
8000197c:	fb4ee413          	ori	s0,t4,-76
80001980:	003b4463          	blt	s6,gp,80001988 <main_j1+0x1498>
80001984:	fb4ee413          	ori	s0,t4,-76
80001988:	01bef5b3          	and	a1,t4,s11
8000198c:	0033c233          	xor	tp,t2,gp
80001990:	5dff4793          	xori	a5,t5,1503
80001994:	4cb37c13          	andi	s8,t1,1227
80001998:	000706b3          	add	a3,a4,zero
8000199c:	015ad993          	srli	s3,s5,0x15
800019a0:	cc92a0b7          	lui	ra,0xcc92a
800019a4:	015f1093          	slli	ra,t5,0x15
800019a8:	0000100f          	fence.i
800019ac:	bce1a693          	slti	a3,gp,-1074
800019b0:	409a5633          	sra	a2,s4,s1
800019b4:	4cb37c13          	andi	s8,t1,1227
800019b8:	003b4e63          	blt	s6,gp,800019d4 <main_j1+0x14e4>
800019bc:	1d860217          	auipc	tp,0x1d860
800019c0:	015f1093          	slli	ra,t5,0x15
800019c4:	1d860217          	auipc	tp,0x1d860
800019c8:	01bef5b3          	and	a1,t4,s11
800019cc:	000706b3          	add	a3,a4,zero
800019d0:	05d2d063          	bge	t0,t4,80001a10 <main_j1+0x1520>
800019d4:	00000013          	nop
800019d8:	008c8a63          	beq	s9,s0,800019ec <main_j1+0x14fc>
800019dc:	058d1063          	bne	s10,s8,80001a1c <main_j1+0x152c>
800019e0:	1d860217          	auipc	tp,0x1d860
800019e4:	0000100f          	fence.i
800019e8:	018d1c63          	bne	s10,s8,80001a00 <main_j1+0x1510>
800019ec:	058d1663          	bne	s10,s8,80001a38 <main_j1+0x1548>
800019f0:	cc92a0b7          	lui	ra,0xcc92a
800019f4:	05a0e063          	bltu	ra,s10,80001a34 <main_j1+0x1544>
800019f8:	01d2de63          	bge	t0,t4,80001a14 <main_j1+0x1524>
800019fc:	0000100f          	fence.i
80001a00:	1d860217          	auipc	tp,0x1d860
80001a04:	fb4ee413          	ori	s0,t4,-76
80001a08:	000706b3          	add	a3,a4,zero
80001a0c:	028c8e63          	beq	s9,s0,80001a48 <main_j1+0x1558>
80001a10:	5dff4793          	xori	a5,t5,1503
80001a14:	01c4dbb3          	srl	s7,s1,t3
80001a18:	015ad993          	srli	s3,s5,0x15
80001a1c:	015ad993          	srli	s3,s5,0x15
80001a20:	006410b3          	sll	ra,s0,t1
80001a24:	0033c233          	xor	tp,t2,gp
80001a28:	1d860217          	auipc	tp,0x1d860
80001a2c:	015ad993          	srli	s3,s5,0x15
80001a30:	015ad993          	srli	s3,s5,0x15
80001a34:	4111dd93          	srai	s11,gp,0x11
80001a38:	006410b3          	sll	ra,s0,t1
80001a3c:	01d2d663          	bge	t0,t4,80001a48 <main_j1+0x1558>
80001a40:	01c4dbb3          	srl	s7,s1,t3
80001a44:	1d860217          	auipc	tp,0x1d860
80001a48:	fb4ee413          	ori	s0,t4,-76
80001a4c:	01c4dbb3          	srl	s7,s1,t3
80001a50:	b35a3893          	sltiu	a7,s4,-1227
80001a54:	003b4663          	blt	s6,gp,80001a60 <main_j1+0x1570>
80001a58:	b35a3893          	sltiu	a7,s4,-1227
80001a5c:	0000100f          	fence.i
80001a60:	0033c233          	xor	tp,t2,gp
80001a64:	01c4dbb3          	srl	s7,s1,t3
80001a68:	01c4dbb3          	srl	s7,s1,t3
80001a6c:	015ad993          	srli	s3,s5,0x15
80001a70:	03457263          	bgeu	a0,s4,80001a94 <main_j1+0x15a4>
80001a74:	0033c233          	xor	tp,t2,gp
80001a78:	01c4dbb3          	srl	s7,s1,t3
80001a7c:	1d860217          	auipc	tp,0x1d860
80001a80:	0033c233          	xor	tp,t2,gp
80001a84:	cc92a0b7          	lui	ra,0xcc92a
80001a88:	0000100f          	fence.i
80001a8c:	20648893          	addi	a7,s1,518
80001a90:	5dff4793          	xori	a5,t5,1503
80001a94:	00ee3233          	sltu	tp,t3,a4
80001a98:	fb4ee413          	ori	s0,t4,-76
80001a9c:	05d2d663          	bge	t0,t4,80001ae8 <main_j1+0x15f8>
80001aa0:	00000013          	nop
80001aa4:	409a5633          	sra	a2,s4,s1
80001aa8:	00000013          	nop
80001aac:	000706b3          	add	a3,a4,zero
80001ab0:	0ff0000f          	fence
80001ab4:	20648893          	addi	a7,s1,518
80001ab8:	bce1a693          	slti	a3,gp,-1074
80001abc:	20648893          	addi	a7,s1,518
80001ac0:	00cea633          	slt	a2,t4,a2
80001ac4:	006410b3          	sll	ra,s0,t1
80001ac8:	01457263          	bgeu	a0,s4,80001acc <main_j1+0x15dc>
80001acc:	05457263          	bgeu	a0,s4,80001b10 <main_j1+0x1620>
80001ad0:	00406333          	or	t1,zero,tp
80001ad4:	1d860217          	auipc	tp,0x1d860
80001ad8:	01c4dbb3          	srl	s7,s1,t3
80001adc:	05a0e863          	bltu	ra,s10,80001b2c <main_j1+0x163c>
80001ae0:	0033c233          	xor	tp,t2,gp
80001ae4:	20648893          	addi	a7,s1,518
80001ae8:	015ad993          	srli	s3,s5,0x15
80001aec:	00cea633          	slt	a2,t4,a2
80001af0:	015f1093          	slli	ra,t5,0x15
80001af4:	006410b3          	sll	ra,s0,t1
80001af8:	01c4dbb3          	srl	s7,s1,t3
80001afc:	01457663          	bgeu	a0,s4,80001b08 <main_j1+0x1618>
80001b00:	0000100f          	fence.i
80001b04:	cc92a0b7          	lui	ra,0xcc92a
80001b08:	03d2de63          	bge	t0,t4,80001b44 <main_j1+0x1654>
80001b0c:	0000100f          	fence.i
80001b10:	008c8663          	beq	s9,s0,80001b1c <main_j1+0x162c>
80001b14:	00cea633          	slt	a2,t4,a2
80001b18:	4111dd93          	srai	s11,gp,0x11
80001b1c:	03a0e663          	bltu	ra,s10,80001b48 <main_j1+0x1658>
80001b20:	015f1093          	slli	ra,t5,0x15
80001b24:	bce1a693          	slti	a3,gp,-1074
80001b28:	00000013          	nop
80001b2c:	03a0e463          	bltu	ra,s10,80001b54 <main_j1+0x1664>
80001b30:	043b4263          	blt	s6,gp,80001b74 <main_j1+0x1684>
80001b34:	018d1663          	bne	s10,s8,80001b40 <main_j1+0x1650>
80001b38:	bce1a693          	slti	a3,gp,-1074
80001b3c:	cc92a0b7          	lui	ra,0xcc92a
80001b40:	cc92a0b7          	lui	ra,0xcc92a
80001b44:	015ad993          	srli	s3,s5,0x15
80001b48:	0000100f          	fence.i
80001b4c:	4111dd93          	srai	s11,gp,0x11
80001b50:	01a0ee63          	bltu	ra,s10,80001b6c <main_j1+0x167c>
80001b54:	00406333          	or	t1,zero,tp
80001b58:	0033c233          	xor	tp,t2,gp
80001b5c:	03d2dc63          	bge	t0,t4,80001b94 <main_j1+0x16a4>
80001b60:	008c8663          	beq	s9,s0,80001b6c <main_j1+0x167c>
80001b64:	003b4e63          	blt	s6,gp,80001b80 <main_j1+0x1690>
80001b68:	b35a3893          	sltiu	a7,s4,-1227
80001b6c:	0033c233          	xor	tp,t2,gp
80001b70:	fb4ee413          	ori	s0,t4,-76
80001b74:	00406333          	or	t1,zero,tp
80001b78:	fb4ee413          	ori	s0,t4,-76
80001b7c:	006410b3          	sll	ra,s0,t1
80001b80:	03d2d663          	bge	t0,t4,80001bac <main_j1+0x16bc>
80001b84:	015ad993          	srli	s3,s5,0x15
80001b88:	03a0e463          	bltu	ra,s10,80001bb0 <main_j1+0x16c0>
80001b8c:	01a0ec63          	bltu	ra,s10,80001ba4 <main_j1+0x16b4>
80001b90:	05457663          	bgeu	a0,s4,80001bdc <main_j1+0x16ec>
80001b94:	01bef5b3          	and	a1,t4,s11
80001b98:	01d2da63          	bge	t0,t4,80001bac <main_j1+0x16bc>
80001b9c:	01c4dbb3          	srl	s7,s1,t3
80001ba0:	cc92a0b7          	lui	ra,0xcc92a
80001ba4:	043b4463          	blt	s6,gp,80001bec <main_j1+0x16fc>
80001ba8:	015ad993          	srli	s3,s5,0x15
80001bac:	bce1a693          	slti	a3,gp,-1074
80001bb0:	5dff4793          	xori	a5,t5,1503
80001bb4:	409a5633          	sra	a2,s4,s1
80001bb8:	00406333          	or	t1,zero,tp
80001bbc:	5dff4793          	xori	a5,t5,1503
80001bc0:	1d860217          	auipc	tp,0x1d860
80001bc4:	1d860217          	auipc	tp,0x1d860
80001bc8:	048c8263          	beq	s9,s0,80001c0c <main_j1+0x171c>
80001bcc:	4cb37c13          	andi	s8,t1,1227
80001bd0:	0000100f          	fence.i
80001bd4:	bce1a693          	slti	a3,gp,-1074
80001bd8:	00000013          	nop
80001bdc:	00000013          	nop
80001be0:	00000013          	nop
80001be4:	006410b3          	sll	ra,s0,t1
80001be8:	000706b3          	add	a3,a4,zero
80001bec:	cc92a0b7          	lui	ra,0xcc92a
80001bf0:	bce1a693          	slti	a3,gp,-1074
80001bf4:	0000100f          	fence.i
80001bf8:	bce1a693          	slti	a3,gp,-1074
80001bfc:	05a0e063          	bltu	ra,s10,80001c3c <main_j1+0x174c>
80001c00:	015f1093          	slli	ra,t5,0x15
80001c04:	01bef5b3          	and	a1,t4,s11
80001c08:	1d860217          	auipc	tp,0x1d860
80001c0c:	028c8e63          	beq	s9,s0,80001c48 <main_j1+0x1758>
80001c10:	0ff0000f          	fence
80001c14:	4111dd93          	srai	s11,gp,0x11
80001c18:	006410b3          	sll	ra,s0,t1
80001c1c:	00000013          	nop
80001c20:	03457663          	bgeu	a0,s4,80001c4c <main_j1+0x175c>
80001c24:	01457263          	bgeu	a0,s4,80001c28 <main_j1+0x1738>
80001c28:	00cea633          	slt	a2,t4,a2
80001c2c:	01c4dbb3          	srl	s7,s1,t3
80001c30:	01a0e663          	bltu	ra,s10,80001c3c <main_j1+0x174c>
80001c34:	cc92a0b7          	lui	ra,0xcc92a
80001c38:	00cea633          	slt	a2,t4,a2
80001c3c:	05d2d063          	bge	t0,t4,80001c7c <main_j1+0x178c>
80001c40:	1d860217          	auipc	tp,0x1d860
80001c44:	05d2d863          	bge	t0,t4,80001c94 <main_j1+0x17a4>
80001c48:	05d2d063          	bge	t0,t4,80001c88 <main_j1+0x1798>
80001c4c:	1d860217          	auipc	tp,0x1d860
80001c50:	0033c233          	xor	tp,t2,gp
80001c54:	01bef5b3          	and	a1,t4,s11
80001c58:	4cb37c13          	andi	s8,t1,1227
80001c5c:	5dff4793          	xori	a5,t5,1503
80001c60:	000706b3          	add	a3,a4,zero
80001c64:	01bef5b3          	and	a1,t4,s11
80001c68:	01457e63          	bgeu	a0,s4,80001c84 <main_j1+0x1794>
80001c6c:	0033c233          	xor	tp,t2,gp
80001c70:	bce1a693          	slti	a3,gp,-1074
80001c74:	00ee3233          	sltu	tp,t3,a4
80001c78:	cc92a0b7          	lui	ra,0xcc92a
80001c7c:	006410b3          	sll	ra,s0,t1
80001c80:	00ee3233          	sltu	tp,t3,a4
80001c84:	0033c233          	xor	tp,t2,gp
80001c88:	015ad993          	srli	s3,s5,0x15
80001c8c:	01bef5b3          	and	a1,t4,s11
80001c90:	018d1263          	bne	s10,s8,80001c94 <main_j1+0x17a4>
80001c94:	0ff0000f          	fence
80001c98:	015f1093          	slli	ra,t5,0x15
80001c9c:	4cb37c13          	andi	s8,t1,1227
80001ca0:	1d860217          	auipc	tp,0x1d860
80001ca4:	1d860217          	auipc	tp,0x1d860
80001ca8:	00cea633          	slt	a2,t4,a2
80001cac:	008c8463          	beq	s9,s0,80001cb4 <main_j1+0x17c4>
80001cb0:	00406333          	or	t1,zero,tp
80001cb4:	1d860217          	auipc	tp,0x1d860
80001cb8:	01c4dbb3          	srl	s7,s1,t3
80001cbc:	5dff4793          	xori	a5,t5,1503
80001cc0:	cc92a0b7          	lui	ra,0xcc92a
80001cc4:	20648893          	addi	a7,s1,518
80001cc8:	01c4dbb3          	srl	s7,s1,t3
80001ccc:	048c8663          	beq	s9,s0,80001d18 <main_j1+0x1828>
80001cd0:	03457463          	bgeu	a0,s4,80001cf8 <main_j1+0x1808>
80001cd4:	4111dd93          	srai	s11,gp,0x11
80001cd8:	0ff0000f          	fence
80001cdc:	00406333          	or	t1,zero,tp
80001ce0:	0ff0000f          	fence
80001ce4:	015ad993          	srli	s3,s5,0x15
80001ce8:	0033c233          	xor	tp,t2,gp
80001cec:	03457e63          	bgeu	a0,s4,80001d28 <main_j1+0x1838>
80001cf0:	0ff0000f          	fence
80001cf4:	000706b3          	add	a3,a4,zero
80001cf8:	cc92a0b7          	lui	ra,0xcc92a
80001cfc:	fb4ee413          	ori	s0,t4,-76
80001d00:	006410b3          	sll	ra,s0,t1
80001d04:	03a0e063          	bltu	ra,s10,80001d24 <main_j1+0x1834>
80001d08:	0000100f          	fence.i
80001d0c:	5dff4793          	xori	a5,t5,1503
80001d10:	cc92a0b7          	lui	ra,0xcc92a
80001d14:	20648893          	addi	a7,s1,518
80001d18:	409a5633          	sra	a2,s4,s1
80001d1c:	20648893          	addi	a7,s1,518
80001d20:	00406333          	or	t1,zero,tp
80001d24:	cc92a0b7          	lui	ra,0xcc92a
80001d28:	1d860217          	auipc	tp,0x1d860
80001d2c:	015f1093          	slli	ra,t5,0x15
80001d30:	03457263          	bgeu	a0,s4,80001d54 <main_j1+0x1864>
80001d34:	00cea633          	slt	a2,t4,a2
80001d38:	00406333          	or	t1,zero,tp
80001d3c:	018d1663          	bne	s10,s8,80001d48 <main_j1+0x1858>
80001d40:	5dff4793          	xori	a5,t5,1503
80001d44:	058d1863          	bne	s10,s8,80001d94 <main_j1+0x18a4>
80001d48:	bce1a693          	slti	a3,gp,-1074
80001d4c:	0033c233          	xor	tp,t2,gp
80001d50:	4cb37c13          	andi	s8,t1,1227
80001d54:	015f1093          	slli	ra,t5,0x15
80001d58:	03d2d063          	bge	t0,t4,80001d78 <main_j1+0x1888>
80001d5c:	bce1a693          	slti	a3,gp,-1074
80001d60:	00406333          	or	t1,zero,tp
80001d64:	b35a3893          	sltiu	a7,s4,-1227
80001d68:	00000013          	nop
80001d6c:	006410b3          	sll	ra,s0,t1
80001d70:	1d860217          	auipc	tp,0x1d860
80001d74:	015f1093          	slli	ra,t5,0x15
80001d78:	409a5633          	sra	a2,s4,s1
80001d7c:	bce1a693          	slti	a3,gp,-1074
80001d80:	000706b3          	add	a3,a4,zero
80001d84:	03d2d463          	bge	t0,t4,80001dac <main_j1+0x18bc>
80001d88:	409a5633          	sra	a2,s4,s1
80001d8c:	00cea633          	slt	a2,t4,a2
80001d90:	058d1463          	bne	s10,s8,80001dd8 <main_j1+0x18e8>
80001d94:	015ad993          	srli	s3,s5,0x15
80001d98:	b35a3893          	sltiu	a7,s4,-1227
80001d9c:	015ad993          	srli	s3,s5,0x15
80001da0:	4111dd93          	srai	s11,gp,0x11
80001da4:	015ad993          	srli	s3,s5,0x15
80001da8:	0000100f          	fence.i
80001dac:	015f1093          	slli	ra,t5,0x15
80001db0:	cc92a0b7          	lui	ra,0xcc92a
80001db4:	003b4663          	blt	s6,gp,80001dc0 <main_j1+0x18d0>
80001db8:	00000013          	nop
80001dbc:	01bef5b3          	and	a1,t4,s11
80001dc0:	015f1093          	slli	ra,t5,0x15
80001dc4:	008c8e63          	beq	s9,s0,80001de0 <main_j1+0x18f0>
80001dc8:	40ed8c33          	sub	s8,s11,a4
80001dcc:	008c8a63          	beq	s9,s0,80001de0 <main_j1+0x18f0>
80001dd0:	4cb37c13          	andi	s8,t1,1227
80001dd4:	409a5633          	sra	a2,s4,s1
80001dd8:	0033c233          	xor	tp,t2,gp
80001ddc:	01bef5b3          	and	a1,t4,s11
80001de0:	00000013          	nop
80001de4:	000706b3          	add	a3,a4,zero
80001de8:	4cb37c13          	andi	s8,t1,1227
80001dec:	015f1093          	slli	ra,t5,0x15
80001df0:	40ed8c33          	sub	s8,s11,a4
80001df4:	cc92a0b7          	lui	ra,0xcc92a
80001df8:	000706b3          	add	a3,a4,zero
80001dfc:	fb4ee413          	ori	s0,t4,-76
80001e00:	023b4663          	blt	s6,gp,80001e2c <main_j1+0x193c>
80001e04:	00ee3233          	sltu	tp,t3,a4
80001e08:	5dff4793          	xori	a5,t5,1503
80001e0c:	bce1a693          	slti	a3,gp,-1074
80001e10:	1d860217          	auipc	tp,0x1d860
80001e14:	0033c233          	xor	tp,t2,gp
80001e18:	03a0ec63          	bltu	ra,s10,80001e50 <main_j1+0x1960>
80001e1c:	4111dd93          	srai	s11,gp,0x11
80001e20:	01bef5b3          	and	a1,t4,s11
80001e24:	1d860217          	auipc	tp,0x1d860
80001e28:	b35a3893          	sltiu	a7,s4,-1227
80001e2c:	40ed8c33          	sub	s8,s11,a4
80001e30:	1d860217          	auipc	tp,0x1d860
80001e34:	0033c233          	xor	tp,t2,gp
80001e38:	4111dd93          	srai	s11,gp,0x11
80001e3c:	4cb37c13          	andi	s8,t1,1227
80001e40:	05457063          	bgeu	a0,s4,80001e80 <main_j1+0x1990>
80001e44:	0ff0000f          	fence
80001e48:	0000100f          	fence.i
80001e4c:	015ad993          	srli	s3,s5,0x15
80001e50:	bce1a693          	slti	a3,gp,-1074
80001e54:	01c4dbb3          	srl	s7,s1,t3
80001e58:	01bef5b3          	and	a1,t4,s11
80001e5c:	0ff0000f          	fence
80001e60:	4111dd93          	srai	s11,gp,0x11
80001e64:	01d2d263          	bge	t0,t4,80001e68 <main_j1+0x1978>
80001e68:	008c8463          	beq	s9,s0,80001e70 <main_j1+0x1980>
80001e6c:	01bef5b3          	and	a1,t4,s11
80001e70:	5dff4793          	xori	a5,t5,1503
80001e74:	0000100f          	fence.i
80001e78:	5dff4793          	xori	a5,t5,1503
80001e7c:	4111dd93          	srai	s11,gp,0x11
80001e80:	cc92a0b7          	lui	ra,0xcc92a
80001e84:	cc92a0b7          	lui	ra,0xcc92a
80001e88:	00cea633          	slt	a2,t4,a2
80001e8c:	01bef5b3          	and	a1,t4,s11
80001e90:	4111dd93          	srai	s11,gp,0x11
80001e94:	0ff0000f          	fence
80001e98:	01a0e663          	bltu	ra,s10,80001ea4 <main_j1+0x19b4>
80001e9c:	fb4ee413          	ori	s0,t4,-76
80001ea0:	bce1a693          	slti	a3,gp,-1074
80001ea4:	b35a3893          	sltiu	a7,s4,-1227
80001ea8:	0000100f          	fence.i
80001eac:	00cea633          	slt	a2,t4,a2
80001eb0:	20648893          	addi	a7,s1,518
80001eb4:	40ed8c33          	sub	s8,s11,a4
80001eb8:	01457e63          	bgeu	a0,s4,80001ed4 <main_j1+0x19e4>
80001ebc:	00ee3233          	sltu	tp,t3,a4
80001ec0:	018d1e63          	bne	s10,s8,80001edc <main_j1+0x19ec>
80001ec4:	0ff0000f          	fence
80001ec8:	0000100f          	fence.i
80001ecc:	01bef5b3          	and	a1,t4,s11
80001ed0:	0033c233          	xor	tp,t2,gp
80001ed4:	1d860217          	auipc	tp,0x1d860
80001ed8:	0033c233          	xor	tp,t2,gp
80001edc:	00cea633          	slt	a2,t4,a2
80001ee0:	006410b3          	sll	ra,s0,t1
80001ee4:	0000100f          	fence.i
80001ee8:	00ee3233          	sltu	tp,t3,a4
80001eec:	b35a3893          	sltiu	a7,s4,-1227
80001ef0:	0033c233          	xor	tp,t2,gp
80001ef4:	018d1263          	bne	s10,s8,80001ef8 <main_j1+0x1a08>
80001ef8:	bce1a693          	slti	a3,gp,-1074
80001efc:	03457263          	bgeu	a0,s4,80001f20 <main_j1+0x1a30>
80001f00:	01bef5b3          	and	a1,t4,s11
80001f04:	fb4ee413          	ori	s0,t4,-76
80001f08:	01d2d663          	bge	t0,t4,80001f14 <main_j1+0x1a24>
80001f0c:	0ff0000f          	fence
80001f10:	fb4ee413          	ori	s0,t4,-76
80001f14:	015ad993          	srli	s3,s5,0x15
80001f18:	015f1093          	slli	ra,t5,0x15
80001f1c:	018d1c63          	bne	s10,s8,80001f34 <main_j1+0x1a44>
80001f20:	015f1093          	slli	ra,t5,0x15
80001f24:	015ad993          	srli	s3,s5,0x15
80001f28:	4cb37c13          	andi	s8,t1,1227
80001f2c:	20648893          	addi	a7,s1,518
80001f30:	006410b3          	sll	ra,s0,t1
80001f34:	000706b3          	add	a3,a4,zero
80001f38:	01bef5b3          	and	a1,t4,s11
80001f3c:	0000100f          	fence.i
80001f40:	20648893          	addi	a7,s1,518
80001f44:	000706b3          	add	a3,a4,zero
80001f48:	023b4663          	blt	s6,gp,80001f74 <main_j1+0x1a84>
80001f4c:	0033c233          	xor	tp,t2,gp
80001f50:	000706b3          	add	a3,a4,zero
80001f54:	01c4dbb3          	srl	s7,s1,t3
80001f58:	1d860217          	auipc	tp,0x1d860
80001f5c:	05d2d263          	bge	t0,t4,80001fa0 <main_j1+0x1ab0>
80001f60:	b35a3893          	sltiu	a7,s4,-1227
80001f64:	028c8e63          	beq	s9,s0,80001fa0 <main_j1+0x1ab0>
80001f68:	008c8663          	beq	s9,s0,80001f74 <main_j1+0x1a84>
80001f6c:	cc92a0b7          	lui	ra,0xcc92a
80001f70:	01c4dbb3          	srl	s7,s1,t3
80001f74:	1d860217          	auipc	tp,0x1d860
80001f78:	00000013          	nop
80001f7c:	0000100f          	fence.i
80001f80:	00406333          	or	t1,zero,tp
80001f84:	05d2d663          	bge	t0,t4,80001fd0 <main_j1+0x1ae0>
80001f88:	409a5633          	sra	a2,s4,s1
80001f8c:	1d860217          	auipc	tp,0x1d860
80001f90:	20648893          	addi	a7,s1,518
80001f94:	00406333          	or	t1,zero,tp
80001f98:	fb4ee413          	ori	s0,t4,-76
80001f9c:	00406333          	or	t1,zero,tp
80001fa0:	000706b3          	add	a3,a4,zero
80001fa4:	048c8263          	beq	s9,s0,80001fe8 <main_j1+0x1af8>
80001fa8:	0ff0000f          	fence
80001fac:	03457e63          	bgeu	a0,s4,80001fe8 <main_j1+0x1af8>
80001fb0:	4cb37c13          	andi	s8,t1,1227
80001fb4:	b35a3893          	sltiu	a7,s4,-1227
80001fb8:	058d1063          	bne	s10,s8,80001ff8 <main_j1+0x1b08>
80001fbc:	00000013          	nop
80001fc0:	05457663          	bgeu	a0,s4,8000200c <main_j1+0x1b1c>
80001fc4:	00cea633          	slt	a2,t4,a2
80001fc8:	fb4ee413          	ori	s0,t4,-76
80001fcc:	00cea633          	slt	a2,t4,a2
80001fd0:	043b4063          	blt	s6,gp,80002010 <main_j1+0x1b20>
80001fd4:	20648893          	addi	a7,s1,518
80001fd8:	1d860217          	auipc	tp,0x1d860
80001fdc:	015ad993          	srli	s3,s5,0x15
80001fe0:	000706b3          	add	a3,a4,zero
80001fe4:	1d860217          	auipc	tp,0x1d860
80001fe8:	03457463          	bgeu	a0,s4,80002010 <main_j1+0x1b20>
80001fec:	cc92a0b7          	lui	ra,0xcc92a
80001ff0:	01c4dbb3          	srl	s7,s1,t3
80001ff4:	01d2dc63          	bge	t0,t4,8000200c <main_j1+0x1b1c>
80001ff8:	cc92a0b7          	lui	ra,0xcc92a
80001ffc:	0ff0000f          	fence
80002000:	bce1a693          	slti	a3,gp,-1074
80002004:	05a0e463          	bltu	ra,s10,8000204c <main_j1+0x1b5c>
80002008:	00000013          	nop
8000200c:	0033c233          	xor	tp,t2,gp
80002010:	008c8263          	beq	s9,s0,80002014 <main_j1+0x1b24>
80002014:	00cea633          	slt	a2,t4,a2
80002018:	01c4dbb3          	srl	s7,s1,t3
8000201c:	00406333          	or	t1,zero,tp
80002020:	015f1093          	slli	ra,t5,0x15
80002024:	4111dd93          	srai	s11,gp,0x11
80002028:	01c4dbb3          	srl	s7,s1,t3
8000202c:	409a5633          	sra	a2,s4,s1
80002030:	00cea633          	slt	a2,t4,a2
80002034:	4cb37c13          	andi	s8,t1,1227
80002038:	4cb37c13          	andi	s8,t1,1227
8000203c:	01c4dbb3          	srl	s7,s1,t3
80002040:	000706b3          	add	a3,a4,zero
80002044:	bce1a693          	slti	a3,gp,-1074
80002048:	006410b3          	sll	ra,s0,t1
8000204c:	1d860217          	auipc	tp,0x1d860
80002050:	b35a3893          	sltiu	a7,s4,-1227
80002054:	1d860217          	auipc	tp,0x1d860
80002058:	05a0e863          	bltu	ra,s10,800020a8 <main_j1+0x1bb8>
8000205c:	043b4263          	blt	s6,gp,800020a0 <main_j1+0x1bb0>
80002060:	0ff0000f          	fence
80002064:	00ee3233          	sltu	tp,t3,a4
80002068:	00000013          	nop
8000206c:	03a0e063          	bltu	ra,s10,8000208c <main_j1+0x1b9c>
80002070:	000706b3          	add	a3,a4,zero
80002074:	00000013          	nop
80002078:	1d860217          	auipc	tp,0x1d860
8000207c:	043b4663          	blt	s6,gp,800020c8 <main_j1+0x1bd8>
80002080:	01c4dbb3          	srl	s7,s1,t3
80002084:	015f1093          	slli	ra,t5,0x15
80002088:	0000100f          	fence.i
8000208c:	00000013          	nop
80002090:	018d1e63          	bne	s10,s8,800020ac <main_j1+0x1bbc>
80002094:	20648893          	addi	a7,s1,518
80002098:	01457663          	bgeu	a0,s4,800020a4 <main_j1+0x1bb4>
8000209c:	03d2de63          	bge	t0,t4,800020d8 <main_j1+0x1be8>
800020a0:	00406333          	or	t1,zero,tp
800020a4:	003b4663          	blt	s6,gp,800020b0 <main_j1+0x1bc0>
800020a8:	b35a3893          	sltiu	a7,s4,-1227
800020ac:	4111dd93          	srai	s11,gp,0x11
800020b0:	00000013          	nop
800020b4:	015ad993          	srli	s3,s5,0x15
800020b8:	01a0ea63          	bltu	ra,s10,800020cc <main_j1+0x1bdc>
800020bc:	5dff4793          	xori	a5,t5,1503
800020c0:	00cea633          	slt	a2,t4,a2
800020c4:	0033c233          	xor	tp,t2,gp
800020c8:	1d860217          	auipc	tp,0x1d860
800020cc:	01a0e663          	bltu	ra,s10,800020d8 <main_j1+0x1be8>
800020d0:	01c4dbb3          	srl	s7,s1,t3
800020d4:	006410b3          	sll	ra,s0,t1
800020d8:	fb4ee413          	ori	s0,t4,-76
800020dc:	003b4e63          	blt	s6,gp,800020f8 <main_j1+0x1c08>
800020e0:	00406333          	or	t1,zero,tp
800020e4:	5dff4793          	xori	a5,t5,1503
800020e8:	00406333          	or	t1,zero,tp
800020ec:	b35a3893          	sltiu	a7,s4,-1227
800020f0:	01bef5b3          	and	a1,t4,s11
800020f4:	20648893          	addi	a7,s1,518
800020f8:	015f1093          	slli	ra,t5,0x15
800020fc:	0033c233          	xor	tp,t2,gp
80002100:	4cb37c13          	andi	s8,t1,1227
80002104:	1d860217          	auipc	tp,0x1d860
80002108:	043b4063          	blt	s6,gp,80002148 <main_j1+0x1c58>
8000210c:	038d1e63          	bne	s10,s8,80002148 <main_j1+0x1c58>
80002110:	003b4263          	blt	s6,gp,80002114 <main_j1+0x1c24>
80002114:	00ee3233          	sltu	tp,t3,a4
80002118:	bce1a693          	slti	a3,gp,-1074
8000211c:	fb4ee413          	ori	s0,t4,-76
80002120:	00ee3233          	sltu	tp,t3,a4
80002124:	0000100f          	fence.i
80002128:	b35a3893          	sltiu	a7,s4,-1227
8000212c:	038d1463          	bne	s10,s8,80002154 <main_j1+0x1c64>
80002130:	4cb37c13          	andi	s8,t1,1227
80002134:	4cb37c13          	andi	s8,t1,1227
80002138:	409a5633          	sra	a2,s4,s1
8000213c:	bce1a693          	slti	a3,gp,-1074
80002140:	409a5633          	sra	a2,s4,s1
80002144:	00000013          	nop
80002148:	00ee3233          	sltu	tp,t3,a4
8000214c:	bce1a693          	slti	a3,gp,-1074
80002150:	fb4ee413          	ori	s0,t4,-76
80002154:	4111dd93          	srai	s11,gp,0x11
80002158:	00000013          	nop
8000215c:	40ed8c33          	sub	s8,s11,a4
80002160:	1d860217          	auipc	tp,0x1d860
80002164:	5dff4793          	xori	a5,t5,1503
80002168:	bce1a693          	slti	a3,gp,-1074
8000216c:	00406333          	or	t1,zero,tp
80002170:	4111dd93          	srai	s11,gp,0x11
80002174:	000706b3          	add	a3,a4,zero
80002178:	05457063          	bgeu	a0,s4,800021b8 <main_j1+0x1cc8>
8000217c:	00cea633          	slt	a2,t4,a2
80002180:	5dff4793          	xori	a5,t5,1503
80002184:	409a5633          	sra	a2,s4,s1
80002188:	cc92a0b7          	lui	ra,0xcc92a
8000218c:	0033c233          	xor	tp,t2,gp
80002190:	20648893          	addi	a7,s1,518
80002194:	000706b3          	add	a3,a4,zero
80002198:	003b4663          	blt	s6,gp,800021a4 <main_j1+0x1cb4>
8000219c:	4cb37c13          	andi	s8,t1,1227
800021a0:	409a5633          	sra	a2,s4,s1
800021a4:	00cea633          	slt	a2,t4,a2
800021a8:	0033c233          	xor	tp,t2,gp
800021ac:	01c4dbb3          	srl	s7,s1,t3
800021b0:	01c4dbb3          	srl	s7,s1,t3
800021b4:	006410b3          	sll	ra,s0,t1
800021b8:	cc92a0b7          	lui	ra,0xcc92a
800021bc:	048c8663          	beq	s9,s0,80002208 <main_j1+0x1d18>
800021c0:	409a5633          	sra	a2,s4,s1
800021c4:	043b4063          	blt	s6,gp,80002204 <main_j1+0x1d14>
800021c8:	4cb37c13          	andi	s8,t1,1227
800021cc:	40ed8c33          	sub	s8,s11,a4
800021d0:	1d860217          	auipc	tp,0x1d860
800021d4:	01bef5b3          	and	a1,t4,s11
800021d8:	006410b3          	sll	ra,s0,t1
800021dc:	03a0e263          	bltu	ra,s10,80002200 <main_j1+0x1d10>
800021e0:	015f1093          	slli	ra,t5,0x15
800021e4:	0000100f          	fence.i
800021e8:	01457e63          	bgeu	a0,s4,80002204 <main_j1+0x1d14>
800021ec:	00000013          	nop
800021f0:	5dff4793          	xori	a5,t5,1503
800021f4:	05d2d263          	bge	t0,t4,80002238 <main_j1+0x1d48>
800021f8:	03457463          	bgeu	a0,s4,80002220 <main_j1+0x1d30>
800021fc:	0000100f          	fence.i
80002200:	038d1663          	bne	s10,s8,8000222c <main_j1+0x1d3c>
80002204:	409a5633          	sra	a2,s4,s1
80002208:	cc92a0b7          	lui	ra,0xcc92a
8000220c:	5dff4793          	xori	a5,t5,1503
80002210:	5dff4793          	xori	a5,t5,1503
80002214:	40ed8c33          	sub	s8,s11,a4
80002218:	fb4ee413          	ori	s0,t4,-76
8000221c:	bce1a693          	slti	a3,gp,-1074
80002220:	00cea633          	slt	a2,t4,a2
80002224:	0ff0000f          	fence
80002228:	03d2d663          	bge	t0,t4,80002254 <main_j1+0x1d64>
8000222c:	00cea633          	slt	a2,t4,a2
80002230:	40ed8c33          	sub	s8,s11,a4
80002234:	0ff0000f          	fence
80002238:	00cea633          	slt	a2,t4,a2
8000223c:	00000013          	nop
80002240:	01a0e463          	bltu	ra,s10,80002248 <main_j1+0x1d58>
80002244:	4111dd93          	srai	s11,gp,0x11
80002248:	0000100f          	fence.i
8000224c:	00000013          	nop
80002250:	00ee3233          	sltu	tp,t3,a4
80002254:	4cb37c13          	andi	s8,t1,1227
80002258:	000706b3          	add	a3,a4,zero
8000225c:	fb4ee413          	ori	s0,t4,-76
80002260:	00406333          	or	t1,zero,tp
80002264:	1d860217          	auipc	tp,0x1d860
80002268:	5dff4793          	xori	a5,t5,1503
8000226c:	1d860217          	auipc	tp,0x1d860
80002270:	028c8c63          	beq	s9,s0,800022a8 <main_j1+0x1db8>
80002274:	0000100f          	fence.i
80002278:	cc92a0b7          	lui	ra,0xcc92a
8000227c:	00ee3233          	sltu	tp,t3,a4
80002280:	00cea633          	slt	a2,t4,a2
80002284:	00406333          	or	t1,zero,tp
80002288:	015ad993          	srli	s3,s5,0x15
8000228c:	bce1a693          	slti	a3,gp,-1074
80002290:	40ed8c33          	sub	s8,s11,a4
80002294:	40ed8c33          	sub	s8,s11,a4
80002298:	00cea633          	slt	a2,t4,a2
8000229c:	00ee3233          	sltu	tp,t3,a4
800022a0:	0033c233          	xor	tp,t2,gp
800022a4:	00cea633          	slt	a2,t4,a2
800022a8:	409a5633          	sra	a2,s4,s1
800022ac:	03457063          	bgeu	a0,s4,800022cc <main_j1+0x1ddc>
800022b0:	01457a63          	bgeu	a0,s4,800022c4 <main_j1+0x1dd4>
800022b4:	00000013          	nop
800022b8:	20648893          	addi	a7,s1,518
800022bc:	003b4263          	blt	s6,gp,800022c0 <main_j1+0x1dd0>
800022c0:	1d860217          	auipc	tp,0x1d860
800022c4:	028c8e63          	beq	s9,s0,80002300 <main_j1+0x1e10>
800022c8:	0ff0000f          	fence
800022cc:	b35a3893          	sltiu	a7,s4,-1227
800022d0:	015f1093          	slli	ra,t5,0x15
800022d4:	00ee3233          	sltu	tp,t3,a4
800022d8:	01c4dbb3          	srl	s7,s1,t3
800022dc:	20648893          	addi	a7,s1,518
800022e0:	00cea633          	slt	a2,t4,a2
800022e4:	fb4ee413          	ori	s0,t4,-76
800022e8:	1d860217          	auipc	tp,0x1d860
800022ec:	4cb37c13          	andi	s8,t1,1227
800022f0:	01c4dbb3          	srl	s7,s1,t3
800022f4:	00cea633          	slt	a2,t4,a2
800022f8:	03457663          	bgeu	a0,s4,80002324 <main_j1+0x1e34>
800022fc:	03d2dc63          	bge	t0,t4,80002334 <main_j1+0x1e44>
80002300:	409a5633          	sra	a2,s4,s1
80002304:	000706b3          	add	a3,a4,zero
80002308:	00000013          	nop
8000230c:	5dff4793          	xori	a5,t5,1503
80002310:	006410b3          	sll	ra,s0,t1
80002314:	006410b3          	sll	ra,s0,t1
80002318:	4cb37c13          	andi	s8,t1,1227
8000231c:	1d860217          	auipc	tp,0x1d860
80002320:	20648893          	addi	a7,s1,518
80002324:	bce1a693          	slti	a3,gp,-1074
80002328:	00cea633          	slt	a2,t4,a2
8000232c:	00ee3233          	sltu	tp,t3,a4
80002330:	fb4ee413          	ori	s0,t4,-76
80002334:	008c8c63          	beq	s9,s0,8000234c <main_j1+0x1e5c>
80002338:	01c4dbb3          	srl	s7,s1,t3
8000233c:	0033c233          	xor	tp,t2,gp
80002340:	01c4dbb3          	srl	s7,s1,t3
80002344:	409a5633          	sra	a2,s4,s1
80002348:	015ad993          	srli	s3,s5,0x15
8000234c:	00406333          	or	t1,zero,tp
80002350:	0ff0000f          	fence
80002354:	20648893          	addi	a7,s1,518
80002358:	00000013          	nop
8000235c:	20648893          	addi	a7,s1,518
80002360:	b35a3893          	sltiu	a7,s4,-1227
80002364:	0033c233          	xor	tp,t2,gp
80002368:	03457663          	bgeu	a0,s4,80002394 <main_j1+0x1ea4>
8000236c:	015f1093          	slli	ra,t5,0x15
80002370:	01457663          	bgeu	a0,s4,8000237c <main_j1+0x1e8c>
80002374:	01d2d663          	bge	t0,t4,80002380 <main_j1+0x1e90>
80002378:	409a5633          	sra	a2,s4,s1
8000237c:	1d860217          	auipc	tp,0x1d860
80002380:	000706b3          	add	a3,a4,zero
80002384:	015ad993          	srli	s3,s5,0x15
80002388:	b35a3893          	sltiu	a7,s4,-1227
8000238c:	05457263          	bgeu	a0,s4,800023d0 <main_j1+0x1ee0>
80002390:	006410b3          	sll	ra,s0,t1
80002394:	03457463          	bgeu	a0,s4,800023bc <main_j1+0x1ecc>
80002398:	01bef5b3          	and	a1,t4,s11
8000239c:	01a0e263          	bltu	ra,s10,800023a0 <main_j1+0x1eb0>
800023a0:	00ee3233          	sltu	tp,t3,a4
800023a4:	058d1663          	bne	s10,s8,800023f0 <main_j1+0x1f00>
800023a8:	058d1263          	bne	s10,s8,800023ec <main_j1+0x1efc>
800023ac:	01bef5b3          	and	a1,t4,s11
800023b0:	01d2d663          	bge	t0,t4,800023bc <main_j1+0x1ecc>
800023b4:	023b4463          	blt	s6,gp,800023dc <main_j1+0x1eec>
800023b8:	01bef5b3          	and	a1,t4,s11
800023bc:	01c4dbb3          	srl	s7,s1,t3
800023c0:	0ff0000f          	fence
800023c4:	018d1e63          	bne	s10,s8,800023e0 <main_j1+0x1ef0>
800023c8:	40ed8c33          	sub	s8,s11,a4
800023cc:	008c8463          	beq	s9,s0,800023d4 <main_j1+0x1ee4>
800023d0:	4111dd93          	srai	s11,gp,0x11
800023d4:	5dff4793          	xori	a5,t5,1503
800023d8:	043b4063          	blt	s6,gp,80002418 <main_j1+0x1f28>
800023dc:	01d2de63          	bge	t0,t4,800023f8 <main_j1+0x1f08>
800023e0:	003b4663          	blt	s6,gp,800023ec <main_j1+0x1efc>
800023e4:	0033c233          	xor	tp,t2,gp
800023e8:	00000013          	nop
800023ec:	006410b3          	sll	ra,s0,t1
800023f0:	00ee3233          	sltu	tp,t3,a4
800023f4:	4cb37c13          	andi	s8,t1,1227
800023f8:	00ee3233          	sltu	tp,t3,a4
800023fc:	01c4dbb3          	srl	s7,s1,t3
80002400:	05457063          	bgeu	a0,s4,80002440 <main_j1+0x1f50>
80002404:	b35a3893          	sltiu	a7,s4,-1227
80002408:	048c8063          	beq	s9,s0,80002448 <main_j1+0x1f58>
8000240c:	0033c233          	xor	tp,t2,gp
80002410:	043b4663          	blt	s6,gp,8000245c <main_j1+0x1f6c>
80002414:	20648893          	addi	a7,s1,518
80002418:	00406333          	or	t1,zero,tp
8000241c:	038d1e63          	bne	s10,s8,80002458 <main_j1+0x1f68>
80002420:	fb4ee413          	ori	s0,t4,-76
80002424:	b35a3893          	sltiu	a7,s4,-1227
80002428:	015f1093          	slli	ra,t5,0x15
8000242c:	006410b3          	sll	ra,s0,t1
80002430:	cc92a0b7          	lui	ra,0xcc92a
80002434:	05d2d463          	bge	t0,t4,8000247c <main_j1+0x1f8c>
80002438:	5dff4793          	xori	a5,t5,1503
8000243c:	0033c233          	xor	tp,t2,gp
80002440:	4cb37c13          	andi	s8,t1,1227
80002444:	0033c233          	xor	tp,t2,gp
80002448:	00000013          	nop
8000244c:	cc92a0b7          	lui	ra,0xcc92a
80002450:	018d1e63          	bne	s10,s8,8000246c <main_j1+0x1f7c>
80002454:	01c4dbb3          	srl	s7,s1,t3
80002458:	bce1a693          	slti	a3,gp,-1074
8000245c:	40ed8c33          	sub	s8,s11,a4
80002460:	01bef5b3          	and	a1,t4,s11
80002464:	0ff0000f          	fence
80002468:	0033c233          	xor	tp,t2,gp
8000246c:	015f1093          	slli	ra,t5,0x15
80002470:	5dff4793          	xori	a5,t5,1503
80002474:	03d2d263          	bge	t0,t4,80002498 <main_j1+0x1fa8>
80002478:	fb4ee413          	ori	s0,t4,-76
8000247c:	01c4dbb3          	srl	s7,s1,t3
80002480:	05457863          	bgeu	a0,s4,800024d0 <main_j1+0x1fe0>
80002484:	023b4663          	blt	s6,gp,800024b0 <main_j1+0x1fc0>
80002488:	00cea633          	slt	a2,t4,a2
8000248c:	4cb37c13          	andi	s8,t1,1227
80002490:	40ed8c33          	sub	s8,s11,a4
80002494:	006410b3          	sll	ra,s0,t1
80002498:	043b4263          	blt	s6,gp,800024dc <main_j1+0x1fec>
8000249c:	b35a3893          	sltiu	a7,s4,-1227
800024a0:	015ad993          	srli	s3,s5,0x15
800024a4:	00406333          	or	t1,zero,tp
800024a8:	fb4ee413          	ori	s0,t4,-76
800024ac:	409a5633          	sra	a2,s4,s1
800024b0:	00ee3233          	sltu	tp,t3,a4
800024b4:	01c4dbb3          	srl	s7,s1,t3
800024b8:	01a0e663          	bltu	ra,s10,800024c4 <main_j1+0x1fd4>
800024bc:	015ad993          	srli	s3,s5,0x15
800024c0:	cc92a0b7          	lui	ra,0xcc92a
800024c4:	015f1093          	slli	ra,t5,0x15
800024c8:	000706b3          	add	a3,a4,zero
800024cc:	00406333          	or	t1,zero,tp
800024d0:	006410b3          	sll	ra,s0,t1
800024d4:	015f1093          	slli	ra,t5,0x15
800024d8:	0000100f          	fence.i
800024dc:	b35a3893          	sltiu	a7,s4,-1227
800024e0:	01c4dbb3          	srl	s7,s1,t3
800024e4:	4cb37c13          	andi	s8,t1,1227
800024e8:	006410b3          	sll	ra,s0,t1
800024ec:	015f1093          	slli	ra,t5,0x15
800024f0:	cc92a0b7          	lui	ra,0xcc92a
800024f4:	00ee3233          	sltu	tp,t3,a4
800024f8:	00000013          	nop
800024fc:	4cb37c13          	andi	s8,t1,1227
80002500:	00406333          	or	t1,zero,tp
80002504:	015ad993          	srli	s3,s5,0x15
80002508:	01d2de63          	bge	t0,t4,80002524 <main_j1+0x2034>
8000250c:	01c4dbb3          	srl	s7,s1,t3
80002510:	40ed8c33          	sub	s8,s11,a4
80002514:	01c4dbb3          	srl	s7,s1,t3
80002518:	00ee3233          	sltu	tp,t3,a4
8000251c:	bce1a693          	slti	a3,gp,-1074
80002520:	cc92a0b7          	lui	ra,0xcc92a
80002524:	20648893          	addi	a7,s1,518
80002528:	05a0e463          	bltu	ra,s10,80002570 <main_j1+0x2080>
8000252c:	40ed8c33          	sub	s8,s11,a4
80002530:	0000100f          	fence.i
80002534:	00406333          	or	t1,zero,tp
80002538:	cc92a0b7          	lui	ra,0xcc92a
8000253c:	00cea633          	slt	a2,t4,a2
80002540:	015ad993          	srli	s3,s5,0x15
80002544:	00ee3233          	sltu	tp,t3,a4
80002548:	5dff4793          	xori	a5,t5,1503
8000254c:	015ad993          	srli	s3,s5,0x15
80002550:	015ad993          	srli	s3,s5,0x15
80002554:	058d1263          	bne	s10,s8,80002598 <main_j1+0x20a8>
80002558:	00cea633          	slt	a2,t4,a2
8000255c:	bce1a693          	slti	a3,gp,-1074
80002560:	003b4663          	blt	s6,gp,8000256c <main_j1+0x207c>
80002564:	40ed8c33          	sub	s8,s11,a4
80002568:	0033c233          	xor	tp,t2,gp
8000256c:	b35a3893          	sltiu	a7,s4,-1227
80002570:	006410b3          	sll	ra,s0,t1
80002574:	4cb37c13          	andi	s8,t1,1227
80002578:	0033c233          	xor	tp,t2,gp
8000257c:	0ff0000f          	fence
80002580:	006410b3          	sll	ra,s0,t1
80002584:	05d2d663          	bge	t0,t4,800025d0 <main_j1+0x20e0>
80002588:	015f1093          	slli	ra,t5,0x15
8000258c:	fb4ee413          	ori	s0,t4,-76
80002590:	cc92a0b7          	lui	ra,0xcc92a
80002594:	0000100f          	fence.i
80002598:	0ff0000f          	fence
8000259c:	00cea633          	slt	a2,t4,a2
800025a0:	0000100f          	fence.i
800025a4:	00406333          	or	t1,zero,tp
800025a8:	000706b3          	add	a3,a4,zero
800025ac:	40ed8c33          	sub	s8,s11,a4
800025b0:	cc92a0b7          	lui	ra,0xcc92a
800025b4:	1d860217          	auipc	tp,0x1d860
800025b8:	40ed8c33          	sub	s8,s11,a4
800025bc:	023b4463          	blt	s6,gp,800025e4 <main_j1+0x20f4>
800025c0:	038d1263          	bne	s10,s8,800025e4 <main_j1+0x20f4>
800025c4:	1d860217          	auipc	tp,0x1d860
800025c8:	5dff4793          	xori	a5,t5,1503
800025cc:	000706b3          	add	a3,a4,zero
800025d0:	1d860217          	auipc	tp,0x1d860
800025d4:	409a5633          	sra	a2,s4,s1
800025d8:	5dff4793          	xori	a5,t5,1503
800025dc:	40ed8c33          	sub	s8,s11,a4
800025e0:	409a5633          	sra	a2,s4,s1
800025e4:	006410b3          	sll	ra,s0,t1
800025e8:	bce1a693          	slti	a3,gp,-1074
800025ec:	0ff0000f          	fence
800025f0:	01bef5b3          	and	a1,t4,s11
800025f4:	01457663          	bgeu	a0,s4,80002600 <main_j1+0x2110>
800025f8:	01bef5b3          	and	a1,t4,s11
800025fc:	01c4dbb3          	srl	s7,s1,t3
80002600:	000706b3          	add	a3,a4,zero
80002604:	4cb37c13          	andi	s8,t1,1227
80002608:	05d2d063          	bge	t0,t4,80002648 <main_j1+0x2158>
8000260c:	0ff0000f          	fence
80002610:	03457063          	bgeu	a0,s4,80002630 <main_j1+0x2140>
80002614:	bce1a693          	slti	a3,gp,-1074
80002618:	058d1063          	bne	s10,s8,80002658 <main_j1+0x2168>
8000261c:	0000100f          	fence.i
80002620:	006410b3          	sll	ra,s0,t1
80002624:	038d1e63          	bne	s10,s8,80002660 <main_j1+0x2170>
80002628:	20648893          	addi	a7,s1,518
8000262c:	00cea633          	slt	a2,t4,a2
80002630:	00406333          	or	t1,zero,tp
80002634:	006410b3          	sll	ra,s0,t1
80002638:	409a5633          	sra	a2,s4,s1
8000263c:	4cb37c13          	andi	s8,t1,1227
80002640:	409a5633          	sra	a2,s4,s1
80002644:	01457e63          	bgeu	a0,s4,80002660 <main_j1+0x2170>
80002648:	0033c233          	xor	tp,t2,gp
8000264c:	cc92a0b7          	lui	ra,0xcc92a
80002650:	018d1e63          	bne	s10,s8,8000266c <main_j1+0x217c>
80002654:	5dff4793          	xori	a5,t5,1503
80002658:	409a5633          	sra	a2,s4,s1
8000265c:	015f1093          	slli	ra,t5,0x15
80002660:	03457663          	bgeu	a0,s4,8000268c <main_j1+0x219c>
80002664:	015ad993          	srli	s3,s5,0x15
80002668:	01a0e263          	bltu	ra,s10,8000266c <main_j1+0x217c>
8000266c:	fb4ee413          	ori	s0,t4,-76
80002670:	058d1663          	bne	s10,s8,800026bc <main_j1+0x21cc>
80002674:	1d860217          	auipc	tp,0x1d860
80002678:	bce1a693          	slti	a3,gp,-1074
8000267c:	40ed8c33          	sub	s8,s11,a4
80002680:	006410b3          	sll	ra,s0,t1
80002684:	003b4c63          	blt	s6,gp,8000269c <main_j1+0x21ac>
80002688:	00ee3233          	sltu	tp,t3,a4
8000268c:	006410b3          	sll	ra,s0,t1
80002690:	fb4ee413          	ori	s0,t4,-76
80002694:	01bef5b3          	and	a1,t4,s11
80002698:	015ad993          	srli	s3,s5,0x15
8000269c:	bce1a693          	slti	a3,gp,-1074
800026a0:	015ad993          	srli	s3,s5,0x15
800026a4:	b35a3893          	sltiu	a7,s4,-1227
800026a8:	006410b3          	sll	ra,s0,t1
800026ac:	01c4dbb3          	srl	s7,s1,t3
800026b0:	058d1063          	bne	s10,s8,800026f0 <main_j1+0x2200>
800026b4:	028c8e63          	beq	s9,s0,800026f0 <main_j1+0x2200>
800026b8:	015f1093          	slli	ra,t5,0x15
800026bc:	03a0e463          	bltu	ra,s10,800026e4 <main_j1+0x21f4>
800026c0:	006410b3          	sll	ra,s0,t1
800026c4:	01bef5b3          	and	a1,t4,s11
800026c8:	409a5633          	sra	a2,s4,s1
800026cc:	0ff0000f          	fence
800026d0:	01bef5b3          	and	a1,t4,s11
800026d4:	4cb37c13          	andi	s8,t1,1227
800026d8:	5dff4793          	xori	a5,t5,1503
800026dc:	4cb37c13          	andi	s8,t1,1227
800026e0:	0ff0000f          	fence
800026e4:	00000013          	nop
800026e8:	018d1a63          	bne	s10,s8,800026fc <main_j1+0x220c>
800026ec:	01c4dbb3          	srl	s7,s1,t3
800026f0:	03457c63          	bgeu	a0,s4,80002728 <main_j1+0x2238>
800026f4:	00000013          	nop
800026f8:	4111dd93          	srai	s11,gp,0x11
800026fc:	01a0e463          	bltu	ra,s10,80002704 <main_j1+0x2214>
80002700:	01bef5b3          	and	a1,t4,s11
80002704:	4cb37c13          	andi	s8,t1,1227
80002708:	20648893          	addi	a7,s1,518
8000270c:	b35a3893          	sltiu	a7,s4,-1227
80002710:	0ff0000f          	fence
80002714:	006410b3          	sll	ra,s0,t1
80002718:	01c4dbb3          	srl	s7,s1,t3
8000271c:	5dff4793          	xori	a5,t5,1503
80002720:	01457663          	bgeu	a0,s4,8000272c <main_j1+0x223c>
80002724:	0033c233          	xor	tp,t2,gp
80002728:	00406333          	or	t1,zero,tp
8000272c:	0ff0000f          	fence
80002730:	0033c233          	xor	tp,t2,gp
80002734:	05457863          	bgeu	a0,s4,80002784 <main_j1+0x2294>
80002738:	01c4dbb3          	srl	s7,s1,t3
8000273c:	01457263          	bgeu	a0,s4,80002740 <main_j1+0x2250>
80002740:	4cb37c13          	andi	s8,t1,1227
80002744:	03457263          	bgeu	a0,s4,80002768 <main_j1+0x2278>
80002748:	fb4ee413          	ori	s0,t4,-76
8000274c:	01c4dbb3          	srl	s7,s1,t3
80002750:	1d860217          	auipc	tp,0x1d860
80002754:	409a5633          	sra	a2,s4,s1
80002758:	bce1a693          	slti	a3,gp,-1074
8000275c:	cc92a0b7          	lui	ra,0xcc92a
80002760:	fb4ee413          	ori	s0,t4,-76
80002764:	018d1663          	bne	s10,s8,80002770 <main_j1+0x2280>
80002768:	20648893          	addi	a7,s1,518
8000276c:	1d860217          	auipc	tp,0x1d860
80002770:	bce1a693          	slti	a3,gp,-1074
80002774:	4111dd93          	srai	s11,gp,0x11
80002778:	01c4dbb3          	srl	s7,s1,t3
8000277c:	00cea633          	slt	a2,t4,a2
80002780:	b35a3893          	sltiu	a7,s4,-1227
80002784:	4cb37c13          	andi	s8,t1,1227
80002788:	bce1a693          	slti	a3,gp,-1074
8000278c:	bce1a693          	slti	a3,gp,-1074
80002790:	00406333          	or	t1,zero,tp
80002794:	409a5633          	sra	a2,s4,s1
80002798:	409a5633          	sra	a2,s4,s1
8000279c:	015ad993          	srli	s3,s5,0x15
800027a0:	03a0ec63          	bltu	ra,s10,800027d8 <main_j1+0x22e8>
800027a4:	003b4663          	blt	s6,gp,800027b0 <main_j1+0x22c0>
800027a8:	0ff0000f          	fence
800027ac:	015ad993          	srli	s3,s5,0x15
800027b0:	0000100f          	fence.i
800027b4:	20648893          	addi	a7,s1,518
800027b8:	01c4dbb3          	srl	s7,s1,t3
800027bc:	015f1093          	slli	ra,t5,0x15
800027c0:	01bef5b3          	and	a1,t4,s11
800027c4:	00406333          	or	t1,zero,tp
800027c8:	b35a3893          	sltiu	a7,s4,-1227
800027cc:	fb4ee413          	ori	s0,t4,-76
800027d0:	1d860217          	auipc	tp,0x1d860
800027d4:	cc92a0b7          	lui	ra,0xcc92a
800027d8:	01d2de63          	bge	t0,t4,800027f4 <main_j1+0x2304>
800027dc:	043b4663          	blt	s6,gp,80002828 <main_j1+0x2338>
800027e0:	01a0e663          	bltu	ra,s10,800027ec <main_j1+0x22fc>
800027e4:	0000100f          	fence.i
800027e8:	b35a3893          	sltiu	a7,s4,-1227
800027ec:	015ad993          	srli	s3,s5,0x15
800027f0:	fb4ee413          	ori	s0,t4,-76
800027f4:	fb4ee413          	ori	s0,t4,-76
800027f8:	00406333          	or	t1,zero,tp
800027fc:	bce1a693          	slti	a3,gp,-1074
80002800:	00000013          	nop
80002804:	05d2d263          	bge	t0,t4,80002848 <main_j1+0x2358>
80002808:	00000013          	nop
8000280c:	00cea633          	slt	a2,t4,a2
80002810:	0000100f          	fence.i
80002814:	bce1a693          	slti	a3,gp,-1074
80002818:	01c4dbb3          	srl	s7,s1,t3
8000281c:	008c8e63          	beq	s9,s0,80002838 <main_j1+0x2348>
80002820:	4111dd93          	srai	s11,gp,0x11
80002824:	03d2de63          	bge	t0,t4,80002860 <main_j1+0x2370>
80002828:	0033c233          	xor	tp,t2,gp
8000282c:	40ed8c33          	sub	s8,s11,a4
80002830:	00406333          	or	t1,zero,tp
80002834:	008c8463          	beq	s9,s0,8000283c <main_j1+0x234c>
80002838:	1d860217          	auipc	tp,0x1d860
8000283c:	000706b3          	add	a3,a4,zero
80002840:	000706b3          	add	a3,a4,zero
80002844:	003b4263          	blt	s6,gp,80002848 <main_j1+0x2358>
80002848:	038d1463          	bne	s10,s8,80002870 <main_j1+0x2380>
8000284c:	023b4663          	blt	s6,gp,80002878 <main_j1+0x2388>
80002850:	006410b3          	sll	ra,s0,t1
80002854:	00cea633          	slt	a2,t4,a2
80002858:	4111dd93          	srai	s11,gp,0x11
8000285c:	1d860217          	auipc	tp,0x1d860
80002860:	05d2d463          	bge	t0,t4,800028a8 <main_j1+0x23b8>
80002864:	006410b3          	sll	ra,s0,t1
80002868:	000706b3          	add	a3,a4,zero
8000286c:	000706b3          	add	a3,a4,zero
80002870:	03457463          	bgeu	a0,s4,80002898 <main_j1+0x23a8>
80002874:	bce1a693          	slti	a3,gp,-1074
80002878:	fb4ee413          	ori	s0,t4,-76
8000287c:	05457663          	bgeu	a0,s4,800028c8 <main_j1+0x23d8>
80002880:	01a0e663          	bltu	ra,s10,8000288c <main_j1+0x239c>
80002884:	038d1663          	bne	s10,s8,800028b0 <main_j1+0x23c0>
80002888:	00406333          	or	t1,zero,tp
8000288c:	015ad993          	srli	s3,s5,0x15
80002890:	00cea633          	slt	a2,t4,a2
80002894:	cc92a0b7          	lui	ra,0xcc92a
80002898:	5dff4793          	xori	a5,t5,1503
8000289c:	00ee3233          	sltu	tp,t3,a4
800028a0:	0033c233          	xor	tp,t2,gp
800028a4:	018d1263          	bne	s10,s8,800028a8 <main_j1+0x23b8>
800028a8:	0ff0000f          	fence
800028ac:	0033c233          	xor	tp,t2,gp
800028b0:	05d2d063          	bge	t0,t4,800028f0 <main_j1+0x2400>
800028b4:	00000013          	nop
800028b8:	409a5633          	sra	a2,s4,s1
800028bc:	05a0e063          	bltu	ra,s10,800028fc <main_j1+0x240c>
800028c0:	4cb37c13          	andi	s8,t1,1227
800028c4:	0000100f          	fence.i
800028c8:	b35a3893          	sltiu	a7,s4,-1227
800028cc:	00cea633          	slt	a2,t4,a2
800028d0:	b35a3893          	sltiu	a7,s4,-1227
800028d4:	40ed8c33          	sub	s8,s11,a4
800028d8:	0000100f          	fence.i
800028dc:	00cea633          	slt	a2,t4,a2
800028e0:	0033c233          	xor	tp,t2,gp
800028e4:	0033c233          	xor	tp,t2,gp
800028e8:	b35a3893          	sltiu	a7,s4,-1227
800028ec:	409a5633          	sra	a2,s4,s1
800028f0:	000706b3          	add	a3,a4,zero
800028f4:	05d2d063          	bge	t0,t4,80002934 <main_j1+0x2444>
800028f8:	20648893          	addi	a7,s1,518
800028fc:	fb4ee413          	ori	s0,t4,-76
80002900:	003b4e63          	blt	s6,gp,8000291c <main_j1+0x242c>
80002904:	0ff0000f          	fence
80002908:	01c4dbb3          	srl	s7,s1,t3
8000290c:	4cb37c13          	andi	s8,t1,1227
80002910:	4cb37c13          	andi	s8,t1,1227
80002914:	003b4c63          	blt	s6,gp,8000292c <main_j1+0x243c>
80002918:	05457863          	bgeu	a0,s4,80002968 <main_j1+0x2478>
8000291c:	4cb37c13          	andi	s8,t1,1227
80002920:	4cb37c13          	andi	s8,t1,1227
80002924:	0ff0000f          	fence
80002928:	000706b3          	add	a3,a4,zero
8000292c:	00000013          	nop
80002930:	00cea633          	slt	a2,t4,a2
80002934:	cc92a0b7          	lui	ra,0xcc92a
80002938:	00ee3233          	sltu	tp,t3,a4
8000293c:	1d860217          	auipc	tp,0x1d860
80002940:	1d860217          	auipc	tp,0x1d860
80002944:	409a5633          	sra	a2,s4,s1
80002948:	01c4dbb3          	srl	s7,s1,t3
8000294c:	05457263          	bgeu	a0,s4,80002990 <main_j1+0x24a0>
80002950:	0033c233          	xor	tp,t2,gp
80002954:	03457063          	bgeu	a0,s4,80002974 <main_j1+0x2484>
80002958:	01a0ea63          	bltu	ra,s10,8000296c <main_j1+0x247c>
8000295c:	cc92a0b7          	lui	ra,0xcc92a
80002960:	03a0ee63          	bltu	ra,s10,8000299c <main_j1+0x24ac>
80002964:	00406333          	or	t1,zero,tp
80002968:	fb4ee413          	ori	s0,t4,-76
8000296c:	4cb37c13          	andi	s8,t1,1227
80002970:	40ed8c33          	sub	s8,s11,a4
80002974:	05457063          	bgeu	a0,s4,800029b4 <main_j1+0x24c4>
80002978:	409a5633          	sra	a2,s4,s1
8000297c:	0000100f          	fence.i
80002980:	00000013          	nop
80002984:	05a0e863          	bltu	ra,s10,800029d4 <main_j1+0x24e4>
80002988:	01d2d663          	bge	t0,t4,80002994 <main_j1+0x24a4>
8000298c:	b35a3893          	sltiu	a7,s4,-1227
80002990:	409a5633          	sra	a2,s4,s1
80002994:	00406333          	or	t1,zero,tp
80002998:	0033c233          	xor	tp,t2,gp
8000299c:	015f1093          	slli	ra,t5,0x15
800029a0:	015ad993          	srli	s3,s5,0x15
800029a4:	b35a3893          	sltiu	a7,s4,-1227
800029a8:	01457c63          	bgeu	a0,s4,800029c0 <main_j1+0x24d0>
800029ac:	00cea633          	slt	a2,t4,a2
800029b0:	00406333          	or	t1,zero,tp
800029b4:	5dff4793          	xori	a5,t5,1503
800029b8:	05a0e263          	bltu	ra,s10,800029fc <main_j1+0x250c>
800029bc:	043b4063          	blt	s6,gp,800029fc <main_j1+0x250c>
800029c0:	00cea633          	slt	a2,t4,a2
800029c4:	01c4dbb3          	srl	s7,s1,t3
800029c8:	0033c233          	xor	tp,t2,gp
800029cc:	00406333          	or	t1,zero,tp
800029d0:	006410b3          	sll	ra,s0,t1
800029d4:	058d1463          	bne	s10,s8,80002a1c <main_j1+0x252c>
800029d8:	00406333          	or	t1,zero,tp
800029dc:	003b4a63          	blt	s6,gp,800029f0 <main_j1+0x2500>
800029e0:	00ee3233          	sltu	tp,t3,a4
800029e4:	00cea633          	slt	a2,t4,a2
800029e8:	bce1a693          	slti	a3,gp,-1074
800029ec:	4cb37c13          	andi	s8,t1,1227
800029f0:	5dff4793          	xori	a5,t5,1503
800029f4:	01c4dbb3          	srl	s7,s1,t3
800029f8:	00ee3233          	sltu	tp,t3,a4
800029fc:	05457063          	bgeu	a0,s4,80002a3c <main_j1+0x254c>
80002a00:	0033c233          	xor	tp,t2,gp
80002a04:	4111dd93          	srai	s11,gp,0x11
80002a08:	1d860217          	auipc	tp,0x1d860
80002a0c:	0000100f          	fence.i
80002a10:	01c4dbb3          	srl	s7,s1,t3
80002a14:	20648893          	addi	a7,s1,518
80002a18:	4111dd93          	srai	s11,gp,0x11
80002a1c:	0ff0000f          	fence
80002a20:	03457063          	bgeu	a0,s4,80002a40 <main_j1+0x2550>
80002a24:	000706b3          	add	a3,a4,zero
80002a28:	0000100f          	fence.i
80002a2c:	409a5633          	sra	a2,s4,s1
80002a30:	409a5633          	sra	a2,s4,s1
80002a34:	0000100f          	fence.i
80002a38:	4cb37c13          	andi	s8,t1,1227
80002a3c:	0000100f          	fence.i
80002a40:	fb4ee413          	ori	s0,t4,-76
80002a44:	01457663          	bgeu	a0,s4,80002a50 <main_j1+0x2560>
80002a48:	01bef5b3          	and	a1,t4,s11
80002a4c:	003b4263          	blt	s6,gp,80002a50 <main_j1+0x2560>
80002a50:	03a0ec63          	bltu	ra,s10,80002a88 <main_j1+0x2598>
80002a54:	4cb37c13          	andi	s8,t1,1227
80002a58:	00cea633          	slt	a2,t4,a2
80002a5c:	cc92a0b7          	lui	ra,0xcc92a
80002a60:	00000013          	nop
80002a64:	00406333          	or	t1,zero,tp
80002a68:	015f1093          	slli	ra,t5,0x15
80002a6c:	00ee3233          	sltu	tp,t3,a4
80002a70:	409a5633          	sra	a2,s4,s1
80002a74:	03a0e463          	bltu	ra,s10,80002a9c <main_j1+0x25ac>
80002a78:	000706b3          	add	a3,a4,zero
80002a7c:	409a5633          	sra	a2,s4,s1
80002a80:	01457e63          	bgeu	a0,s4,80002a9c <main_j1+0x25ac>
80002a84:	1d860217          	auipc	tp,0x1d860
80002a88:	00cea633          	slt	a2,t4,a2
80002a8c:	01c4dbb3          	srl	s7,s1,t3
80002a90:	028c8e63          	beq	s9,s0,80002acc <main_j1+0x25dc>
80002a94:	015ad993          	srli	s3,s5,0x15
80002a98:	cc92a0b7          	lui	ra,0xcc92a
80002a9c:	01c4dbb3          	srl	s7,s1,t3
80002aa0:	00ee3233          	sltu	tp,t3,a4
80002aa4:	fb4ee413          	ori	s0,t4,-76
80002aa8:	015ad993          	srli	s3,s5,0x15
80002aac:	006410b3          	sll	ra,s0,t1
80002ab0:	03457663          	bgeu	a0,s4,80002adc <main_j1+0x25ec>
80002ab4:	4111dd93          	srai	s11,gp,0x11
80002ab8:	b35a3893          	sltiu	a7,s4,-1227
80002abc:	023b4463          	blt	s6,gp,80002ae4 <main_j1+0x25f4>
80002ac0:	00ee3233          	sltu	tp,t3,a4
80002ac4:	4111dd93          	srai	s11,gp,0x11
80002ac8:	00cea633          	slt	a2,t4,a2
80002acc:	cc92a0b7          	lui	ra,0xcc92a
80002ad0:	048c8263          	beq	s9,s0,80002b14 <main_j1+0x2624>
80002ad4:	4cb37c13          	andi	s8,t1,1227
80002ad8:	048c8663          	beq	s9,s0,80002b24 <main_j1+0x2634>
80002adc:	015f1093          	slli	ra,t5,0x15
80002ae0:	01bef5b3          	and	a1,t4,s11
80002ae4:	20648893          	addi	a7,s1,518
80002ae8:	05d2d663          	bge	t0,t4,80002b34 <main_j1+0x2644>
80002aec:	03457263          	bgeu	a0,s4,80002b10 <main_j1+0x2620>
80002af0:	409a5633          	sra	a2,s4,s1
80002af4:	006410b3          	sll	ra,s0,t1
80002af8:	1d860217          	auipc	tp,0x1d860
80002afc:	cc92a0b7          	lui	ra,0xcc92a
80002b00:	20648893          	addi	a7,s1,518
80002b04:	018d1e63          	bne	s10,s8,80002b20 <main_j1+0x2630>
80002b08:	00ee3233          	sltu	tp,t3,a4
80002b0c:	0ff0000f          	fence
80002b10:	01bef5b3          	and	a1,t4,s11
80002b14:	0ff0000f          	fence
80002b18:	015f1093          	slli	ra,t5,0x15
80002b1c:	01a0e663          	bltu	ra,s10,80002b28 <main_j1+0x2638>
80002b20:	015f1093          	slli	ra,t5,0x15
80002b24:	bce1a693          	slti	a3,gp,-1074
80002b28:	b35a3893          	sltiu	a7,s4,-1227
80002b2c:	00406333          	or	t1,zero,tp
80002b30:	4cb37c13          	andi	s8,t1,1227
80002b34:	023b4e63          	blt	s6,gp,80002b70 <main_j1+0x2680>
80002b38:	008c8463          	beq	s9,s0,80002b40 <main_j1+0x2650>
80002b3c:	0000100f          	fence.i
80002b40:	b35a3893          	sltiu	a7,s4,-1227
80002b44:	00cea633          	slt	a2,t4,a2
80002b48:	018d1e63          	bne	s10,s8,80002b64 <main_j1+0x2674>
80002b4c:	4111dd93          	srai	s11,gp,0x11
80002b50:	4cb37c13          	andi	s8,t1,1227
80002b54:	bce1a693          	slti	a3,gp,-1074
80002b58:	01a0e263          	bltu	ra,s10,80002b5c <main_j1+0x266c>
80002b5c:	0ff0000f          	fence
80002b60:	015ad993          	srli	s3,s5,0x15
80002b64:	b35a3893          	sltiu	a7,s4,-1227
80002b68:	000706b3          	add	a3,a4,zero
80002b6c:	015f1093          	slli	ra,t5,0x15
80002b70:	00406333          	or	t1,zero,tp
80002b74:	03d2d663          	bge	t0,t4,80002ba0 <main_j1+0x26b0>
80002b78:	008c8663          	beq	s9,s0,80002b84 <main_j1+0x2694>
80002b7c:	015ad993          	srli	s3,s5,0x15
80002b80:	fb4ee413          	ori	s0,t4,-76
80002b84:	01d2d263          	bge	t0,t4,80002b88 <main_j1+0x2698>
80002b88:	0033c233          	xor	tp,t2,gp
80002b8c:	03d2d463          	bge	t0,t4,80002bb4 <main_j1+0x26c4>
80002b90:	cc92a0b7          	lui	ra,0xcc92a
80002b94:	01c4dbb3          	srl	s7,s1,t3
80002b98:	4cb37c13          	andi	s8,t1,1227
80002b9c:	000706b3          	add	a3,a4,zero
80002ba0:	20648893          	addi	a7,s1,518
80002ba4:	5dff4793          	xori	a5,t5,1503
80002ba8:	fb4ee413          	ori	s0,t4,-76
80002bac:	20648893          	addi	a7,s1,518
80002bb0:	028c8463          	beq	s9,s0,80002bd8 <main_j1+0x26e8>
80002bb4:	000706b3          	add	a3,a4,zero
80002bb8:	000706b3          	add	a3,a4,zero
80002bbc:	023b4e63          	blt	s6,gp,80002bf8 <main_j1+0x2708>
80002bc0:	4cb37c13          	andi	s8,t1,1227
80002bc4:	01c4dbb3          	srl	s7,s1,t3
80002bc8:	0ff0000f          	fence
80002bcc:	006410b3          	sll	ra,s0,t1
80002bd0:	015f1093          	slli	ra,t5,0x15
80002bd4:	40ed8c33          	sub	s8,s11,a4
80002bd8:	0033c233          	xor	tp,t2,gp
80002bdc:	015ad993          	srli	s3,s5,0x15
80002be0:	00000013          	nop
80002be4:	00ee3233          	sltu	tp,t3,a4
80002be8:	40ed8c33          	sub	s8,s11,a4
80002bec:	20648893          	addi	a7,s1,518
80002bf0:	cc92a0b7          	lui	ra,0xcc92a
80002bf4:	018d1c63          	bne	s10,s8,80002c0c <main_j1+0x271c>
80002bf8:	5dff4793          	xori	a5,t5,1503
80002bfc:	20648893          	addi	a7,s1,518
80002c00:	015ad993          	srli	s3,s5,0x15
80002c04:	20648893          	addi	a7,s1,518
80002c08:	00406333          	or	t1,zero,tp
80002c0c:	b35a3893          	sltiu	a7,s4,-1227
80002c10:	0033c233          	xor	tp,t2,gp
80002c14:	015f1093          	slli	ra,t5,0x15
80002c18:	00000013          	nop
80002c1c:	01d2de63          	bge	t0,t4,80002c38 <main_j1+0x2748>
80002c20:	015ad993          	srli	s3,s5,0x15
80002c24:	b35a3893          	sltiu	a7,s4,-1227
80002c28:	00ee3233          	sltu	tp,t3,a4
80002c2c:	028c8063          	beq	s9,s0,80002c4c <main_j1+0x275c>
80002c30:	bce1a693          	slti	a3,gp,-1074
80002c34:	fb4ee413          	ori	s0,t4,-76
80002c38:	20648893          	addi	a7,s1,518
80002c3c:	409a5633          	sra	a2,s4,s1
80002c40:	043b4263          	blt	s6,gp,80002c84 <main_j1+0x2794>
80002c44:	00ee3233          	sltu	tp,t3,a4
80002c48:	00ee3233          	sltu	tp,t3,a4
80002c4c:	00406333          	or	t1,zero,tp
80002c50:	1d860217          	auipc	tp,0x1d860
80002c54:	4111dd93          	srai	s11,gp,0x11
80002c58:	00cea633          	slt	a2,t4,a2
80002c5c:	03a0e663          	bltu	ra,s10,80002c88 <main_j1+0x2798>
80002c60:	01d2d263          	bge	t0,t4,80002c64 <main_j1+0x2774>
80002c64:	05d2d063          	bge	t0,t4,80002ca4 <main_j1+0x27b4>
80002c68:	01bef5b3          	and	a1,t4,s11
80002c6c:	20648893          	addi	a7,s1,518
80002c70:	5dff4793          	xori	a5,t5,1503
80002c74:	01bef5b3          	and	a1,t4,s11
80002c78:	00ee3233          	sltu	tp,t3,a4
80002c7c:	058d1063          	bne	s10,s8,80002cbc <main_j1+0x27cc>
80002c80:	03457c63          	bgeu	a0,s4,80002cb8 <main_j1+0x27c8>
80002c84:	058d1863          	bne	s10,s8,80002cd4 <main_j1+0x27e4>
80002c88:	000706b3          	add	a3,a4,zero
80002c8c:	015ad993          	srli	s3,s5,0x15
80002c90:	05a0e063          	bltu	ra,s10,80002cd0 <main_j1+0x27e0>
80002c94:	4111dd93          	srai	s11,gp,0x11
80002c98:	b35a3893          	sltiu	a7,s4,-1227
80002c9c:	40ed8c33          	sub	s8,s11,a4
80002ca0:	00406333          	or	t1,zero,tp
80002ca4:	fb4ee413          	ori	s0,t4,-76
80002ca8:	00ee3233          	sltu	tp,t3,a4
80002cac:	028c8263          	beq	s9,s0,80002cd0 <main_j1+0x27e0>
80002cb0:	000706b3          	add	a3,a4,zero
80002cb4:	006410b3          	sll	ra,s0,t1
80002cb8:	01457663          	bgeu	a0,s4,80002cc4 <main_j1+0x27d4>
80002cbc:	05457263          	bgeu	a0,s4,80002d00 <main_j1+0x2810>
80002cc0:	01457663          	bgeu	a0,s4,80002ccc <main_j1+0x27dc>
80002cc4:	015ad993          	srli	s3,s5,0x15
80002cc8:	00000013          	nop
80002ccc:	bce1a693          	slti	a3,gp,-1074
80002cd0:	003b4463          	blt	s6,gp,80002cd8 <main_j1+0x27e8>
80002cd4:	1d860217          	auipc	tp,0x1d860
80002cd8:	00406333          	or	t1,zero,tp
80002cdc:	5dff4793          	xori	a5,t5,1503
80002ce0:	bce1a693          	slti	a3,gp,-1074
80002ce4:	00406333          	or	t1,zero,tp
80002ce8:	00ee3233          	sltu	tp,t3,a4
80002cec:	01a0ee63          	bltu	ra,s10,80002d08 <main_j1+0x2818>
80002cf0:	008c8663          	beq	s9,s0,80002cfc <main_j1+0x280c>
80002cf4:	40ed8c33          	sub	s8,s11,a4
80002cf8:	0ff0000f          	fence
80002cfc:	01c4dbb3          	srl	s7,s1,t3
80002d00:	00cea633          	slt	a2,t4,a2
80002d04:	5dff4793          	xori	a5,t5,1503
80002d08:	bce1a693          	slti	a3,gp,-1074
80002d0c:	00ee3233          	sltu	tp,t3,a4
80002d10:	1d860217          	auipc	tp,0x1d860
80002d14:	00406333          	or	t1,zero,tp
80002d18:	00cea633          	slt	a2,t4,a2
80002d1c:	015ad993          	srli	s3,s5,0x15
80002d20:	01c4dbb3          	srl	s7,s1,t3
80002d24:	5dff4793          	xori	a5,t5,1503
80002d28:	01bef5b3          	and	a1,t4,s11
80002d2c:	05d2d663          	bge	t0,t4,80002d78 <main_j1+0x2888>
80002d30:	409a5633          	sra	a2,s4,s1
80002d34:	006410b3          	sll	ra,s0,t1
80002d38:	40ed8c33          	sub	s8,s11,a4
80002d3c:	00406333          	or	t1,zero,tp
80002d40:	409a5633          	sra	a2,s4,s1
80002d44:	fb4ee413          	ori	s0,t4,-76
80002d48:	fb4ee413          	ori	s0,t4,-76
80002d4c:	000706b3          	add	a3,a4,zero
80002d50:	00406333          	or	t1,zero,tp
80002d54:	015f1093          	slli	ra,t5,0x15
80002d58:	000706b3          	add	a3,a4,zero
80002d5c:	cc92a0b7          	lui	ra,0xcc92a
80002d60:	fb4ee413          	ori	s0,t4,-76
80002d64:	03457e63          	bgeu	a0,s4,80002da0 <main_j1+0x28b0>
80002d68:	00000013          	nop
80002d6c:	006410b3          	sll	ra,s0,t1
80002d70:	03a0e663          	bltu	ra,s10,80002d9c <main_j1+0x28ac>
80002d74:	40ed8c33          	sub	s8,s11,a4
80002d78:	048c8663          	beq	s9,s0,80002dc4 <main_j1+0x28d4>
80002d7c:	cc92a0b7          	lui	ra,0xcc92a
80002d80:	0033c233          	xor	tp,t2,gp
80002d84:	01c4dbb3          	srl	s7,s1,t3
80002d88:	015f1093          	slli	ra,t5,0x15
80002d8c:	0033c233          	xor	tp,t2,gp
80002d90:	015f1093          	slli	ra,t5,0x15
80002d94:	00000013          	nop
80002d98:	01c4dbb3          	srl	s7,s1,t3
80002d9c:	003b4e63          	blt	s6,gp,80002db8 <main_j1+0x28c8>
80002da0:	05a0e463          	bltu	ra,s10,80002de8 <main_j1+0x28f8>
80002da4:	01bef5b3          	and	a1,t4,s11
80002da8:	01a0ea63          	bltu	ra,s10,80002dbc <main_j1+0x28cc>
80002dac:	01bef5b3          	and	a1,t4,s11
80002db0:	0000100f          	fence.i
80002db4:	fb4ee413          	ori	s0,t4,-76
80002db8:	01d2d663          	bge	t0,t4,80002dc4 <main_j1+0x28d4>
80002dbc:	01c4dbb3          	srl	s7,s1,t3
80002dc0:	015f1093          	slli	ra,t5,0x15
80002dc4:	000706b3          	add	a3,a4,zero
80002dc8:	0ff0000f          	fence
80002dcc:	006410b3          	sll	ra,s0,t1
80002dd0:	058d1863          	bne	s10,s8,80002e20 <main_j1+0x2930>
80002dd4:	000706b3          	add	a3,a4,zero
80002dd8:	006410b3          	sll	ra,s0,t1
80002ddc:	fb4ee413          	ori	s0,t4,-76
80002de0:	b35a3893          	sltiu	a7,s4,-1227
80002de4:	01d2de63          	bge	t0,t4,80002e00 <main_j1+0x2910>
80002de8:	5dff4793          	xori	a5,t5,1503
80002dec:	008c8663          	beq	s9,s0,80002df8 <main_j1+0x2908>
80002df0:	05a0e063          	bltu	ra,s10,80002e30 <main_j1+0x2940>
80002df4:	048c8263          	beq	s9,s0,80002e38 <main_j1+0x2948>
80002df8:	4111dd93          	srai	s11,gp,0x11
80002dfc:	00cea633          	slt	a2,t4,a2
80002e00:	000706b3          	add	a3,a4,zero
80002e04:	5dff4793          	xori	a5,t5,1503
80002e08:	4111dd93          	srai	s11,gp,0x11
80002e0c:	0033c233          	xor	tp,t2,gp
80002e10:	0ff0000f          	fence
80002e14:	40ed8c33          	sub	s8,s11,a4
80002e18:	043b4263          	blt	s6,gp,80002e5c <main_j1+0x296c>
80002e1c:	5dff4793          	xori	a5,t5,1503
80002e20:	b35a3893          	sltiu	a7,s4,-1227
80002e24:	20648893          	addi	a7,s1,518
80002e28:	03a0e463          	bltu	ra,s10,80002e50 <main_j1+0x2960>
80002e2c:	cc92a0b7          	lui	ra,0xcc92a
80002e30:	0ff0000f          	fence
80002e34:	01bef5b3          	and	a1,t4,s11
80002e38:	003b4663          	blt	s6,gp,80002e44 <main_j1+0x2954>
80002e3c:	000706b3          	add	a3,a4,zero
80002e40:	4cb37c13          	andi	s8,t1,1227
80002e44:	40ed8c33          	sub	s8,s11,a4
80002e48:	bce1a693          	slti	a3,gp,-1074
80002e4c:	01a0ee63          	bltu	ra,s10,80002e68 <main_j1+0x2978>
80002e50:	0ff0000f          	fence
80002e54:	023b4e63          	blt	s6,gp,80002e90 <main_j1+0x29a0>
80002e58:	4cb37c13          	andi	s8,t1,1227
80002e5c:	00406333          	or	t1,zero,tp
80002e60:	05d2d463          	bge	t0,t4,80002ea8 <main_j1+0x29b8>
80002e64:	058d1663          	bne	s10,s8,80002eb0 <main_j1+0x29c0>
80002e68:	1d860217          	auipc	tp,0x1d860
80002e6c:	000706b3          	add	a3,a4,zero
80002e70:	006410b3          	sll	ra,s0,t1
80002e74:	015ad993          	srli	s3,s5,0x15
80002e78:	03a0e663          	bltu	ra,s10,80002ea4 <main_j1+0x29b4>
80002e7c:	0000100f          	fence.i
80002e80:	409a5633          	sra	a2,s4,s1
80002e84:	40ed8c33          	sub	s8,s11,a4
80002e88:	03a0ee63          	bltu	ra,s10,80002ec4 <main_j1+0x29d4>
80002e8c:	fb4ee413          	ori	s0,t4,-76
80002e90:	015f1093          	slli	ra,t5,0x15
80002e94:	fb4ee413          	ori	s0,t4,-76
80002e98:	4cb37c13          	andi	s8,t1,1227
80002e9c:	00000013          	nop
80002ea0:	000706b3          	add	a3,a4,zero
80002ea4:	00406333          	or	t1,zero,tp
80002ea8:	5dff4793          	xori	a5,t5,1503
80002eac:	058d1663          	bne	s10,s8,80002ef8 <main_j1+0x2a08>
80002eb0:	0ff0000f          	fence
80002eb4:	40ed8c33          	sub	s8,s11,a4
80002eb8:	015ad993          	srli	s3,s5,0x15
80002ebc:	4111dd93          	srai	s11,gp,0x11
80002ec0:	03a0e263          	bltu	ra,s10,80002ee4 <main_j1+0x29f4>
80002ec4:	0033c233          	xor	tp,t2,gp
80002ec8:	015f1093          	slli	ra,t5,0x15
80002ecc:	015ad993          	srli	s3,s5,0x15
80002ed0:	1d860217          	auipc	tp,0x1d860
80002ed4:	bce1a693          	slti	a3,gp,-1074
80002ed8:	00ee3233          	sltu	tp,t3,a4
80002edc:	0033c233          	xor	tp,t2,gp
80002ee0:	023b4063          	blt	s6,gp,80002f00 <main_j1+0x2a10>
80002ee4:	003b4e63          	blt	s6,gp,80002f00 <main_j1+0x2a10>
80002ee8:	023b4463          	blt	s6,gp,80002f10 <main_j1+0x2a20>
80002eec:	000706b3          	add	a3,a4,zero
80002ef0:	018d1263          	bne	s10,s8,80002ef4 <main_j1+0x2a04>
80002ef4:	00ee3233          	sltu	tp,t3,a4
80002ef8:	4111dd93          	srai	s11,gp,0x11
80002efc:	01a0e663          	bltu	ra,s10,80002f08 <main_j1+0x2a18>
80002f00:	006410b3          	sll	ra,s0,t1
80002f04:	01c4dbb3          	srl	s7,s1,t3
80002f08:	01c4dbb3          	srl	s7,s1,t3
80002f0c:	043b4063          	blt	s6,gp,80002f4c <main_j1+0x2a5c>
80002f10:	0000100f          	fence.i
80002f14:	00cea633          	slt	a2,t4,a2
80002f18:	015f1093          	slli	ra,t5,0x15
80002f1c:	bce1a693          	slti	a3,gp,-1074
80002f20:	01c4dbb3          	srl	s7,s1,t3
80002f24:	5dff4793          	xori	a5,t5,1503
80002f28:	4111dd93          	srai	s11,gp,0x11
80002f2c:	fb4ee413          	ori	s0,t4,-76
80002f30:	0ff0000f          	fence
80002f34:	015ad993          	srli	s3,s5,0x15
80002f38:	043b4063          	blt	s6,gp,80002f78 <main_j1+0x2a88>
80002f3c:	409a5633          	sra	a2,s4,s1
80002f40:	bce1a693          	slti	a3,gp,-1074
80002f44:	0ff0000f          	fence
80002f48:	00cea633          	slt	a2,t4,a2
80002f4c:	4cb37c13          	andi	s8,t1,1227
80002f50:	4cb37c13          	andi	s8,t1,1227
80002f54:	01bef5b3          	and	a1,t4,s11
80002f58:	008c8463          	beq	s9,s0,80002f60 <main_j1+0x2a70>
80002f5c:	000706b3          	add	a3,a4,zero
80002f60:	01457c63          	bgeu	a0,s4,80002f78 <main_j1+0x2a88>
80002f64:	038d1c63          	bne	s10,s8,80002f9c <main_j1+0x2aac>
80002f68:	4cb37c13          	andi	s8,t1,1227
80002f6c:	0000100f          	fence.i
80002f70:	00000013          	nop
80002f74:	00cea633          	slt	a2,t4,a2
80002f78:	03a0e663          	bltu	ra,s10,80002fa4 <main_j1+0x2ab4>
80002f7c:	4cb37c13          	andi	s8,t1,1227
80002f80:	4cb37c13          	andi	s8,t1,1227
80002f84:	20648893          	addi	a7,s1,518
80002f88:	0000100f          	fence.i
80002f8c:	01bef5b3          	and	a1,t4,s11
80002f90:	40ed8c33          	sub	s8,s11,a4
80002f94:	fb4ee413          	ori	s0,t4,-76
80002f98:	00ee3233          	sltu	tp,t3,a4
80002f9c:	01bef5b3          	and	a1,t4,s11
80002fa0:	409a5633          	sra	a2,s4,s1
80002fa4:	018d1a63          	bne	s10,s8,80002fb8 <main_j1+0x2ac8>
80002fa8:	015f1093          	slli	ra,t5,0x15
80002fac:	018d1263          	bne	s10,s8,80002fb0 <main_j1+0x2ac0>
80002fb0:	015ad993          	srli	s3,s5,0x15
80002fb4:	018d1663          	bne	s10,s8,80002fc0 <main_j1+0x2ad0>
80002fb8:	01bef5b3          	and	a1,t4,s11
80002fbc:	b35a3893          	sltiu	a7,s4,-1227
80002fc0:	40ed8c33          	sub	s8,s11,a4
80002fc4:	1d860217          	auipc	tp,0x1d860
80002fc8:	cc92a0b7          	lui	ra,0xcc92a
80002fcc:	01a0e463          	bltu	ra,s10,80002fd4 <main_j1+0x2ae4>
80002fd0:	409a5633          	sra	a2,s4,s1
80002fd4:	cc92a0b7          	lui	ra,0xcc92a
80002fd8:	20648893          	addi	a7,s1,518
80002fdc:	b35a3893          	sltiu	a7,s4,-1227
80002fe0:	4111dd93          	srai	s11,gp,0x11
80002fe4:	015f1093          	slli	ra,t5,0x15
80002fe8:	015ad993          	srli	s3,s5,0x15
80002fec:	4cb37c13          	andi	s8,t1,1227
80002ff0:	20648893          	addi	a7,s1,518
80002ff4:	01bef5b3          	and	a1,t4,s11
80002ff8:	05457063          	bgeu	a0,s4,80003038 <main_j1+0x2b48>
80002ffc:	03457663          	bgeu	a0,s4,80003028 <main_j1+0x2b38>
80003000:	015f1093          	slli	ra,t5,0x15
80003004:	cc92a0b7          	lui	ra,0xcc92a
80003008:	cc92a0b7          	lui	ra,0xcc92a
8000300c:	4111dd93          	srai	s11,gp,0x11
80003010:	015f1093          	slli	ra,t5,0x15
80003014:	20648893          	addi	a7,s1,518
80003018:	409a5633          	sra	a2,s4,s1
8000301c:	00406333          	or	t1,zero,tp
80003020:	015ad993          	srli	s3,s5,0x15
80003024:	00ee3233          	sltu	tp,t3,a4
80003028:	5dff4793          	xori	a5,t5,1503
8000302c:	00ee3233          	sltu	tp,t3,a4
80003030:	0ff0000f          	fence
80003034:	0000100f          	fence.i
80003038:	028c8e63          	beq	s9,s0,80003074 <main_j1+0x2b84>
8000303c:	40ed8c33          	sub	s8,s11,a4
80003040:	03a0ee63          	bltu	ra,s10,8000307c <main_j1+0x2b8c>
80003044:	015ad993          	srli	s3,s5,0x15
80003048:	fb4ee413          	ori	s0,t4,-76
8000304c:	003b4e63          	blt	s6,gp,80003068 <main_j1+0x2b78>
80003050:	b35a3893          	sltiu	a7,s4,-1227
80003054:	fb4ee413          	ori	s0,t4,-76
80003058:	0033c233          	xor	tp,t2,gp
8000305c:	01bef5b3          	and	a1,t4,s11
80003060:	01c4dbb3          	srl	s7,s1,t3
80003064:	5dff4793          	xori	a5,t5,1503
80003068:	015ad993          	srli	s3,s5,0x15
8000306c:	00ee3233          	sltu	tp,t3,a4
80003070:	028c8263          	beq	s9,s0,80003094 <main_j1+0x2ba4>
80003074:	fb4ee413          	ori	s0,t4,-76
80003078:	00cea633          	slt	a2,t4,a2
8000307c:	015f1093          	slli	ra,t5,0x15
80003080:	00406333          	or	t1,zero,tp
80003084:	006410b3          	sll	ra,s0,t1
80003088:	03a0e463          	bltu	ra,s10,800030b0 <main_j1+0x2bc0>
8000308c:	000706b3          	add	a3,a4,zero
80003090:	01a0ee63          	bltu	ra,s10,800030ac <main_j1+0x2bbc>
80003094:	01bef5b3          	and	a1,t4,s11
80003098:	015f1093          	slli	ra,t5,0x15
8000309c:	006410b3          	sll	ra,s0,t1
800030a0:	40ed8c33          	sub	s8,s11,a4
800030a4:	01a0e663          	bltu	ra,s10,800030b0 <main_j1+0x2bc0>
800030a8:	b35a3893          	sltiu	a7,s4,-1227
800030ac:	4cb37c13          	andi	s8,t1,1227
800030b0:	015ad993          	srli	s3,s5,0x15
800030b4:	4111dd93          	srai	s11,gp,0x11
800030b8:	fb4ee413          	ori	s0,t4,-76
800030bc:	000706b3          	add	a3,a4,zero
800030c0:	015ad993          	srli	s3,s5,0x15
800030c4:	40ed8c33          	sub	s8,s11,a4
800030c8:	01bef5b3          	and	a1,t4,s11
800030cc:	00000013          	nop
800030d0:	00ee3233          	sltu	tp,t3,a4
800030d4:	043b4063          	blt	s6,gp,80003114 <main_j1+0x2c24>
800030d8:	b35a3893          	sltiu	a7,s4,-1227
800030dc:	20648893          	addi	a7,s1,518
800030e0:	043b4263          	blt	s6,gp,80003124 <main_j1+0x2c34>
800030e4:	03d2d663          	bge	t0,t4,80003110 <main_j1+0x2c20>
800030e8:	00406333          	or	t1,zero,tp
800030ec:	5dff4793          	xori	a5,t5,1503
800030f0:	5dff4793          	xori	a5,t5,1503
800030f4:	006410b3          	sll	ra,s0,t1
800030f8:	1d860217          	auipc	tp,0x1d860
800030fc:	00406333          	or	t1,zero,tp
80003100:	0ff0000f          	fence
80003104:	0ff0000f          	fence
80003108:	20648893          	addi	a7,s1,518
8000310c:	4111dd93          	srai	s11,gp,0x11
80003110:	20648893          	addi	a7,s1,518
80003114:	01d2de63          	bge	t0,t4,80003130 <main_j1+0x2c40>
80003118:	00cea633          	slt	a2,t4,a2
8000311c:	015f1093          	slli	ra,t5,0x15
80003120:	409a5633          	sra	a2,s4,s1
80003124:	01457663          	bgeu	a0,s4,80003130 <main_j1+0x2c40>
80003128:	409a5633          	sra	a2,s4,s1
8000312c:	409a5633          	sra	a2,s4,s1
80003130:	01c4dbb3          	srl	s7,s1,t3
80003134:	bce1a693          	slti	a3,gp,-1074
80003138:	05a0e463          	bltu	ra,s10,80003180 <main_j1+0x2c90>
8000313c:	b35a3893          	sltiu	a7,s4,-1227
80003140:	006410b3          	sll	ra,s0,t1
80003144:	00000013          	nop
80003148:	20648893          	addi	a7,s1,518
8000314c:	fb4ee413          	ori	s0,t4,-76
80003150:	008c8263          	beq	s9,s0,80003154 <main_j1+0x2c64>
80003154:	015ad993          	srli	s3,s5,0x15
80003158:	058d1663          	bne	s10,s8,800031a4 <main_j1+0x2cb4>
8000315c:	043b4263          	blt	s6,gp,800031a0 <main_j1+0x2cb0>
80003160:	0033c233          	xor	tp,t2,gp
80003164:	b35a3893          	sltiu	a7,s4,-1227
80003168:	03a0ec63          	bltu	ra,s10,800031a0 <main_j1+0x2cb0>
8000316c:	018d1c63          	bne	s10,s8,80003184 <main_j1+0x2c94>
80003170:	05457063          	bgeu	a0,s4,800031b0 <main_j1+0x2cc0>
80003174:	4cb37c13          	andi	s8,t1,1227
80003178:	00000013          	nop
8000317c:	00ee3233          	sltu	tp,t3,a4
80003180:	01c4dbb3          	srl	s7,s1,t3
80003184:	006410b3          	sll	ra,s0,t1
80003188:	015ad993          	srli	s3,s5,0x15
8000318c:	40ed8c33          	sub	s8,s11,a4
80003190:	fb4ee413          	ori	s0,t4,-76
80003194:	006410b3          	sll	ra,s0,t1
80003198:	20648893          	addi	a7,s1,518
8000319c:	0000100f          	fence.i
800031a0:	fb4ee413          	ori	s0,t4,-76
800031a4:	bce1a693          	slti	a3,gp,-1074
800031a8:	4111dd93          	srai	s11,gp,0x11
800031ac:	4111dd93          	srai	s11,gp,0x11
800031b0:	015ad993          	srli	s3,s5,0x15
800031b4:	018d1263          	bne	s10,s8,800031b8 <main_j1+0x2cc8>
800031b8:	015ad993          	srli	s3,s5,0x15
800031bc:	20648893          	addi	a7,s1,518
800031c0:	01c4dbb3          	srl	s7,s1,t3
800031c4:	01a0ea63          	bltu	ra,s10,800031d8 <main_j1+0x2ce8>
800031c8:	05457863          	bgeu	a0,s4,80003218 <main_j1+0x2d28>
800031cc:	006410b3          	sll	ra,s0,t1
800031d0:	409a5633          	sra	a2,s4,s1
800031d4:	023b4463          	blt	s6,gp,800031fc <main_j1+0x2d0c>
800031d8:	01bef5b3          	and	a1,t4,s11
800031dc:	000706b3          	add	a3,a4,zero
800031e0:	043b4663          	blt	s6,gp,8000322c <main_j1+0x2d3c>
800031e4:	0ff0000f          	fence
800031e8:	409a5633          	sra	a2,s4,s1
800031ec:	1d860217          	auipc	tp,0x1d860
800031f0:	038d1063          	bne	s10,s8,80003210 <main_j1+0x2d20>
800031f4:	00000013          	nop
800031f8:	01d2d663          	bge	t0,t4,80003204 <main_j1+0x2d14>
800031fc:	01bef5b3          	and	a1,t4,s11
80003200:	01457663          	bgeu	a0,s4,8000320c <main_j1+0x2d1c>
80003204:	b35a3893          	sltiu	a7,s4,-1227
80003208:	b35a3893          	sltiu	a7,s4,-1227
8000320c:	015f1093          	slli	ra,t5,0x15
80003210:	00cea633          	slt	a2,t4,a2
80003214:	01c4dbb3          	srl	s7,s1,t3
80003218:	0ff0000f          	fence
8000321c:	00ee3233          	sltu	tp,t3,a4
80003220:	003b4463          	blt	s6,gp,80003228 <main_j1+0x2d38>
80003224:	006410b3          	sll	ra,s0,t1
80003228:	015ad993          	srli	s3,s5,0x15
8000322c:	20648893          	addi	a7,s1,518
80003230:	028c8063          	beq	s9,s0,80003250 <main_j1+0x2d60>
80003234:	01c4dbb3          	srl	s7,s1,t3
80003238:	20648893          	addi	a7,s1,518
8000323c:	00ee3233          	sltu	tp,t3,a4
80003240:	003b4e63          	blt	s6,gp,8000325c <main_j1+0x2d6c>
80003244:	0ff0000f          	fence
80003248:	00cea633          	slt	a2,t4,a2
8000324c:	00000013          	nop
80003250:	000706b3          	add	a3,a4,zero
80003254:	01c4dbb3          	srl	s7,s1,t3
80003258:	5dff4793          	xori	a5,t5,1503
8000325c:	00ee3233          	sltu	tp,t3,a4
80003260:	00406333          	or	t1,zero,tp
80003264:	028c8463          	beq	s9,s0,8000328c <main_j1+0x2d9c>
80003268:	5dff4793          	xori	a5,t5,1503
8000326c:	01d2dc63          	bge	t0,t4,80003284 <main_j1+0x2d94>
80003270:	01bef5b3          	and	a1,t4,s11
80003274:	00406333          	or	t1,zero,tp
80003278:	015ad993          	srli	s3,s5,0x15
8000327c:	20648893          	addi	a7,s1,518
80003280:	015f1093          	slli	ra,t5,0x15
80003284:	015f1093          	slli	ra,t5,0x15
80003288:	01c4dbb3          	srl	s7,s1,t3
8000328c:	008c8263          	beq	s9,s0,80003290 <main_j1+0x2da0>
80003290:	00000013          	nop
80003294:	4111dd93          	srai	s11,gp,0x11
80003298:	015ad993          	srli	s3,s5,0x15
8000329c:	00406333          	or	t1,zero,tp
800032a0:	bce1a693          	slti	a3,gp,-1074
800032a4:	00000013          	nop
800032a8:	4111dd93          	srai	s11,gp,0x11
800032ac:	fb4ee413          	ori	s0,t4,-76
800032b0:	409a5633          	sra	a2,s4,s1
800032b4:	00406333          	or	t1,zero,tp
800032b8:	01d2d263          	bge	t0,t4,800032bc <main_j1+0x2dcc>
800032bc:	5dff4793          	xori	a5,t5,1503
800032c0:	006410b3          	sll	ra,s0,t1
800032c4:	058d1063          	bne	s10,s8,80003304 <main_j1+0x2e14>
800032c8:	4cb37c13          	andi	s8,t1,1227
800032cc:	015f1093          	slli	ra,t5,0x15
800032d0:	0033c233          	xor	tp,t2,gp
800032d4:	015ad993          	srli	s3,s5,0x15
800032d8:	0033c233          	xor	tp,t2,gp
800032dc:	40ed8c33          	sub	s8,s11,a4
800032e0:	01bef5b3          	and	a1,t4,s11
800032e4:	40ed8c33          	sub	s8,s11,a4
800032e8:	00ee3233          	sltu	tp,t3,a4
800032ec:	028c8663          	beq	s9,s0,80003318 <main_j1+0x2e28>
800032f0:	20648893          	addi	a7,s1,518
800032f4:	00406333          	or	t1,zero,tp
800032f8:	058d1263          	bne	s10,s8,8000333c <main_j1+0x2e4c>
800032fc:	003b4a63          	blt	s6,gp,80003310 <main_j1+0x2e20>
80003300:	0ff0000f          	fence
80003304:	fb4ee413          	ori	s0,t4,-76
80003308:	008c8663          	beq	s9,s0,80003314 <main_j1+0x2e24>
8000330c:	0033c233          	xor	tp,t2,gp
80003310:	023b4663          	blt	s6,gp,8000333c <main_j1+0x2e4c>
80003314:	00cea633          	slt	a2,t4,a2
80003318:	038d1263          	bne	s10,s8,8000333c <main_j1+0x2e4c>
8000331c:	015f1093          	slli	ra,t5,0x15
80003320:	00ee3233          	sltu	tp,t3,a4
80003324:	00406333          	or	t1,zero,tp
80003328:	fb4ee413          	ori	s0,t4,-76
8000332c:	01bef5b3          	and	a1,t4,s11
80003330:	043b4663          	blt	s6,gp,8000337c <main_j1+0x2e8c>
80003334:	00cea633          	slt	a2,t4,a2
80003338:	4111dd93          	srai	s11,gp,0x11
8000333c:	4cb37c13          	andi	s8,t1,1227
80003340:	b35a3893          	sltiu	a7,s4,-1227
80003344:	058d1063          	bne	s10,s8,80003384 <main_j1+0x2e94>
80003348:	40ed8c33          	sub	s8,s11,a4
8000334c:	01bef5b3          	and	a1,t4,s11
80003350:	008c8e63          	beq	s9,s0,8000336c <main_j1+0x2e7c>
80003354:	0000100f          	fence.i
80003358:	0000100f          	fence.i
8000335c:	4cb37c13          	andi	s8,t1,1227
80003360:	015ad993          	srli	s3,s5,0x15
80003364:	01a0ee63          	bltu	ra,s10,80003380 <main_j1+0x2e90>
80003368:	01457663          	bgeu	a0,s4,80003374 <main_j1+0x2e84>
8000336c:	05d2d263          	bge	t0,t4,800033b0 <main_j1+0x2ec0>
80003370:	01c4dbb3          	srl	s7,s1,t3
80003374:	00cea633          	slt	a2,t4,a2
80003378:	bce1a693          	slti	a3,gp,-1074
8000337c:	4cb37c13          	andi	s8,t1,1227
80003380:	5dff4793          	xori	a5,t5,1503
80003384:	5dff4793          	xori	a5,t5,1503
80003388:	00406333          	or	t1,zero,tp
8000338c:	0033c233          	xor	tp,t2,gp
80003390:	b35a3893          	sltiu	a7,s4,-1227
80003394:	20648893          	addi	a7,s1,518
80003398:	023b4e63          	blt	s6,gp,800033d4 <main_j1+0x2ee4>
8000339c:	40ed8c33          	sub	s8,s11,a4
800033a0:	01457663          	bgeu	a0,s4,800033ac <main_j1+0x2ebc>
800033a4:	015ad993          	srli	s3,s5,0x15
800033a8:	00cea633          	slt	a2,t4,a2
800033ac:	03a0ee63          	bltu	ra,s10,800033e8 <main_j1+0x2ef8>
800033b0:	000706b3          	add	a3,a4,zero
800033b4:	b35a3893          	sltiu	a7,s4,-1227
800033b8:	006410b3          	sll	ra,s0,t1
800033bc:	5dff4793          	xori	a5,t5,1503
800033c0:	03457c63          	bgeu	a0,s4,800033f8 <main_j1+0x2f08>
800033c4:	00000013          	nop
800033c8:	015f1093          	slli	ra,t5,0x15
800033cc:	038d1463          	bne	s10,s8,800033f4 <main_j1+0x2f04>
800033d0:	000706b3          	add	a3,a4,zero
800033d4:	40ed8c33          	sub	s8,s11,a4
800033d8:	015ad993          	srli	s3,s5,0x15
800033dc:	40ed8c33          	sub	s8,s11,a4
800033e0:	05d2d463          	bge	t0,t4,80003428 <main_j1+0x2f38>
800033e4:	05457663          	bgeu	a0,s4,80003430 <main_j1+0x2f40>
800033e8:	0ff0000f          	fence
800033ec:	5dff4793          	xori	a5,t5,1503
800033f0:	4cb37c13          	andi	s8,t1,1227
800033f4:	4111dd93          	srai	s11,gp,0x11
800033f8:	015f1093          	slli	ra,t5,0x15
800033fc:	40ed8c33          	sub	s8,s11,a4
80003400:	4111dd93          	srai	s11,gp,0x11
80003404:	01c4dbb3          	srl	s7,s1,t3
80003408:	006410b3          	sll	ra,s0,t1
8000340c:	015ad993          	srli	s3,s5,0x15
80003410:	0000100f          	fence.i
80003414:	00ee3233          	sltu	tp,t3,a4
80003418:	0033c233          	xor	tp,t2,gp
8000341c:	0033c233          	xor	tp,t2,gp
80003420:	015ad993          	srli	s3,s5,0x15
80003424:	fb4ee413          	ori	s0,t4,-76
80003428:	000706b3          	add	a3,a4,zero
8000342c:	05a0e863          	bltu	ra,s10,8000347c <main_j1+0x2f8c>
80003430:	015f1093          	slli	ra,t5,0x15
80003434:	015ad993          	srli	s3,s5,0x15
80003438:	fb4ee413          	ori	s0,t4,-76
8000343c:	5dff4793          	xori	a5,t5,1503
80003440:	cc92a0b7          	lui	ra,0xcc92a
80003444:	40ed8c33          	sub	s8,s11,a4
80003448:	018d1663          	bne	s10,s8,80003454 <main_j1+0x2f64>
8000344c:	4cb37c13          	andi	s8,t1,1227
80003450:	000706b3          	add	a3,a4,zero
80003454:	015ad993          	srli	s3,s5,0x15
80003458:	006410b3          	sll	ra,s0,t1
8000345c:	058d1063          	bne	s10,s8,8000349c <main_j1+0x2fac>
80003460:	20648893          	addi	a7,s1,518
80003464:	01bef5b3          	and	a1,t4,s11
80003468:	40ed8c33          	sub	s8,s11,a4
8000346c:	01c4dbb3          	srl	s7,s1,t3
80003470:	40ed8c33          	sub	s8,s11,a4
80003474:	01457663          	bgeu	a0,s4,80003480 <main_j1+0x2f90>
80003478:	409a5633          	sra	a2,s4,s1
8000347c:	0033c233          	xor	tp,t2,gp
80003480:	00406333          	or	t1,zero,tp
80003484:	409a5633          	sra	a2,s4,s1
80003488:	015f1093          	slli	ra,t5,0x15
8000348c:	008c8e63          	beq	s9,s0,800034a8 <main_j1+0x2fb8>
80003490:	01bef5b3          	and	a1,t4,s11
80003494:	015ad993          	srli	s3,s5,0x15
80003498:	0000100f          	fence.i
8000349c:	5dff4793          	xori	a5,t5,1503
800034a0:	b35a3893          	sltiu	a7,s4,-1227
800034a4:	0033c233          	xor	tp,t2,gp
800034a8:	018d1c63          	bne	s10,s8,800034c0 <main_j1+0x2fd0>
800034ac:	fb4ee413          	ori	s0,t4,-76
800034b0:	015f1093          	slli	ra,t5,0x15
800034b4:	bce1a693          	slti	a3,gp,-1074
800034b8:	05a0e263          	bltu	ra,s10,800034fc <main_j1+0x300c>
800034bc:	01bef5b3          	and	a1,t4,s11
800034c0:	bce1a693          	slti	a3,gp,-1074
800034c4:	b35a3893          	sltiu	a7,s4,-1227
800034c8:	00000013          	nop
800034cc:	000706b3          	add	a3,a4,zero
800034d0:	20648893          	addi	a7,s1,518
800034d4:	bce1a693          	slti	a3,gp,-1074
800034d8:	023b4e63          	blt	s6,gp,80003514 <main_j1+0x3024>
800034dc:	038d1463          	bne	s10,s8,80003504 <main_j1+0x3014>
800034e0:	00000013          	nop
800034e4:	0ff0000f          	fence
800034e8:	00406333          	or	t1,zero,tp
800034ec:	40ed8c33          	sub	s8,s11,a4
800034f0:	4cb37c13          	andi	s8,t1,1227
800034f4:	01c4dbb3          	srl	s7,s1,t3
800034f8:	409a5633          	sra	a2,s4,s1
800034fc:	03d2d063          	bge	t0,t4,8000351c <main_j1+0x302c>
80003500:	b35a3893          	sltiu	a7,s4,-1227
80003504:	20648893          	addi	a7,s1,518
80003508:	4111dd93          	srai	s11,gp,0x11
8000350c:	409a5633          	sra	a2,s4,s1
80003510:	0033c233          	xor	tp,t2,gp
80003514:	00cea633          	slt	a2,t4,a2
80003518:	4cb37c13          	andi	s8,t1,1227
8000351c:	01bef5b3          	and	a1,t4,s11
80003520:	0033c233          	xor	tp,t2,gp
80003524:	cc92a0b7          	lui	ra,0xcc92a
80003528:	015ad993          	srli	s3,s5,0x15
8000352c:	40ed8c33          	sub	s8,s11,a4
80003530:	5dff4793          	xori	a5,t5,1503
80003534:	000706b3          	add	a3,a4,zero
80003538:	00000013          	nop
8000353c:	006410b3          	sll	ra,s0,t1
80003540:	20648893          	addi	a7,s1,518
80003544:	05d2d663          	bge	t0,t4,80003590 <main_j1+0x30a0>
80003548:	00000013          	nop
8000354c:	00000013          	nop
80003550:	5dff4793          	xori	a5,t5,1503
80003554:	00cea633          	slt	a2,t4,a2
80003558:	003b4263          	blt	s6,gp,8000355c <main_j1+0x306c>
8000355c:	058d1063          	bne	s10,s8,8000359c <main_j1+0x30ac>
80003560:	006410b3          	sll	ra,s0,t1
80003564:	01d2d663          	bge	t0,t4,80003570 <main_j1+0x3080>
80003568:	00cea633          	slt	a2,t4,a2
8000356c:	5dff4793          	xori	a5,t5,1503
80003570:	b35a3893          	sltiu	a7,s4,-1227
80003574:	0ff0000f          	fence
80003578:	00000013          	nop
8000357c:	1d860217          	auipc	tp,0x1d860
80003580:	00000013          	nop
80003584:	01c4dbb3          	srl	s7,s1,t3
80003588:	00000013          	nop
8000358c:	058d1063          	bne	s10,s8,800035cc <main_j1+0x30dc>
80003590:	01c4dbb3          	srl	s7,s1,t3
80003594:	00ee3233          	sltu	tp,t3,a4
80003598:	40ed8c33          	sub	s8,s11,a4
8000359c:	03457663          	bgeu	a0,s4,800035c8 <main_j1+0x30d8>
800035a0:	006410b3          	sll	ra,s0,t1
800035a4:	00000013          	nop
800035a8:	5dff4793          	xori	a5,t5,1503
800035ac:	03457e63          	bgeu	a0,s4,800035e8 <main_j1+0x30f8>
800035b0:	5dff4793          	xori	a5,t5,1503
800035b4:	4111dd93          	srai	s11,gp,0x11
800035b8:	409a5633          	sra	a2,s4,s1
800035bc:	015f1093          	slli	ra,t5,0x15
800035c0:	0033c233          	xor	tp,t2,gp
800035c4:	0033c233          	xor	tp,t2,gp
800035c8:	028c8463          	beq	s9,s0,800035f0 <main_j1+0x3100>
800035cc:	bce1a693          	slti	a3,gp,-1074
800035d0:	018d1263          	bne	s10,s8,800035d4 <main_j1+0x30e4>
800035d4:	0000100f          	fence.i
800035d8:	00ee3233          	sltu	tp,t3,a4
800035dc:	01c4dbb3          	srl	s7,s1,t3
800035e0:	00406333          	or	t1,zero,tp
800035e4:	0ff0000f          	fence
800035e8:	409a5633          	sra	a2,s4,s1
800035ec:	0033c233          	xor	tp,t2,gp
800035f0:	00cea633          	slt	a2,t4,a2
800035f4:	bce1a693          	slti	a3,gp,-1074
800035f8:	000706b3          	add	a3,a4,zero
800035fc:	5dff4793          	xori	a5,t5,1503
80003600:	cc92a0b7          	lui	ra,0xcc92a
80003604:	048c8863          	beq	s9,s0,80003654 <main_j1+0x3164>
80003608:	4111dd93          	srai	s11,gp,0x11
8000360c:	015ad993          	srli	s3,s5,0x15
80003610:	cc92a0b7          	lui	ra,0xcc92a
80003614:	4111dd93          	srai	s11,gp,0x11
80003618:	b35a3893          	sltiu	a7,s4,-1227
8000361c:	409a5633          	sra	a2,s4,s1
80003620:	01bef5b3          	and	a1,t4,s11
80003624:	1d860217          	auipc	tp,0x1d860
80003628:	01bef5b3          	and	a1,t4,s11
8000362c:	000706b3          	add	a3,a4,zero
80003630:	b35a3893          	sltiu	a7,s4,-1227
80003634:	0033c233          	xor	tp,t2,gp
80003638:	01c4dbb3          	srl	s7,s1,t3
8000363c:	048c8663          	beq	s9,s0,80003688 <main_j1+0x3198>
80003640:	cc92a0b7          	lui	ra,0xcc92a
80003644:	00406333          	or	t1,zero,tp
80003648:	00000013          	nop
8000364c:	01bef5b3          	and	a1,t4,s11
80003650:	00406333          	or	t1,zero,tp
80003654:	000706b3          	add	a3,a4,zero
80003658:	006410b3          	sll	ra,s0,t1
8000365c:	006410b3          	sll	ra,s0,t1
80003660:	b35a3893          	sltiu	a7,s4,-1227
80003664:	20648893          	addi	a7,s1,518
80003668:	409a5633          	sra	a2,s4,s1
8000366c:	cc92a0b7          	lui	ra,0xcc92a
80003670:	fb4ee413          	ori	s0,t4,-76
80003674:	000706b3          	add	a3,a4,zero
80003678:	00000013          	nop
8000367c:	00406333          	or	t1,zero,tp
80003680:	0000100f          	fence.i
80003684:	01bef5b3          	and	a1,t4,s11
80003688:	fb4ee413          	ori	s0,t4,-76
8000368c:	b35a3893          	sltiu	a7,s4,-1227
80003690:	40ed8c33          	sub	s8,s11,a4
80003694:	00ee3233          	sltu	tp,t3,a4
80003698:	000706b3          	add	a3,a4,zero
8000369c:	008c8663          	beq	s9,s0,800036a8 <main_j1+0x31b8>
800036a0:	fb4ee413          	ori	s0,t4,-76
800036a4:	40ed8c33          	sub	s8,s11,a4
800036a8:	4cb37c13          	andi	s8,t1,1227
800036ac:	00000013          	nop
800036b0:	0ff0000f          	fence
800036b4:	01bef5b3          	and	a1,t4,s11
800036b8:	4111dd93          	srai	s11,gp,0x11
800036bc:	5dff4793          	xori	a5,t5,1503
800036c0:	fb4ee413          	ori	s0,t4,-76
800036c4:	00ee3233          	sltu	tp,t3,a4
800036c8:	0033c233          	xor	tp,t2,gp
800036cc:	0ff0000f          	fence
800036d0:	bce1a693          	slti	a3,gp,-1074
800036d4:	4cb37c13          	andi	s8,t1,1227
800036d8:	01d2da63          	bge	t0,t4,800036ec <main_j1+0x31fc>
800036dc:	05d2d263          	bge	t0,t4,80003720 <main_j1+0x3230>
800036e0:	028c8c63          	beq	s9,s0,80003718 <main_j1+0x3228>
800036e4:	01c4dbb3          	srl	s7,s1,t3
800036e8:	01c4dbb3          	srl	s7,s1,t3
800036ec:	0ff0000f          	fence
800036f0:	048c8463          	beq	s9,s0,80003738 <main_j1+0x3248>
800036f4:	00ee3233          	sltu	tp,t3,a4
800036f8:	01d2d663          	bge	t0,t4,80003704 <main_j1+0x3214>
800036fc:	05457063          	bgeu	a0,s4,8000373c <main_j1+0x324c>
80003700:	00000013          	nop
80003704:	03d2d663          	bge	t0,t4,80003730 <main_j1+0x3240>
80003708:	006410b3          	sll	ra,s0,t1
8000370c:	1d860217          	auipc	tp,0x1d860
80003710:	0000100f          	fence.i
80003714:	00000013          	nop
80003718:	0ff0000f          	fence
8000371c:	038d1263          	bne	s10,s8,80003740 <main_j1+0x3250>
80003720:	01457463          	bgeu	a0,s4,80003728 <main_j1+0x3238>
80003724:	4111dd93          	srai	s11,gp,0x11
80003728:	01c4dbb3          	srl	s7,s1,t3
8000372c:	409a5633          	sra	a2,s4,s1
80003730:	015ad993          	srli	s3,s5,0x15
80003734:	018d1e63          	bne	s10,s8,80003750 <main_j1+0x3260>
80003738:	20648893          	addi	a7,s1,518
8000373c:	01c4dbb3          	srl	s7,s1,t3
80003740:	008c8e63          	beq	s9,s0,8000375c <main_j1+0x326c>
80003744:	01a0e663          	bltu	ra,s10,80003750 <main_j1+0x3260>
80003748:	b35a3893          	sltiu	a7,s4,-1227
8000374c:	006410b3          	sll	ra,s0,t1
80003750:	018d1e63          	bne	s10,s8,8000376c <main_j1+0x327c>
80003754:	03457e63          	bgeu	a0,s4,80003790 <main_j1+0x32a0>
80003758:	4111dd93          	srai	s11,gp,0x11
8000375c:	015f1093          	slli	ra,t5,0x15
80003760:	003b4263          	blt	s6,gp,80003764 <main_j1+0x3274>
80003764:	00ee3233          	sltu	tp,t3,a4
80003768:	00000013          	nop
8000376c:	00000013          	nop
80003770:	03a0e263          	bltu	ra,s10,80003794 <main_j1+0x32a4>
80003774:	00000013          	nop
80003778:	fb4ee413          	ori	s0,t4,-76
8000377c:	20648893          	addi	a7,s1,518
80003780:	4cb37c13          	andi	s8,t1,1227
80003784:	00ee3233          	sltu	tp,t3,a4
80003788:	008c8a63          	beq	s9,s0,8000379c <main_j1+0x32ac>
8000378c:	20648893          	addi	a7,s1,518
80003790:	01bef5b3          	and	a1,t4,s11
80003794:	01c4dbb3          	srl	s7,s1,t3
80003798:	000706b3          	add	a3,a4,zero
8000379c:	409a5633          	sra	a2,s4,s1
800037a0:	0ff0000f          	fence
800037a4:	409a5633          	sra	a2,s4,s1
800037a8:	015ad993          	srli	s3,s5,0x15
800037ac:	000706b3          	add	a3,a4,zero
800037b0:	0000100f          	fence.i
800037b4:	bce1a693          	slti	a3,gp,-1074
800037b8:	01bef5b3          	and	a1,t4,s11
800037bc:	006410b3          	sll	ra,s0,t1
800037c0:	048c8063          	beq	s9,s0,80003800 <main_j1+0x3310>
800037c4:	03457463          	bgeu	a0,s4,800037ec <main_j1+0x32fc>
800037c8:	03a0ec63          	bltu	ra,s10,80003800 <main_j1+0x3310>
800037cc:	05a0e063          	bltu	ra,s10,8000380c <main_j1+0x331c>
800037d0:	cc92a0b7          	lui	ra,0xcc92a
800037d4:	015ad993          	srli	s3,s5,0x15
800037d8:	00cea633          	slt	a2,t4,a2
800037dc:	0000100f          	fence.i
800037e0:	05a0e463          	bltu	ra,s10,80003828 <main_j1+0x3338>
800037e4:	058d1663          	bne	s10,s8,80003830 <main_j1+0x3340>
800037e8:	01bef5b3          	and	a1,t4,s11
800037ec:	4cb37c13          	andi	s8,t1,1227
800037f0:	03d2d063          	bge	t0,t4,80003810 <main_j1+0x3320>
800037f4:	409a5633          	sra	a2,s4,s1
800037f8:	01457663          	bgeu	a0,s4,80003804 <main_j1+0x3314>
800037fc:	4cb37c13          	andi	s8,t1,1227
80003800:	0000100f          	fence.i
80003804:	01d2d663          	bge	t0,t4,80003810 <main_j1+0x3320>
80003808:	0033c233          	xor	tp,t2,gp
8000380c:	01bef5b3          	and	a1,t4,s11
80003810:	5dff4793          	xori	a5,t5,1503
80003814:	015f1093          	slli	ra,t5,0x15
80003818:	00406333          	or	t1,zero,tp
8000381c:	043b4063          	blt	s6,gp,8000385c <main_j1+0x336c>
80003820:	1d860217          	auipc	tp,0x1d860
80003824:	b35a3893          	sltiu	a7,s4,-1227
80003828:	038d1663          	bne	s10,s8,80003854 <main_j1+0x3364>
8000382c:	000706b3          	add	a3,a4,zero
80003830:	0ff0000f          	fence
80003834:	cc92a0b7          	lui	ra,0xcc92a
80003838:	1d860217          	auipc	tp,0x1d860
8000383c:	028c8463          	beq	s9,s0,80003864 <main_j1+0x3374>
80003840:	0000100f          	fence.i
80003844:	01457663          	bgeu	a0,s4,80003850 <main_j1+0x3360>
80003848:	00ee3233          	sltu	tp,t3,a4
8000384c:	006410b3          	sll	ra,s0,t1
80003850:	006410b3          	sll	ra,s0,t1
80003854:	00cea633          	slt	a2,t4,a2
80003858:	015ad993          	srli	s3,s5,0x15
8000385c:	015ad993          	srli	s3,s5,0x15
80003860:	05d2d263          	bge	t0,t4,800038a4 <main_j1+0x33b4>
80003864:	20648893          	addi	a7,s1,518
80003868:	20648893          	addi	a7,s1,518
8000386c:	015f1093          	slli	ra,t5,0x15
80003870:	00000013          	nop
80003874:	00ee3233          	sltu	tp,t3,a4
80003878:	1d860217          	auipc	tp,0x1d860
8000387c:	fb4ee413          	ori	s0,t4,-76
80003880:	cc92a0b7          	lui	ra,0xcc92a
80003884:	05a0e663          	bltu	ra,s10,800038d0 <main_j1+0x33e0>
80003888:	003b4463          	blt	s6,gp,80003890 <main_j1+0x33a0>
8000388c:	015f1093          	slli	ra,t5,0x15
80003890:	40ed8c33          	sub	s8,s11,a4
80003894:	01d2dc63          	bge	t0,t4,800038ac <main_j1+0x33bc>
80003898:	b35a3893          	sltiu	a7,s4,-1227
8000389c:	20648893          	addi	a7,s1,518
800038a0:	0ff0000f          	fence
800038a4:	5dff4793          	xori	a5,t5,1503
800038a8:	023b4e63          	blt	s6,gp,800038e4 <main_j1+0x33f4>
800038ac:	01457263          	bgeu	a0,s4,800038b0 <main_j1+0x33c0>
800038b0:	00406333          	or	t1,zero,tp
800038b4:	5dff4793          	xori	a5,t5,1503
800038b8:	01457e63          	bgeu	a0,s4,800038d4 <main_j1+0x33e4>
800038bc:	fb4ee413          	ori	s0,t4,-76
800038c0:	05d2d263          	bge	t0,t4,80003904 <main_j1+0x3414>
800038c4:	006410b3          	sll	ra,s0,t1
800038c8:	00406333          	or	t1,zero,tp
800038cc:	00406333          	or	t1,zero,tp
800038d0:	4cb37c13          	andi	s8,t1,1227
800038d4:	20648893          	addi	a7,s1,518
800038d8:	0ff0000f          	fence
800038dc:	40ed8c33          	sub	s8,s11,a4
800038e0:	000706b3          	add	a3,a4,zero
800038e4:	003b4e63          	blt	s6,gp,80003900 <main_j1+0x3410>
800038e8:	5dff4793          	xori	a5,t5,1503
800038ec:	fb4ee413          	ori	s0,t4,-76
800038f0:	cc92a0b7          	lui	ra,0xcc92a
800038f4:	4111dd93          	srai	s11,gp,0x11
800038f8:	01c4dbb3          	srl	s7,s1,t3
800038fc:	0033c233          	xor	tp,t2,gp
80003900:	0033c233          	xor	tp,t2,gp
80003904:	409a5633          	sra	a2,s4,s1
80003908:	4cb37c13          	andi	s8,t1,1227
8000390c:	00000013          	nop
80003910:	058d1863          	bne	s10,s8,80003960 <main_j1+0x3470>
80003914:	4111dd93          	srai	s11,gp,0x11
80003918:	00406333          	or	t1,zero,tp
8000391c:	006410b3          	sll	ra,s0,t1
80003920:	000706b3          	add	a3,a4,zero
80003924:	0033c233          	xor	tp,t2,gp
80003928:	00406333          	or	t1,zero,tp
8000392c:	00ee3233          	sltu	tp,t3,a4
80003930:	cc92a0b7          	lui	ra,0xcc92a
80003934:	015f1093          	slli	ra,t5,0x15
80003938:	000706b3          	add	a3,a4,zero
8000393c:	fb4ee413          	ori	s0,t4,-76
80003940:	006410b3          	sll	ra,s0,t1
80003944:	20648893          	addi	a7,s1,518
80003948:	03d2d663          	bge	t0,t4,80003974 <main_j1+0x3484>
8000394c:	40ed8c33          	sub	s8,s11,a4
80003950:	1d860217          	auipc	tp,0x1d860
80003954:	03d2d663          	bge	t0,t4,80003980 <main_j1+0x3490>
80003958:	cc92a0b7          	lui	ra,0xcc92a
8000395c:	015f1093          	slli	ra,t5,0x15
80003960:	01bef5b3          	and	a1,t4,s11
80003964:	fb4ee413          	ori	s0,t4,-76
80003968:	006410b3          	sll	ra,s0,t1
8000396c:	4111dd93          	srai	s11,gp,0x11
80003970:	0ff0000f          	fence
80003974:	0033c233          	xor	tp,t2,gp
80003978:	023b4c63          	blt	s6,gp,800039b0 <main_j1+0x34c0>
8000397c:	0ff0000f          	fence
80003980:	01c4dbb3          	srl	s7,s1,t3
80003984:	00406333          	or	t1,zero,tp
80003988:	01c4dbb3          	srl	s7,s1,t3
8000398c:	05d2d663          	bge	t0,t4,800039d8 <main_j1+0x34e8>
80003990:	038d1663          	bne	s10,s8,800039bc <main_j1+0x34cc>
80003994:	1d860217          	auipc	tp,0x1d860
80003998:	5dff4793          	xori	a5,t5,1503
8000399c:	023b4063          	blt	s6,gp,800039bc <main_j1+0x34cc>
800039a0:	0000100f          	fence.i
800039a4:	0033c233          	xor	tp,t2,gp
800039a8:	1d860217          	auipc	tp,0x1d860
800039ac:	cc92a0b7          	lui	ra,0xcc92a
800039b0:	00000013          	nop
800039b4:	006410b3          	sll	ra,s0,t1
800039b8:	b35a3893          	sltiu	a7,s4,-1227
800039bc:	0000100f          	fence.i
800039c0:	038d1263          	bne	s10,s8,800039e4 <main_j1+0x34f4>
800039c4:	20648893          	addi	a7,s1,518
800039c8:	00cea633          	slt	a2,t4,a2
800039cc:	4111dd93          	srai	s11,gp,0x11
800039d0:	015ad993          	srli	s3,s5,0x15
800039d4:	5dff4793          	xori	a5,t5,1503
800039d8:	00ee3233          	sltu	tp,t3,a4
800039dc:	5dff4793          	xori	a5,t5,1503
800039e0:	01bef5b3          	and	a1,t4,s11
800039e4:	00ee3233          	sltu	tp,t3,a4
800039e8:	cc92a0b7          	lui	ra,0xcc92a
800039ec:	000706b3          	add	a3,a4,zero
800039f0:	00406333          	or	t1,zero,tp
800039f4:	05457263          	bgeu	a0,s4,80003a38 <main_j1+0x3548>
800039f8:	018d1263          	bne	s10,s8,800039fc <main_j1+0x350c>
800039fc:	5dff4793          	xori	a5,t5,1503
80003a00:	0ff0000f          	fence
80003a04:	003b4263          	blt	s6,gp,80003a08 <main_j1+0x3518>
80003a08:	4cb37c13          	andi	s8,t1,1227
80003a0c:	01c4dbb3          	srl	s7,s1,t3
80003a10:	058d1063          	bne	s10,s8,80003a50 <main_j1+0x3560>
80003a14:	0033c233          	xor	tp,t2,gp
80003a18:	000706b3          	add	a3,a4,zero
80003a1c:	20648893          	addi	a7,s1,518
80003a20:	5dff4793          	xori	a5,t5,1503
80003a24:	fb4ee413          	ori	s0,t4,-76
80003a28:	20648893          	addi	a7,s1,518
80003a2c:	01d2de63          	bge	t0,t4,80003a48 <main_j1+0x3558>
80003a30:	00000013          	nop
80003a34:	40ed8c33          	sub	s8,s11,a4
80003a38:	4111dd93          	srai	s11,gp,0x11
80003a3c:	00406333          	or	t1,zero,tp
80003a40:	008c8c63          	beq	s9,s0,80003a58 <main_j1+0x3568>
80003a44:	01c4dbb3          	srl	s7,s1,t3
80003a48:	00ee3233          	sltu	tp,t3,a4
80003a4c:	0033c233          	xor	tp,t2,gp
80003a50:	1d860217          	auipc	tp,0x1d860
80003a54:	015ad993          	srli	s3,s5,0x15
80003a58:	20648893          	addi	a7,s1,518
80003a5c:	4111dd93          	srai	s11,gp,0x11
80003a60:	40ed8c33          	sub	s8,s11,a4
80003a64:	008c8663          	beq	s9,s0,80003a70 <main_j1+0x3580>
80003a68:	b35a3893          	sltiu	a7,s4,-1227
80003a6c:	01c4dbb3          	srl	s7,s1,t3
80003a70:	0033c233          	xor	tp,t2,gp
80003a74:	409a5633          	sra	a2,s4,s1
80003a78:	40ed8c33          	sub	s8,s11,a4
80003a7c:	4cb37c13          	andi	s8,t1,1227
80003a80:	20648893          	addi	a7,s1,518
80003a84:	01a0e463          	bltu	ra,s10,80003a8c <main_j1+0x359c>
80003a88:	01c4dbb3          	srl	s7,s1,t3
80003a8c:	00406333          	or	t1,zero,tp
80003a90:	000706b3          	add	a3,a4,zero
80003a94:	0033c233          	xor	tp,t2,gp
80003a98:	00000013          	nop
80003a9c:	01c4dbb3          	srl	s7,s1,t3
80003aa0:	015ad993          	srli	s3,s5,0x15
80003aa4:	5dff4793          	xori	a5,t5,1503
80003aa8:	bce1a693          	slti	a3,gp,-1074
80003aac:	000706b3          	add	a3,a4,zero
80003ab0:	000706b3          	add	a3,a4,zero
80003ab4:	015f1093          	slli	ra,t5,0x15
80003ab8:	015f1093          	slli	ra,t5,0x15
80003abc:	00ee3233          	sltu	tp,t3,a4
80003ac0:	05d2d663          	bge	t0,t4,80003b0c <main_j1+0x361c>
80003ac4:	5dff4793          	xori	a5,t5,1503
80003ac8:	015f1093          	slli	ra,t5,0x15
80003acc:	015f1093          	slli	ra,t5,0x15
80003ad0:	0ff0000f          	fence
80003ad4:	015ad993          	srli	s3,s5,0x15
80003ad8:	1d860217          	auipc	tp,0x1d860
80003adc:	01bef5b3          	and	a1,t4,s11
80003ae0:	01c4dbb3          	srl	s7,s1,t3
80003ae4:	0033c233          	xor	tp,t2,gp
80003ae8:	00406333          	or	t1,zero,tp
80003aec:	40ed8c33          	sub	s8,s11,a4
80003af0:	00406333          	or	t1,zero,tp
80003af4:	409a5633          	sra	a2,s4,s1
80003af8:	20648893          	addi	a7,s1,518
80003afc:	00ee3233          	sltu	tp,t3,a4
80003b00:	bce1a693          	slti	a3,gp,-1074
80003b04:	01bef5b3          	and	a1,t4,s11
80003b08:	40ed8c33          	sub	s8,s11,a4
80003b0c:	1d860217          	auipc	tp,0x1d860
80003b10:	05d2d063          	bge	t0,t4,80003b50 <main_j1+0x3660>
80003b14:	006410b3          	sll	ra,s0,t1
80003b18:	03457463          	bgeu	a0,s4,80003b40 <main_j1+0x3650>
80003b1c:	00406333          	or	t1,zero,tp
80003b20:	bce1a693          	slti	a3,gp,-1074
80003b24:	cc92a0b7          	lui	ra,0xcc92a
80003b28:	01c4dbb3          	srl	s7,s1,t3
80003b2c:	01a0e663          	bltu	ra,s10,80003b38 <main_j1+0x3648>
80003b30:	015ad993          	srli	s3,s5,0x15
80003b34:	015f1093          	slli	ra,t5,0x15
80003b38:	00cea633          	slt	a2,t4,a2
80003b3c:	fb4ee413          	ori	s0,t4,-76
80003b40:	00000013          	nop
80003b44:	00406333          	or	t1,zero,tp
80003b48:	1d860217          	auipc	tp,0x1d860
80003b4c:	0033c233          	xor	tp,t2,gp
80003b50:	40ed8c33          	sub	s8,s11,a4
80003b54:	0033c233          	xor	tp,t2,gp
80003b58:	015ad993          	srli	s3,s5,0x15
80003b5c:	20648893          	addi	a7,s1,518
80003b60:	03457e63          	bgeu	a0,s4,80003b9c <main_j1+0x36ac>
80003b64:	00000013          	nop
80003b68:	cc92a0b7          	lui	ra,0xcc92a
80003b6c:	0000100f          	fence.i
80003b70:	0033c233          	xor	tp,t2,gp
80003b74:	5dff4793          	xori	a5,t5,1503
80003b78:	03a0ee63          	bltu	ra,s10,80003bb4 <main_j1+0x36c4>
80003b7c:	023b4463          	blt	s6,gp,80003ba4 <main_j1+0x36b4>
80003b80:	cc92a0b7          	lui	ra,0xcc92a
80003b84:	1d860217          	auipc	tp,0x1d860
80003b88:	bce1a693          	slti	a3,gp,-1074
80003b8c:	0ff0000f          	fence
80003b90:	000706b3          	add	a3,a4,zero
80003b94:	00000013          	nop
80003b98:	1d860217          	auipc	tp,0x1d860
80003b9c:	409a5633          	sra	a2,s4,s1
80003ba0:	01c4dbb3          	srl	s7,s1,t3
80003ba4:	bce1a693          	slti	a3,gp,-1074
80003ba8:	00cea633          	slt	a2,t4,a2
80003bac:	015ad993          	srli	s3,s5,0x15
80003bb0:	000706b3          	add	a3,a4,zero
80003bb4:	409a5633          	sra	a2,s4,s1
80003bb8:	409a5633          	sra	a2,s4,s1
80003bbc:	05457063          	bgeu	a0,s4,80003bfc <main_j1+0x370c>
80003bc0:	015ad993          	srli	s3,s5,0x15
80003bc4:	4cb37c13          	andi	s8,t1,1227
80003bc8:	409a5633          	sra	a2,s4,s1
80003bcc:	01bef5b3          	and	a1,t4,s11
80003bd0:	40ed8c33          	sub	s8,s11,a4
80003bd4:	000706b3          	add	a3,a4,zero
80003bd8:	00000013          	nop
80003bdc:	0000100f          	fence.i
80003be0:	b35a3893          	sltiu	a7,s4,-1227
80003be4:	4cb37c13          	andi	s8,t1,1227
80003be8:	008c8663          	beq	s9,s0,80003bf4 <main_j1+0x3704>
80003bec:	05457863          	bgeu	a0,s4,80003c3c <main_j1+0x374c>
80003bf0:	006410b3          	sll	ra,s0,t1
80003bf4:	01d2de63          	bge	t0,t4,80003c10 <main_j1+0x3720>
80003bf8:	015ad993          	srli	s3,s5,0x15
80003bfc:	01d2da63          	bge	t0,t4,80003c10 <main_j1+0x3720>
80003c00:	015f1093          	slli	ra,t5,0x15
80003c04:	01bef5b3          	and	a1,t4,s11
80003c08:	018d1e63          	bne	s10,s8,80003c24 <main_j1+0x3734>
80003c0c:	008c8663          	beq	s9,s0,80003c18 <main_j1+0x3728>
80003c10:	40ed8c33          	sub	s8,s11,a4
80003c14:	bce1a693          	slti	a3,gp,-1074
80003c18:	0000100f          	fence.i
80003c1c:	058d1463          	bne	s10,s8,80003c64 <main_j1+0x3774>
80003c20:	1d860217          	auipc	tp,0x1d860
80003c24:	0ff0000f          	fence
80003c28:	0033c233          	xor	tp,t2,gp
80003c2c:	01bef5b3          	and	a1,t4,s11
80003c30:	048c8263          	beq	s9,s0,80003c74 <main_j1+0x3784>
80003c34:	4111dd93          	srai	s11,gp,0x11
80003c38:	5dff4793          	xori	a5,t5,1503
80003c3c:	00cea633          	slt	a2,t4,a2
80003c40:	4111dd93          	srai	s11,gp,0x11
80003c44:	1d860217          	auipc	tp,0x1d860
80003c48:	038d1663          	bne	s10,s8,80003c74 <main_j1+0x3784>
80003c4c:	015ad993          	srli	s3,s5,0x15
80003c50:	01bef5b3          	and	a1,t4,s11
80003c54:	0033c233          	xor	tp,t2,gp
80003c58:	00406333          	or	t1,zero,tp
80003c5c:	01c4dbb3          	srl	s7,s1,t3
80003c60:	00000013          	nop
80003c64:	048c8463          	beq	s9,s0,80003cac <main_j1+0x37bc>
80003c68:	000706b3          	add	a3,a4,zero
80003c6c:	015ad993          	srli	s3,s5,0x15
80003c70:	409a5633          	sra	a2,s4,s1
80003c74:	bce1a693          	slti	a3,gp,-1074
80003c78:	4111dd93          	srai	s11,gp,0x11
80003c7c:	05d2d263          	bge	t0,t4,80003cc0 <main_j1+0x37d0>
80003c80:	bce1a693          	slti	a3,gp,-1074
80003c84:	5dff4793          	xori	a5,t5,1503
80003c88:	40ed8c33          	sub	s8,s11,a4
80003c8c:	5dff4793          	xori	a5,t5,1503
80003c90:	0000100f          	fence.i
80003c94:	1d860217          	auipc	tp,0x1d860
80003c98:	015ad993          	srli	s3,s5,0x15
80003c9c:	018d1a63          	bne	s10,s8,80003cb0 <main_j1+0x37c0>
80003ca0:	20648893          	addi	a7,s1,518
80003ca4:	006410b3          	sll	ra,s0,t1
80003ca8:	00cea633          	slt	a2,t4,a2
80003cac:	00406333          	or	t1,zero,tp
80003cb0:	058d1063          	bne	s10,s8,80003cf0 <main_j1+0x3800>
80003cb4:	fb4ee413          	ori	s0,t4,-76
80003cb8:	bce1a693          	slti	a3,gp,-1074
80003cbc:	cc92a0b7          	lui	ra,0xcc92a
80003cc0:	015ad993          	srli	s3,s5,0x15
80003cc4:	000706b3          	add	a3,a4,zero
80003cc8:	048c8863          	beq	s9,s0,80003d18 <main_j1+0x3828>
80003ccc:	01d2de63          	bge	t0,t4,80003ce8 <main_j1+0x37f8>
80003cd0:	fb4ee413          	ori	s0,t4,-76
80003cd4:	1d860217          	auipc	tp,0x1d860
80003cd8:	fb4ee413          	ori	s0,t4,-76
80003cdc:	0033c233          	xor	tp,t2,gp
80003ce0:	5dff4793          	xori	a5,t5,1503
80003ce4:	048c8063          	beq	s9,s0,80003d24 <main_j1+0x3834>
80003ce8:	1d860217          	auipc	tp,0x1d860
80003cec:	4111dd93          	srai	s11,gp,0x11
80003cf0:	00ee3233          	sltu	tp,t3,a4
80003cf4:	4cb37c13          	andi	s8,t1,1227
80003cf8:	5dff4793          	xori	a5,t5,1503
80003cfc:	5dff4793          	xori	a5,t5,1503
80003d00:	03457263          	bgeu	a0,s4,80003d24 <main_j1+0x3834>
80003d04:	05457663          	bgeu	a0,s4,80003d50 <main_j1+0x3860>
80003d08:	018d1663          	bne	s10,s8,80003d14 <main_j1+0x3824>
80003d0c:	008c8663          	beq	s9,s0,80003d18 <main_j1+0x3828>
80003d10:	00ee3233          	sltu	tp,t3,a4
80003d14:	bce1a693          	slti	a3,gp,-1074
80003d18:	01c4dbb3          	srl	s7,s1,t3
80003d1c:	40ed8c33          	sub	s8,s11,a4
80003d20:	003b4e63          	blt	s6,gp,80003d3c <main_j1+0x384c>
80003d24:	043b4063          	blt	s6,gp,80003d64 <main_j1+0x3874>
80003d28:	0ff0000f          	fence
80003d2c:	bce1a693          	slti	a3,gp,-1074
80003d30:	bce1a693          	slti	a3,gp,-1074
80003d34:	015f1093          	slli	ra,t5,0x15
80003d38:	cc92a0b7          	lui	ra,0xcc92a
80003d3c:	0033c233          	xor	tp,t2,gp
80003d40:	006410b3          	sll	ra,s0,t1
80003d44:	bce1a693          	slti	a3,gp,-1074
80003d48:	00cea633          	slt	a2,t4,a2
80003d4c:	bce1a693          	slti	a3,gp,-1074
80003d50:	006410b3          	sll	ra,s0,t1
80003d54:	0000100f          	fence.i
80003d58:	409a5633          	sra	a2,s4,s1
80003d5c:	20648893          	addi	a7,s1,518
80003d60:	bce1a693          	slti	a3,gp,-1074
80003d64:	01bef5b3          	and	a1,t4,s11
80003d68:	015f1093          	slli	ra,t5,0x15
80003d6c:	015ad993          	srli	s3,s5,0x15
80003d70:	00406333          	or	t1,zero,tp
80003d74:	409a5633          	sra	a2,s4,s1
80003d78:	006410b3          	sll	ra,s0,t1
80003d7c:	4111dd93          	srai	s11,gp,0x11
80003d80:	1d860217          	auipc	tp,0x1d860
80003d84:	b35a3893          	sltiu	a7,s4,-1227
80003d88:	00ee3233          	sltu	tp,t3,a4
80003d8c:	015f1093          	slli	ra,t5,0x15
80003d90:	00ee3233          	sltu	tp,t3,a4
80003d94:	018d1663          	bne	s10,s8,80003da0 <main_j1+0x38b0>
80003d98:	4111dd93          	srai	s11,gp,0x11
80003d9c:	cc92a0b7          	lui	ra,0xcc92a
80003da0:	cc92a0b7          	lui	ra,0xcc92a
80003da4:	00000d17          	auipc	s10,0x0
80003da8:	00cd0d13          	addi	s10,s10,12 # 80003db0 <test_done>
80003dac:	000d0067          	jr	s10

80003db0 <test_done>:
80003db0:	00100193          	li	gp,1
80003db4:	00000073          	ecall

80003db8 <sub_4>:
80003db8:	01a0e463          	bltu	ra,s10,80003dc0 <sub_4_stack_p>
80003dbc:	4111dd93          	srai	s11,gp,0x11

80003dc0 <sub_4_stack_p>:
80003dc0:	ff0e0e13          	addi	t3,t3,-16
80003dc4:	01fe2223          	sw	t6,4(t3)
80003dc8:	01bef5b3          	and	a1,t4,s11
80003dcc:	0000100f          	fence.i
80003dd0:	00ee3233          	sltu	tp,t3,a4
80003dd4:	00406333          	or	t1,zero,tp
80003dd8:	015f1093          	slli	ra,t5,0x15
80003ddc:	0ff0000f          	fence
80003de0:	409a5633          	sra	a2,s4,s1
80003de4:	fb4ee413          	ori	s0,t4,-76
80003de8:	048c8063          	beq	s9,s0,80003e28 <sub_4_stack_p+0x68>
80003dec:	01d2de63          	bge	t0,t4,80003e08 <sub_4_stack_p+0x48>
80003df0:	015ad993          	srli	s3,s5,0x15
80003df4:	015f1093          	slli	ra,t5,0x15
80003df8:	00ee3233          	sltu	tp,t3,a4
80003dfc:	20648893          	addi	a7,s1,518
80003e00:	05457463          	bgeu	a0,s4,80003e48 <sub_4_stack_p+0x88>
80003e04:	cc92a0b7          	lui	ra,0xcc92a
80003e08:	00cea633          	slt	a2,t4,a2
80003e0c:	015f1093          	slli	ra,t5,0x15
80003e10:	1d860217          	auipc	tp,0x1d860
80003e14:	018d1c63          	bne	s10,s8,80003e2c <sub_4_stack_p+0x6c>
80003e18:	4cb37c13          	andi	s8,t1,1227
80003e1c:	00cea633          	slt	a2,t4,a2
80003e20:	0000100f          	fence.i
80003e24:	01c4dbb3          	srl	s7,s1,t3
80003e28:	015f1093          	slli	ra,t5,0x15
80003e2c:	043b4663          	blt	s6,gp,80003e78 <sub_4_stack_p+0xb8>
80003e30:	03457a63          	bgeu	a0,s4,80003e64 <sub_4_stack_p+0xa4>
80003e34:	006410b3          	sll	ra,s0,t1
80003e38:	01c4dbb3          	srl	s7,s1,t3
80003e3c:	0ff0000f          	fence
80003e40:	4111dd93          	srai	s11,gp,0x11
80003e44:	000706b3          	add	a3,a4,zero
80003e48:	fb4ee413          	ori	s0,t4,-76
80003e4c:	b35a3893          	sltiu	a7,s4,-1227
80003e50:	b35a3893          	sltiu	a7,s4,-1227
80003e54:	00cea633          	slt	a2,t4,a2
80003e58:	20648893          	addi	a7,s1,518
80003e5c:	003b4e63          	blt	s6,gp,80003e78 <sub_4_stack_p+0xb8>
80003e60:	01c4dbb3          	srl	s7,s1,t3
80003e64:	fb4ee413          	ori	s0,t4,-76
80003e68:	003b4863          	blt	s6,gp,80003e78 <sub_4_stack_p+0xb8>
80003e6c:	409a5633          	sra	a2,s4,s1
80003e70:	4cb37c13          	andi	s8,t1,1227
80003e74:	01c4dbb3          	srl	s7,s1,t3
80003e78:	1d860217          	auipc	tp,0x1d860
80003e7c:	5dff4793          	xori	a5,t5,1503
80003e80:	00ee3233          	sltu	tp,t3,a4
80003e84:	004e2f83          	lw	t6,4(t3)
80003e88:	015f1093          	slli	ra,t5,0x15
80003e8c:	40ed8c33          	sub	s8,s11,a4
80003e90:	cc92a0b7          	lui	ra,0xcc92a
80003e94:	b35a3893          	sltiu	a7,s4,-1227
80003e98:	010e0e13          	addi	t3,t3,16
80003e9c:	0033c233          	xor	tp,t2,gp
80003ea0:	40ed8c33          	sub	s8,s11,a4
80003ea4:	001f8393          	addi	t2,t6,1 # 80000001 <_end+0xfffd1181>
80003ea8:	000383e7          	jalr	t2,t2

80003eac <sub_3>:
80003eac:	40ed8c33          	sub	s8,s11,a4
80003eb0:	1d860217          	auipc	tp,0x1d860
80003eb4:	0000100f          	fence.i
80003eb8:	0033c233          	xor	tp,t2,gp
80003ebc:	000706b3          	add	a3,a4,zero
80003ec0:	fece0e13          	addi	t3,t3,-20
80003ec4:	01fe2223          	sw	t6,4(t3)
80003ec8:	015f1093          	slli	ra,t5,0x15
80003ecc:	cc92a0b7          	lui	ra,0xcc92a
80003ed0:	0ff0000f          	fence
80003ed4:	03d2d863          	bge	t0,t4,80003f04 <sub_3+0x58>
80003ed8:	20648893          	addi	a7,s1,518
80003edc:	5dff4793          	xori	a5,t5,1503
80003ee0:	0000100f          	fence.i
80003ee4:	01c4dbb3          	srl	s7,s1,t3
80003ee8:	01a0ea63          	bltu	ra,s10,80003efc <sub_3+0x50>
80003eec:	000706b3          	add	a3,a4,zero
80003ef0:	01d2de63          	bge	t0,t4,80003f0c <sub_3+0x60>
80003ef4:	0033c233          	xor	tp,t2,gp
80003ef8:	01457e63          	bgeu	a0,s4,80003f14 <sub_3+0x68>
80003efc:	023b4063          	blt	s6,gp,80003f1c <sub_3+0x70>
80003f00:	0ff0000f          	fence
80003f04:	05457063          	bgeu	a0,s4,80003f44 <sub_3+0x98>
80003f08:	cc92a0b7          	lui	ra,0xcc92a
80003f0c:	00ee3233          	sltu	tp,t3,a4
80003f10:	4111dd93          	srai	s11,gp,0x11
80003f14:	01d2d263          	bge	t0,t4,80003f18 <sub_3+0x6c>
80003f18:	1d860217          	auipc	tp,0x1d860
80003f1c:	006410b3          	sll	ra,s0,t1
80003f20:	03d2d863          	bge	t0,t4,80003f50 <sub_3+0xa4>
80003f24:	409a5633          	sra	a2,s4,s1
80003f28:	01bef5b3          	and	a1,t4,s11
80003f2c:	0ff0000f          	fence
80003f30:	008c8263          	beq	s9,s0,80003f34 <sub_3+0x88>
80003f34:	40ed8c33          	sub	s8,s11,a4
80003f38:	01bef5b3          	and	a1,t4,s11
80003f3c:	000706b3          	add	a3,a4,zero
80003f40:	008c8263          	beq	s9,s0,80003f44 <sub_3+0x98>
80003f44:	0033c233          	xor	tp,t2,gp
80003f48:	fb4ee413          	ori	s0,t4,-76
80003f4c:	028c8a63          	beq	s9,s0,80003f80 <sub_3+0xd4>
80003f50:	03457863          	bgeu	a0,s4,80003f80 <sub_3+0xd4>
80003f54:	01d2d663          	bge	t0,t4,80003f60 <sub_3+0xb4>
80003f58:	038d1463          	bne	s10,s8,80003f80 <sub_3+0xd4>
80003f5c:	015ad993          	srli	s3,s5,0x15
80003f60:	bce1a693          	slti	a3,gp,-1074
80003f64:	0ff0000f          	fence
80003f68:	05d2d663          	bge	t0,t4,80003fb4 <sub_3+0x108>
80003f6c:	00cea633          	slt	a2,t4,a2
80003f70:	023b4c63          	blt	s6,gp,80003fa8 <sub_3+0xfc>
80003f74:	015f1093          	slli	ra,t5,0x15
80003f78:	00406333          	or	t1,zero,tp
80003f7c:	00406333          	or	t1,zero,tp
80003f80:	00000013          	nop
80003f84:	038d1863          	bne	s10,s8,80003fb4 <sub_3+0x108>
80003f88:	4111dd93          	srai	s11,gp,0x11
80003f8c:	409a5633          	sra	a2,s4,s1
80003f90:	00cea633          	slt	a2,t4,a2
80003f94:	018d1a63          	bne	s10,s8,80003fa8 <sub_3+0xfc>
80003f98:	5dff4793          	xori	a5,t5,1503
80003f9c:	05457063          	bgeu	a0,s4,80003fdc <sub_3+0x130>
80003fa0:	0033c233          	xor	tp,t2,gp
80003fa4:	038d1463          	bne	s10,s8,80003fcc <sub_3+0x120>
80003fa8:	01c4dbb3          	srl	s7,s1,t3
80003fac:	5dff4793          	xori	a5,t5,1503
80003fb0:	00cea633          	slt	a2,t4,a2
80003fb4:	4111dd93          	srai	s11,gp,0x11
80003fb8:	bce1a693          	slti	a3,gp,-1074
80003fbc:	015f1093          	slli	ra,t5,0x15
80003fc0:	03457a63          	bgeu	a0,s4,80003ff4 <sub_3+0x148>
80003fc4:	bce1a693          	slti	a3,gp,-1074
80003fc8:	015f1093          	slli	ra,t5,0x15
80003fcc:	023b4063          	blt	s6,gp,80003fec <sub_3+0x140>
80003fd0:	00406333          	or	t1,zero,tp
80003fd4:	006410b3          	sll	ra,s0,t1
80003fd8:	20648893          	addi	a7,s1,518
80003fdc:	5dff4793          	xori	a5,t5,1503
80003fe0:	008c8c63          	beq	s9,s0,80003ff8 <sub_3+0x14c>
80003fe4:	1d860217          	auipc	tp,0x1d860
80003fe8:	40ed8c33          	sub	s8,s11,a4
80003fec:	0033c233          	xor	tp,t2,gp
80003ff0:	015ad993          	srli	s3,s5,0x15
80003ff4:	4cb37c13          	andi	s8,t1,1227
80003ff8:	409a5633          	sra	a2,s4,s1
80003ffc:	409a5633          	sra	a2,s4,s1
80004000:	0000100f          	fence.i
80004004:	20648893          	addi	a7,s1,518
80004008:	03d2d263          	bge	t0,t4,8000402c <sub_3+0x180>
8000400c:	03d2d263          	bge	t0,t4,80004030 <sub_3+0x184>
80004010:	0000100f          	fence.i
80004014:	015ad993          	srli	s3,s5,0x15
80004018:	5dff4793          	xori	a5,t5,1503
8000401c:	5dff4793          	xori	a5,t5,1503
80004020:	00406333          	or	t1,zero,tp
80004024:	01c4dbb3          	srl	s7,s1,t3
80004028:	00ee3233          	sltu	tp,t3,a4
8000402c:	1d860217          	auipc	tp,0x1d860
80004030:	03d2d263          	bge	t0,t4,80004054 <sub_3+0x1a8>
80004034:	fb4ee413          	ori	s0,t4,-76
80004038:	5dff4793          	xori	a5,t5,1503
8000403c:	01bef5b3          	and	a1,t4,s11
80004040:	0033c233          	xor	tp,t2,gp
80004044:	01c4dbb3          	srl	s7,s1,t3
80004048:	05457263          	bgeu	a0,s4,8000408c <sub_3+0x1e0>
8000404c:	20648893          	addi	a7,s1,518
80004050:	015f1093          	slli	ra,t5,0x15
80004054:	00000013          	nop
80004058:	03a0e863          	bltu	ra,s10,80004088 <sub_3+0x1dc>
8000405c:	4cb37c13          	andi	s8,t1,1227
80004060:	1d860217          	auipc	tp,0x1d860
80004064:	05d2d063          	bge	t0,t4,800040a4 <sub_3+0x1f8>
80004068:	01457263          	bgeu	a0,s4,8000406c <sub_3+0x1c0>
8000406c:	b35a3893          	sltiu	a7,s4,-1227
80004070:	01bef5b3          	and	a1,t4,s11
80004074:	1d860217          	auipc	tp,0x1d860
80004078:	01c4dbb3          	srl	s7,s1,t3
8000407c:	006410b3          	sll	ra,s0,t1
80004080:	01c4dbb3          	srl	s7,s1,t3
80004084:	01bef5b3          	and	a1,t4,s11
80004088:	00ee3233          	sltu	tp,t3,a4
8000408c:	bce1a693          	slti	a3,gp,-1074
80004090:	0ff0000f          	fence
80004094:	5dff4793          	xori	a5,t5,1503
80004098:	cc92a0b7          	lui	ra,0xcc92a
8000409c:	00406333          	or	t1,zero,tp
800040a0:	00000013          	nop
800040a4:	00406333          	or	t1,zero,tp
800040a8:	015ad993          	srli	s3,s5,0x15
800040ac:	b35a3893          	sltiu	a7,s4,-1227
800040b0:	00406333          	or	t1,zero,tp
800040b4:	015ad993          	srli	s3,s5,0x15
800040b8:	00000013          	nop
800040bc:	01c4dbb3          	srl	s7,s1,t3
800040c0:	fb4ee413          	ori	s0,t4,-76
800040c4:	05457063          	bgeu	a0,s4,80004104 <sub_3+0x258>
800040c8:	20648893          	addi	a7,s1,518
800040cc:	409a5633          	sra	a2,s4,s1
800040d0:	00ee3233          	sltu	tp,t3,a4
800040d4:	00406333          	or	t1,zero,tp
800040d8:	0000100f          	fence.i
800040dc:	40ed8c33          	sub	s8,s11,a4
800040e0:	023b4c63          	blt	s6,gp,80004118 <sub_3+0x26c>
800040e4:	00ee3233          	sltu	tp,t3,a4
800040e8:	bce1a693          	slti	a3,gp,-1074
800040ec:	015ad993          	srli	s3,s5,0x15
800040f0:	0033c233          	xor	tp,t2,gp
800040f4:	fb4ee413          	ori	s0,t4,-76
800040f8:	028c8863          	beq	s9,s0,80004128 <sub_3+0x27c>
800040fc:	023b4a63          	blt	s6,gp,80004130 <sub_3+0x284>
80004100:	000706b3          	add	a3,a4,zero
80004104:	fb4ee413          	ori	s0,t4,-76
80004108:	cc92a0b7          	lui	ra,0xcc92a
8000410c:	006410b3          	sll	ra,s0,t1
80004110:	03457063          	bgeu	a0,s4,80004130 <sub_3+0x284>
80004114:	015ad993          	srli	s3,s5,0x15
80004118:	00406333          	or	t1,zero,tp
8000411c:	038d1a63          	bne	s10,s8,80004150 <sub_3+0x2a4>
80004120:	015ad993          	srli	s3,s5,0x15
80004124:	008c8a63          	beq	s9,s0,80004138 <sub_3+0x28c>
80004128:	023b4263          	blt	s6,gp,8000414c <sub_3+0x2a0>
8000412c:	bce1a693          	slti	a3,gp,-1074
80004130:	00ee3233          	sltu	tp,t3,a4
80004134:	01bef5b3          	and	a1,t4,s11
80004138:	cc92a0b7          	lui	ra,0xcc92a
8000413c:	008c8e63          	beq	s9,s0,80004158 <sub_3+0x2ac>
80004140:	01c4dbb3          	srl	s7,s1,t3
80004144:	000706b3          	add	a3,a4,zero
80004148:	01c4dbb3          	srl	s7,s1,t3
8000414c:	00000013          	nop
80004150:	00406333          	or	t1,zero,tp
80004154:	01a0e263          	bltu	ra,s10,80004158 <sub_3+0x2ac>
80004158:	cc92a0b7          	lui	ra,0xcc92a
8000415c:	40ed8c33          	sub	s8,s11,a4
80004160:	03457863          	bgeu	a0,s4,80004190 <sub_3+0x2e4>
80004164:	0000100f          	fence.i
80004168:	048c8263          	beq	s9,s0,800041ac <sub_3+0x300>
8000416c:	01bef5b3          	and	a1,t4,s11
80004170:	01c4dbb3          	srl	s7,s1,t3
80004174:	00000013          	nop
80004178:	1d860217          	auipc	tp,0x1d860
8000417c:	0033c233          	xor	tp,t2,gp
80004180:	058d1063          	bne	s10,s8,800041c0 <sub_3+0x314>
80004184:	00000013          	nop
80004188:	01457263          	bgeu	a0,s4,8000418c <sub_3+0x2e0>
8000418c:	b35a3893          	sltiu	a7,s4,-1227
80004190:	03d2d263          	bge	t0,t4,800041b4 <sub_3+0x308>
80004194:	b35a3893          	sltiu	a7,s4,-1227
80004198:	0ff0000f          	fence
8000419c:	bce1a693          	slti	a3,gp,-1074
800041a0:	0000100f          	fence.i
800041a4:	00000013          	nop
800041a8:	000706b3          	add	a3,a4,zero
800041ac:	01d2da63          	bge	t0,t4,800041c0 <sub_3+0x314>
800041b0:	015ad993          	srli	s3,s5,0x15
800041b4:	b35a3893          	sltiu	a7,s4,-1227
800041b8:	bce1a693          	slti	a3,gp,-1074
800041bc:	01bef5b3          	and	a1,t4,s11
800041c0:	0033c233          	xor	tp,t2,gp
800041c4:	00ee3233          	sltu	tp,t3,a4
800041c8:	4cb37c13          	andi	s8,t1,1227
800041cc:	0000100f          	fence.i
800041d0:	000706b3          	add	a3,a4,zero
800041d4:	5dff4793          	xori	a5,t5,1503
800041d8:	1d860217          	auipc	tp,0x1d860
800041dc:	01bef5b3          	and	a1,t4,s11
800041e0:	00406333          	or	t1,zero,tp
800041e4:	01d2d263          	bge	t0,t4,800041e8 <sub_3+0x33c>
800041e8:	03457263          	bgeu	a0,s4,8000420c <sub_3+0x360>
800041ec:	018d1e63          	bne	s10,s8,80004208 <sub_3+0x35c>
800041f0:	00406333          	or	t1,zero,tp
800041f4:	058d1663          	bne	s10,s8,80004240 <sub_3+0x394>
800041f8:	00406333          	or	t1,zero,tp
800041fc:	409a5633          	sra	a2,s4,s1
80004200:	01d2dc63          	bge	t0,t4,80004218 <sub_3+0x36c>
80004204:	0033c233          	xor	tp,t2,gp
80004208:	01c4dbb3          	srl	s7,s1,t3
8000420c:	4111dd93          	srai	s11,gp,0x11
80004210:	018d1663          	bne	s10,s8,8000421c <sub_3+0x370>
80004214:	00000013          	nop
80004218:	01457263          	bgeu	a0,s4,8000421c <sub_3+0x370>
8000421c:	023b4863          	blt	s6,gp,8000424c <sub_3+0x3a0>
80004220:	40ed8c33          	sub	s8,s11,a4
80004224:	1d860217          	auipc	tp,0x1d860
80004228:	03a0e863          	bltu	ra,s10,80004258 <sub_3+0x3ac>
8000422c:	0033c233          	xor	tp,t2,gp
80004230:	05457063          	bgeu	a0,s4,80004270 <sub_3+0x3c4>
80004234:	01c4dbb3          	srl	s7,s1,t3
80004238:	0ff0000f          	fence
8000423c:	bce1a693          	slti	a3,gp,-1074
80004240:	bce1a693          	slti	a3,gp,-1074
80004244:	00000013          	nop
80004248:	0033c233          	xor	tp,t2,gp
8000424c:	023b4463          	blt	s6,gp,80004274 <sub_3+0x3c8>
80004250:	01bef5b3          	and	a1,t4,s11
80004254:	00cea633          	slt	a2,t4,a2
80004258:	000706b3          	add	a3,a4,zero
8000425c:	03457063          	bgeu	a0,s4,8000427c <sub_3+0x3d0>
80004260:	00000013          	nop
80004264:	00000013          	nop
80004268:	bce1a693          	slti	a3,gp,-1074
8000426c:	20648893          	addi	a7,s1,518
80004270:	038d1463          	bne	s10,s8,80004298 <sub_3+0x3ec>
80004274:	0ff0000f          	fence
80004278:	03a0e863          	bltu	ra,s10,800042a8 <sub_3+0x3fc>
8000427c:	023b4c63          	blt	s6,gp,800042b4 <sub_3+0x408>
80004280:	fb4ee413          	ori	s0,t4,-76
80004284:	00cea633          	slt	a2,t4,a2
80004288:	4111dd93          	srai	s11,gp,0x11
8000428c:	40ed8c33          	sub	s8,s11,a4
80004290:	003b4263          	blt	s6,gp,80004294 <sub_3+0x3e8>
80004294:	0ff0000f          	fence
80004298:	006410b3          	sll	ra,s0,t1
8000429c:	20648893          	addi	a7,s1,518
800042a0:	000706b3          	add	a3,a4,zero
800042a4:	015ad993          	srli	s3,s5,0x15
800042a8:	b35a3893          	sltiu	a7,s4,-1227
800042ac:	fb4ee413          	ori	s0,t4,-76
800042b0:	b35a3893          	sltiu	a7,s4,-1227
800042b4:	cc92a0b7          	lui	ra,0xcc92a
800042b8:	00406333          	or	t1,zero,tp
800042bc:	bce1a693          	slti	a3,gp,-1074
800042c0:	006410b3          	sll	ra,s0,t1
800042c4:	00406333          	or	t1,zero,tp
800042c8:	1d860217          	auipc	tp,0x1d860
800042cc:	5dff4793          	xori	a5,t5,1503
800042d0:	03a0e263          	bltu	ra,s10,800042f4 <sub_3+0x448>
800042d4:	00000013          	nop
800042d8:	4cb37c13          	andi	s8,t1,1227
800042dc:	cc92a0b7          	lui	ra,0xcc92a
800042e0:	015f1093          	slli	ra,t5,0x15
800042e4:	006410b3          	sll	ra,s0,t1
800042e8:	03a0e463          	bltu	ra,s10,80004310 <sub_3+0x464>
800042ec:	038d1063          	bne	s10,s8,8000430c <sub_3+0x460>
800042f0:	4cb37c13          	andi	s8,t1,1227
800042f4:	409a5633          	sra	a2,s4,s1
800042f8:	03457063          	bgeu	a0,s4,80004318 <sub_3+0x46c>
800042fc:	b35a3893          	sltiu	a7,s4,-1227
80004300:	409a5633          	sra	a2,s4,s1
80004304:	0ff0000f          	fence
80004308:	00000013          	nop
8000430c:	0000100f          	fence.i
80004310:	409a5633          	sra	a2,s4,s1
80004314:	5dff4793          	xori	a5,t5,1503
80004318:	b35a3893          	sltiu	a7,s4,-1227
8000431c:	028c8463          	beq	s9,s0,80004344 <sub_3+0x498>
80004320:	015ad993          	srli	s3,s5,0x15
80004324:	015f1093          	slli	ra,t5,0x15
80004328:	05457663          	bgeu	a0,s4,80004374 <sub_3+0x4c8>
8000432c:	20648893          	addi	a7,s1,518
80004330:	0000100f          	fence.i
80004334:	bce1a693          	slti	a3,gp,-1074
80004338:	00cea633          	slt	a2,t4,a2
8000433c:	1d860217          	auipc	tp,0x1d860
80004340:	00cea633          	slt	a2,t4,a2
80004344:	01d2da63          	bge	t0,t4,80004358 <sub_3+0x4ac>
80004348:	409a5633          	sra	a2,s4,s1
8000434c:	028c8863          	beq	s9,s0,8000437c <sub_3+0x4d0>
80004350:	018d1c63          	bne	s10,s8,80004368 <sub_3+0x4bc>
80004354:	01457263          	bgeu	a0,s4,80004358 <sub_3+0x4ac>
80004358:	20648893          	addi	a7,s1,518
8000435c:	023b4863          	blt	s6,gp,8000438c <sub_3+0x4e0>
80004360:	40ed8c33          	sub	s8,s11,a4
80004364:	0ff0000f          	fence
80004368:	0ff0000f          	fence
8000436c:	0033c233          	xor	tp,t2,gp
80004370:	4111dd93          	srai	s11,gp,0x11
80004374:	00cea633          	slt	a2,t4,a2
80004378:	018d1263          	bne	s10,s8,8000437c <sub_3+0x4d0>
8000437c:	fb4ee413          	ori	s0,t4,-76
80004380:	00406333          	or	t1,zero,tp
80004384:	0033c233          	xor	tp,t2,gp
80004388:	4111dd93          	srai	s11,gp,0x11
8000438c:	015ad993          	srli	s3,s5,0x15
80004390:	043b4063          	blt	s6,gp,800043d0 <sub_3+0x524>
80004394:	4111dd93          	srai	s11,gp,0x11
80004398:	00406333          	or	t1,zero,tp
8000439c:	5dff4793          	xori	a5,t5,1503
800043a0:	00406333          	or	t1,zero,tp
800043a4:	bce1a693          	slti	a3,gp,-1074
800043a8:	0000100f          	fence.i
800043ac:	003b4e63          	blt	s6,gp,800043c8 <sub_3+0x51c>
800043b0:	0000100f          	fence.i
800043b4:	03d2da63          	bge	t0,t4,800043e8 <sub_3+0x53c>
800043b8:	20648893          	addi	a7,s1,518
800043bc:	000706b3          	add	a3,a4,zero
800043c0:	03a0e863          	bltu	ra,s10,800043f0 <sub_3+0x544>
800043c4:	b35a3893          	sltiu	a7,s4,-1227
800043c8:	409a5633          	sra	a2,s4,s1
800043cc:	015ad993          	srli	s3,s5,0x15
800043d0:	03457863          	bgeu	a0,s4,80004400 <sub_3+0x554>
800043d4:	20648893          	addi	a7,s1,518
800043d8:	01bef5b3          	and	a1,t4,s11
800043dc:	008c8e63          	beq	s9,s0,800043f8 <sub_3+0x54c>
800043e0:	008c8263          	beq	s9,s0,800043e4 <sub_3+0x538>
800043e4:	fb4ee413          	ori	s0,t4,-76
800043e8:	01bef5b3          	and	a1,t4,s11
800043ec:	05457263          	bgeu	a0,s4,80004430 <sub_3+0x584>
800043f0:	03457263          	bgeu	a0,s4,80004414 <sub_3+0x568>
800043f4:	0033c233          	xor	tp,t2,gp
800043f8:	20648893          	addi	a7,s1,518
800043fc:	fb4ee413          	ori	s0,t4,-76
80004400:	1d860217          	auipc	tp,0x1d860
80004404:	4111dd93          	srai	s11,gp,0x11
80004408:	0033c233          	xor	tp,t2,gp
8000440c:	03457263          	bgeu	a0,s4,80004430 <sub_3+0x584>
80004410:	015ad993          	srli	s3,s5,0x15
80004414:	00ee3233          	sltu	tp,t3,a4
80004418:	1d860217          	auipc	tp,0x1d860
8000441c:	01d2da63          	bge	t0,t4,80004430 <sub_3+0x584>
80004420:	4111dd93          	srai	s11,gp,0x11
80004424:	03d2da63          	bge	t0,t4,80004458 <sub_3+0x5ac>
80004428:	bce1a693          	slti	a3,gp,-1074
8000442c:	01bef5b3          	and	a1,t4,s11
80004430:	1d860217          	auipc	tp,0x1d860
80004434:	4cb37c13          	andi	s8,t1,1227
80004438:	05457063          	bgeu	a0,s4,80004478 <sub_3+0x5cc>
8000443c:	fb4ee413          	ori	s0,t4,-76
80004440:	0033c233          	xor	tp,t2,gp
80004444:	0033c233          	xor	tp,t2,gp
80004448:	00cea633          	slt	a2,t4,a2
8000444c:	cc92a0b7          	lui	ra,0xcc92a
80004450:	bce1a693          	slti	a3,gp,-1074
80004454:	00000013          	nop
80004458:	bce1a693          	slti	a3,gp,-1074
8000445c:	01bef5b3          	and	a1,t4,s11
80004460:	00cea633          	slt	a2,t4,a2
80004464:	028c8863          	beq	s9,s0,80004494 <sub_3+0x5e8>
80004468:	00cea633          	slt	a2,t4,a2
8000446c:	bce1a693          	slti	a3,gp,-1074
80004470:	409a5633          	sra	a2,s4,s1
80004474:	006410b3          	sll	ra,s0,t1
80004478:	015f1093          	slli	ra,t5,0x15
8000447c:	058d1063          	bne	s10,s8,800044bc <sub_3+0x610>
80004480:	cc92a0b7          	lui	ra,0xcc92a
80004484:	006410b3          	sll	ra,s0,t1
80004488:	5dff4793          	xori	a5,t5,1503
8000448c:	000706b3          	add	a3,a4,zero
80004490:	015f1093          	slli	ra,t5,0x15
80004494:	008c8663          	beq	s9,s0,800044a0 <sub_3+0x5f4>
80004498:	4cb37c13          	andi	s8,t1,1227
8000449c:	03a0e863          	bltu	ra,s10,800044cc <sub_3+0x620>
800044a0:	00ee3233          	sltu	tp,t3,a4
800044a4:	01c4dbb3          	srl	s7,s1,t3
800044a8:	003b4663          	blt	s6,gp,800044b4 <sub_3+0x608>
800044ac:	018d1263          	bne	s10,s8,800044b0 <sub_3+0x604>
800044b0:	00000013          	nop
800044b4:	015ad993          	srli	s3,s5,0x15
800044b8:	00406333          	or	t1,zero,tp
800044bc:	0033c233          	xor	tp,t2,gp
800044c0:	20648893          	addi	a7,s1,518
800044c4:	fb4ee413          	ori	s0,t4,-76
800044c8:	cc92a0b7          	lui	ra,0xcc92a
800044cc:	01c4dbb3          	srl	s7,s1,t3
800044d0:	00406333          	or	t1,zero,tp
800044d4:	0ff0000f          	fence
800044d8:	0ff0000f          	fence
800044dc:	01457263          	bgeu	a0,s4,800044e0 <sub_3+0x634>
800044e0:	bce1a693          	slti	a3,gp,-1074
800044e4:	03457063          	bgeu	a0,s4,80004504 <sub_3+0x658>
800044e8:	00406333          	or	t1,zero,tp
800044ec:	006410b3          	sll	ra,s0,t1
800044f0:	008c8263          	beq	s9,s0,800044f4 <sub_3+0x648>
800044f4:	01bef5b3          	and	a1,t4,s11
800044f8:	000706b3          	add	a3,a4,zero
800044fc:	fb4ee413          	ori	s0,t4,-76
80004500:	015f1093          	slli	ra,t5,0x15
80004504:	01d2d263          	bge	t0,t4,80004508 <sub_3+0x65c>
80004508:	000706b3          	add	a3,a4,zero
8000450c:	40ed8c33          	sub	s8,s11,a4
80004510:	000706b3          	add	a3,a4,zero
80004514:	000706b3          	add	a3,a4,zero
80004518:	fb4ee413          	ori	s0,t4,-76
8000451c:	03a0e463          	bltu	ra,s10,80004544 <sub_3+0x698>
80004520:	058d1063          	bne	s10,s8,80004560 <sub_3+0x6b4>
80004524:	cc92a0b7          	lui	ra,0xcc92a
80004528:	fb4ee413          	ori	s0,t4,-76
8000452c:	00000013          	nop
80004530:	006410b3          	sll	ra,s0,t1
80004534:	00000013          	nop
80004538:	01d2de63          	bge	t0,t4,80004554 <sub_3+0x6a8>
8000453c:	0033c233          	xor	tp,t2,gp
80004540:	5dff4793          	xori	a5,t5,1503
80004544:	018d1c63          	bne	s10,s8,8000455c <sub_3+0x6b0>
80004548:	bce1a693          	slti	a3,gp,-1074
8000454c:	023b4463          	blt	s6,gp,80004574 <sub_3+0x6c8>
80004550:	00406333          	or	t1,zero,tp
80004554:	01c4dbb3          	srl	s7,s1,t3
80004558:	5dff4793          	xori	a5,t5,1503
8000455c:	4cb37c13          	andi	s8,t1,1227
80004560:	40ed8c33          	sub	s8,s11,a4
80004564:	00cea633          	slt	a2,t4,a2
80004568:	01a0ea63          	bltu	ra,s10,8000457c <sub_3+0x6d0>
8000456c:	000706b3          	add	a3,a4,zero
80004570:	00000013          	nop
80004574:	4cb37c13          	andi	s8,t1,1227
80004578:	00406333          	or	t1,zero,tp
8000457c:	028c8263          	beq	s9,s0,800045a0 <sub_3+0x6f4>
80004580:	20648893          	addi	a7,s1,518
80004584:	20648893          	addi	a7,s1,518
80004588:	bce1a693          	slti	a3,gp,-1074
8000458c:	4111dd93          	srai	s11,gp,0x11
80004590:	015f1093          	slli	ra,t5,0x15
80004594:	20648893          	addi	a7,s1,518
80004598:	048c8063          	beq	s9,s0,800045d8 <sub_3+0x72c>
8000459c:	5dff4793          	xori	a5,t5,1503
800045a0:	00cea633          	slt	a2,t4,a2
800045a4:	b35a3893          	sltiu	a7,s4,-1227
800045a8:	00406333          	or	t1,zero,tp
800045ac:	4111dd93          	srai	s11,gp,0x11
800045b0:	00406333          	or	t1,zero,tp
800045b4:	03a0ec63          	bltu	ra,s10,800045ec <sub_3+0x740>
800045b8:	4111dd93          	srai	s11,gp,0x11
800045bc:	1d860217          	auipc	tp,0x1d860
800045c0:	20648893          	addi	a7,s1,518
800045c4:	00406333          	or	t1,zero,tp
800045c8:	03d2da63          	bge	t0,t4,800045fc <sub_3+0x750>
800045cc:	00000013          	nop
800045d0:	038d1863          	bne	s10,s8,80004600 <sub_3+0x754>
800045d4:	048c8063          	beq	s9,s0,80004614 <sub_3+0x768>
800045d8:	00406333          	or	t1,zero,tp
800045dc:	5dff4793          	xori	a5,t5,1503
800045e0:	5dff4793          	xori	a5,t5,1503
800045e4:	05d2d263          	bge	t0,t4,80004628 <sub_3+0x77c>
800045e8:	015f1093          	slli	ra,t5,0x15
800045ec:	015f1093          	slli	ra,t5,0x15
800045f0:	4cb37c13          	andi	s8,t1,1227
800045f4:	b35a3893          	sltiu	a7,s4,-1227
800045f8:	038d1863          	bne	s10,s8,80004628 <sub_3+0x77c>
800045fc:	20648893          	addi	a7,s1,518
80004600:	006410b3          	sll	ra,s0,t1
80004604:	023b4863          	blt	s6,gp,80004634 <sub_3+0x788>
80004608:	00ee3233          	sltu	tp,t3,a4
8000460c:	01bef5b3          	and	a1,t4,s11
80004610:	015ad993          	srli	s3,s5,0x15
80004614:	023b4263          	blt	s6,gp,80004638 <sub_3+0x78c>
80004618:	1d860217          	auipc	tp,0x1d860
8000461c:	0033c233          	xor	tp,t2,gp
80004620:	0000100f          	fence.i
80004624:	fb4ee413          	ori	s0,t4,-76
80004628:	028c8a63          	beq	s9,s0,8000465c <sub_3+0x7b0>
8000462c:	bce1a693          	slti	a3,gp,-1074
80004630:	00ee3233          	sltu	tp,t3,a4
80004634:	01bef5b3          	and	a1,t4,s11
80004638:	058d1663          	bne	s10,s8,80004684 <sub_3+0x7d8>
8000463c:	5dff4793          	xori	a5,t5,1503
80004640:	0ff0000f          	fence
80004644:	4111dd93          	srai	s11,gp,0x11
80004648:	03d2d863          	bge	t0,t4,80004678 <sub_3+0x7cc>
8000464c:	003b4a63          	blt	s6,gp,80004660 <sub_3+0x7b4>
80004650:	01bef5b3          	and	a1,t4,s11
80004654:	20648893          	addi	a7,s1,518
80004658:	015f1093          	slli	ra,t5,0x15
8000465c:	20648893          	addi	a7,s1,518
80004660:	00cea633          	slt	a2,t4,a2
80004664:	000706b3          	add	a3,a4,zero
80004668:	006410b3          	sll	ra,s0,t1
8000466c:	cc92a0b7          	lui	ra,0xcc92a
80004670:	00000013          	nop
80004674:	00cea633          	slt	a2,t4,a2
80004678:	03457063          	bgeu	a0,s4,80004698 <sub_3+0x7ec>
8000467c:	00cea633          	slt	a2,t4,a2
80004680:	4cb37c13          	andi	s8,t1,1227
80004684:	018d1e63          	bne	s10,s8,800046a0 <sub_3+0x7f4>
80004688:	03a0e263          	bltu	ra,s10,800046ac <sub_3+0x800>
8000468c:	015f1093          	slli	ra,t5,0x15
80004690:	b35a3893          	sltiu	a7,s4,-1227
80004694:	058d1063          	bne	s10,s8,800046d4 <sub_3+0x828>
80004698:	028c8c63          	beq	s9,s0,800046d0 <sub_3+0x824>
8000469c:	028c8863          	beq	s9,s0,800046cc <sub_3+0x820>
800046a0:	00cea633          	slt	a2,t4,a2
800046a4:	1d860217          	auipc	tp,0x1d860
800046a8:	015ad993          	srli	s3,s5,0x15
800046ac:	bce1a693          	slti	a3,gp,-1074
800046b0:	01c4dbb3          	srl	s7,s1,t3
800046b4:	b35a3893          	sltiu	a7,s4,-1227
800046b8:	00ee3233          	sltu	tp,t3,a4
800046bc:	00cea633          	slt	a2,t4,a2
800046c0:	409a5633          	sra	a2,s4,s1
800046c4:	0ff0000f          	fence
800046c8:	0033c233          	xor	tp,t2,gp
800046cc:	0ff0000f          	fence
800046d0:	409a5633          	sra	a2,s4,s1
800046d4:	03d2d263          	bge	t0,t4,800046f8 <sub_3+0x84c>
800046d8:	015f1093          	slli	ra,t5,0x15
800046dc:	cc92a0b7          	lui	ra,0xcc92a
800046e0:	006410b3          	sll	ra,s0,t1
800046e4:	bce1a693          	slti	a3,gp,-1074
800046e8:	05a0e063          	bltu	ra,s10,80004728 <sub_3+0x87c>
800046ec:	01457663          	bgeu	a0,s4,800046f8 <sub_3+0x84c>
800046f0:	bce1a693          	slti	a3,gp,-1074
800046f4:	01d2de63          	bge	t0,t4,80004710 <sub_3+0x864>
800046f8:	00406333          	or	t1,zero,tp
800046fc:	00406333          	or	t1,zero,tp
80004700:	b35a3893          	sltiu	a7,s4,-1227
80004704:	0033c233          	xor	tp,t2,gp
80004708:	006410b3          	sll	ra,s0,t1
8000470c:	008c8263          	beq	s9,s0,80004710 <sub_3+0x864>
80004710:	01c4dbb3          	srl	s7,s1,t3
80004714:	028c8063          	beq	s9,s0,80004734 <sub_3+0x888>
80004718:	fb4ee413          	ori	s0,t4,-76
8000471c:	20648893          	addi	a7,s1,518
80004720:	00000013          	nop
80004724:	0ff0000f          	fence
80004728:	00000013          	nop
8000472c:	00000013          	nop
80004730:	05d2d063          	bge	t0,t4,80004770 <sub_3+0x8c4>
80004734:	03d2d463          	bge	t0,t4,8000475c <sub_3+0x8b0>
80004738:	01bef5b3          	and	a1,t4,s11
8000473c:	cc92a0b7          	lui	ra,0xcc92a
80004740:	01457e63          	bgeu	a0,s4,8000475c <sub_3+0x8b0>
80004744:	4cb37c13          	andi	s8,t1,1227
80004748:	00000013          	nop
8000474c:	5dff4793          	xori	a5,t5,1503
80004750:	023b4863          	blt	s6,gp,80004780 <sub_3+0x8d4>
80004754:	015ad993          	srli	s3,s5,0x15
80004758:	015ad993          	srli	s3,s5,0x15
8000475c:	bce1a693          	slti	a3,gp,-1074
80004760:	038d1a63          	bne	s10,s8,80004794 <sub_3+0x8e8>
80004764:	1d860217          	auipc	tp,0x1d860
80004768:	023b4863          	blt	s6,gp,80004798 <sub_3+0x8ec>
8000476c:	00406333          	or	t1,zero,tp
80004770:	01a0e263          	bltu	ra,s10,80004774 <sub_3+0x8c8>
80004774:	4cb37c13          	andi	s8,t1,1227
80004778:	4cb37c13          	andi	s8,t1,1227
8000477c:	01bef5b3          	and	a1,t4,s11
80004780:	03457263          	bgeu	a0,s4,800047a4 <sub_3+0x8f8>
80004784:	01c4dbb3          	srl	s7,s1,t3
80004788:	000706b3          	add	a3,a4,zero
8000478c:	cc92a0b7          	lui	ra,0xcc92a
80004790:	000706b3          	add	a3,a4,zero
80004794:	015f1093          	slli	ra,t5,0x15
80004798:	038d1263          	bne	s10,s8,800047bc <sub_3+0x910>
8000479c:	058d1263          	bne	s10,s8,800047e0 <sub_3+0x934>
800047a0:	1d860217          	auipc	tp,0x1d860
800047a4:	00ee3233          	sltu	tp,t3,a4
800047a8:	006410b3          	sll	ra,s0,t1
800047ac:	1d860217          	auipc	tp,0x1d860
800047b0:	008c8263          	beq	s9,s0,800047b4 <sub_3+0x908>
800047b4:	0000100f          	fence.i
800047b8:	bce1a693          	slti	a3,gp,-1074
800047bc:	fb4ee413          	ori	s0,t4,-76
800047c0:	01457a63          	bgeu	a0,s4,800047d4 <sub_3+0x928>
800047c4:	003b4a63          	blt	s6,gp,800047d8 <sub_3+0x92c>
800047c8:	000706b3          	add	a3,a4,zero
800047cc:	cc92a0b7          	lui	ra,0xcc92a
800047d0:	00406333          	or	t1,zero,tp
800047d4:	03457463          	bgeu	a0,s4,800047fc <sub_3+0x950>
800047d8:	cc92a0b7          	lui	ra,0xcc92a
800047dc:	000706b3          	add	a3,a4,zero
800047e0:	03457863          	bgeu	a0,s4,80004810 <sub_3+0x964>
800047e4:	05a0e663          	bltu	ra,s10,80004830 <sub_3+0x984>
800047e8:	bce1a693          	slti	a3,gp,-1074
800047ec:	4111dd93          	srai	s11,gp,0x11
800047f0:	fb4ee413          	ori	s0,t4,-76
800047f4:	4cb37c13          	andi	s8,t1,1227
800047f8:	20648893          	addi	a7,s1,518
800047fc:	03a0ea63          	bltu	ra,s10,80004830 <sub_3+0x984>
80004800:	000706b3          	add	a3,a4,zero
80004804:	40ed8c33          	sub	s8,s11,a4
80004808:	cc92a0b7          	lui	ra,0xcc92a
8000480c:	1d860217          	auipc	tp,0x1d860
80004810:	409a5633          	sra	a2,s4,s1
80004814:	409a5633          	sra	a2,s4,s1
80004818:	4111dd93          	srai	s11,gp,0x11
8000481c:	20648893          	addi	a7,s1,518
80004820:	4111dd93          	srai	s11,gp,0x11
80004824:	01d2dc63          	bge	t0,t4,8000483c <sub_3+0x990>
80004828:	409a5633          	sra	a2,s4,s1
8000482c:	0000100f          	fence.i
80004830:	038d1863          	bne	s10,s8,80004860 <sub_3+0x9b4>
80004834:	4111dd93          	srai	s11,gp,0x11
80004838:	5dff4793          	xori	a5,t5,1503
8000483c:	006410b3          	sll	ra,s0,t1
80004840:	00000013          	nop
80004844:	006410b3          	sll	ra,s0,t1
80004848:	00000013          	nop
8000484c:	01d2d263          	bge	t0,t4,80004850 <sub_3+0x9a4>
80004850:	03457063          	bgeu	a0,s4,80004870 <sub_3+0x9c4>
80004854:	4cb37c13          	andi	s8,t1,1227
80004858:	01457263          	bgeu	a0,s4,8000485c <sub_3+0x9b0>
8000485c:	015f1093          	slli	ra,t5,0x15
80004860:	00406333          	or	t1,zero,tp
80004864:	0033c233          	xor	tp,t2,gp
80004868:	4111dd93          	srai	s11,gp,0x11
8000486c:	015f1093          	slli	ra,t5,0x15
80004870:	03d2d863          	bge	t0,t4,800048a0 <sub_3+0x9f4>
80004874:	01bef5b3          	and	a1,t4,s11
80004878:	015ad993          	srli	s3,s5,0x15
8000487c:	015ad993          	srli	s3,s5,0x15
80004880:	01bef5b3          	and	a1,t4,s11
80004884:	00000013          	nop
80004888:	01c4dbb3          	srl	s7,s1,t3
8000488c:	4111dd93          	srai	s11,gp,0x11
80004890:	409a5633          	sra	a2,s4,s1
80004894:	008c8263          	beq	s9,s0,80004898 <sub_3+0x9ec>
80004898:	015f1093          	slli	ra,t5,0x15
8000489c:	03457863          	bgeu	a0,s4,800048cc <sub_3+0xa20>
800048a0:	fb4ee413          	ori	s0,t4,-76
800048a4:	fb4ee413          	ori	s0,t4,-76
800048a8:	03d2dc63          	bge	t0,t4,800048e0 <sub_3+0xa34>
800048ac:	bce1a693          	slti	a3,gp,-1074
800048b0:	bce1a693          	slti	a3,gp,-1074
800048b4:	01c4dbb3          	srl	s7,s1,t3
800048b8:	20648893          	addi	a7,s1,518
800048bc:	01457a63          	bgeu	a0,s4,800048d0 <sub_3+0xa24>
800048c0:	5dff4793          	xori	a5,t5,1503
800048c4:	03a0e463          	bltu	ra,s10,800048ec <sub_3+0xa40>
800048c8:	00000013          	nop
800048cc:	0ff0000f          	fence
800048d0:	cc92a0b7          	lui	ra,0xcc92a
800048d4:	023b4863          	blt	s6,gp,80004904 <sub_3+0xa58>
800048d8:	409a5633          	sra	a2,s4,s1
800048dc:	01bef5b3          	and	a1,t4,s11
800048e0:	00ee3233          	sltu	tp,t3,a4
800048e4:	bce1a693          	slti	a3,gp,-1074
800048e8:	00ee3233          	sltu	tp,t3,a4
800048ec:	cc92a0b7          	lui	ra,0xcc92a
800048f0:	0033c233          	xor	tp,t2,gp
800048f4:	40ed8c33          	sub	s8,s11,a4
800048f8:	0000100f          	fence.i
800048fc:	b35a3893          	sltiu	a7,s4,-1227
80004900:	00000013          	nop
80004904:	4111dd93          	srai	s11,gp,0x11
80004908:	cc92a0b7          	lui	ra,0xcc92a
8000490c:	4111dd93          	srai	s11,gp,0x11
80004910:	015ad993          	srli	s3,s5,0x15
80004914:	03457263          	bgeu	a0,s4,80004938 <sub_3+0xa8c>
80004918:	01bef5b3          	and	a1,t4,s11
8000491c:	00cea633          	slt	a2,t4,a2
80004920:	00406333          	or	t1,zero,tp
80004924:	4111dd93          	srai	s11,gp,0x11
80004928:	1d860217          	auipc	tp,0x1d860
8000492c:	015ad993          	srli	s3,s5,0x15
80004930:	0000100f          	fence.i
80004934:	00ee3233          	sltu	tp,t3,a4
80004938:	028c8a63          	beq	s9,s0,8000496c <sub_3+0xac0>
8000493c:	1d860217          	auipc	tp,0x1d860
80004940:	5dff4793          	xori	a5,t5,1503
80004944:	20648893          	addi	a7,s1,518
80004948:	03a0e263          	bltu	ra,s10,8000496c <sub_3+0xac0>
8000494c:	4111dd93          	srai	s11,gp,0x11
80004950:	01c4dbb3          	srl	s7,s1,t3
80004954:	008c8c63          	beq	s9,s0,8000496c <sub_3+0xac0>
80004958:	01c4dbb3          	srl	s7,s1,t3
8000495c:	409a5633          	sra	a2,s4,s1
80004960:	00ee3233          	sltu	tp,t3,a4
80004964:	0ff0000f          	fence
80004968:	03457063          	bgeu	a0,s4,80004988 <sub_3+0xadc>
8000496c:	03d2da63          	bge	t0,t4,800049a0 <sub_3+0xaf4>
80004970:	00ee3233          	sltu	tp,t3,a4
80004974:	043b4663          	blt	s6,gp,800049c0 <sub_3+0xb14>
80004978:	409a5633          	sra	a2,s4,s1
8000497c:	cc92a0b7          	lui	ra,0xcc92a
80004980:	03a0e863          	bltu	ra,s10,800049b0 <sub_3+0xb04>
80004984:	015f1093          	slli	ra,t5,0x15
80004988:	0033c233          	xor	tp,t2,gp
8000498c:	cc92a0b7          	lui	ra,0xcc92a
80004990:	0033c233          	xor	tp,t2,gp
80004994:	01c4dbb3          	srl	s7,s1,t3
80004998:	038d1063          	bne	s10,s8,800049b8 <sub_3+0xb0c>
8000499c:	00cea633          	slt	a2,t4,a2
800049a0:	0ff0000f          	fence
800049a4:	0033c233          	xor	tp,t2,gp
800049a8:	00ee3233          	sltu	tp,t3,a4
800049ac:	40ed8c33          	sub	s8,s11,a4
800049b0:	028c8263          	beq	s9,s0,800049d4 <sub_3+0xb28>
800049b4:	01d2de63          	bge	t0,t4,800049d0 <sub_3+0xb24>
800049b8:	00406333          	or	t1,zero,tp
800049bc:	01c4dbb3          	srl	s7,s1,t3
800049c0:	00000013          	nop
800049c4:	043b4063          	blt	s6,gp,80004a04 <sub_3+0xb58>
800049c8:	1d860217          	auipc	tp,0x1d860
800049cc:	01bef5b3          	and	a1,t4,s11
800049d0:	01bef5b3          	and	a1,t4,s11
800049d4:	0000100f          	fence.i
800049d8:	bce1a693          	slti	a3,gp,-1074
800049dc:	00000013          	nop
800049e0:	05a0e263          	bltu	ra,s10,80004a24 <sub_3+0xb78>
800049e4:	000706b3          	add	a3,a4,zero
800049e8:	006410b3          	sll	ra,s0,t1
800049ec:	018d1e63          	bne	s10,s8,80004a08 <sub_3+0xb5c>
800049f0:	5dff4793          	xori	a5,t5,1503
800049f4:	cc92a0b7          	lui	ra,0xcc92a
800049f8:	01457263          	bgeu	a0,s4,800049fc <sub_3+0xb50>
800049fc:	4111dd93          	srai	s11,gp,0x11
80004a00:	018d1663          	bne	s10,s8,80004a0c <sub_3+0xb60>
80004a04:	1d860217          	auipc	tp,0x1d860
80004a08:	01a0e263          	bltu	ra,s10,80004a0c <sub_3+0xb60>
80004a0c:	000706b3          	add	a3,a4,zero
80004a10:	015ad993          	srli	s3,s5,0x15
80004a14:	5dff4793          	xori	a5,t5,1503
80004a18:	0033c233          	xor	tp,t2,gp
80004a1c:	00000013          	nop
80004a20:	006410b3          	sll	ra,s0,t1
80004a24:	4111dd93          	srai	s11,gp,0x11
80004a28:	015f1093          	slli	ra,t5,0x15
80004a2c:	bce1a693          	slti	a3,gp,-1074
80004a30:	00000013          	nop
80004a34:	0000100f          	fence.i
80004a38:	409a5633          	sra	a2,s4,s1
80004a3c:	409a5633          	sra	a2,s4,s1
80004a40:	5dff4793          	xori	a5,t5,1503
80004a44:	5dff4793          	xori	a5,t5,1503
80004a48:	409a5633          	sra	a2,s4,s1
80004a4c:	00406333          	or	t1,zero,tp
80004a50:	00cea633          	slt	a2,t4,a2
80004a54:	5dff4793          	xori	a5,t5,1503
80004a58:	028c8463          	beq	s9,s0,80004a80 <sub_3+0xbd4>
80004a5c:	0000100f          	fence.i
80004a60:	b35a3893          	sltiu	a7,s4,-1227
80004a64:	0ff0000f          	fence
80004a68:	048c8063          	beq	s9,s0,80004aa8 <sub_3+0xbfc>
80004a6c:	cc92a0b7          	lui	ra,0xcc92a
80004a70:	5dff4793          	xori	a5,t5,1503
80004a74:	01bef5b3          	and	a1,t4,s11
80004a78:	015f1093          	slli	ra,t5,0x15
80004a7c:	01a0ea63          	bltu	ra,s10,80004a90 <sub_3+0xbe4>
80004a80:	006410b3          	sll	ra,s0,t1
80004a84:	05457063          	bgeu	a0,s4,80004ac4 <sub_3+0xc18>
80004a88:	015ad993          	srli	s3,s5,0x15
80004a8c:	000706b3          	add	a3,a4,zero
80004a90:	0ff0000f          	fence
80004a94:	015ad993          	srli	s3,s5,0x15
80004a98:	00ee3233          	sltu	tp,t3,a4
80004a9c:	0000100f          	fence.i
80004aa0:	015f1093          	slli	ra,t5,0x15
80004aa4:	cc92a0b7          	lui	ra,0xcc92a
80004aa8:	03d2d863          	bge	t0,t4,80004ad8 <sub_3+0xc2c>
80004aac:	01c4dbb3          	srl	s7,s1,t3
80004ab0:	01bef5b3          	and	a1,t4,s11
80004ab4:	20648893          	addi	a7,s1,518
80004ab8:	015f1093          	slli	ra,t5,0x15
80004abc:	bce1a693          	slti	a3,gp,-1074
80004ac0:	5dff4793          	xori	a5,t5,1503
80004ac4:	cc92a0b7          	lui	ra,0xcc92a
80004ac8:	fb4ee413          	ori	s0,t4,-76
80004acc:	5dff4793          	xori	a5,t5,1503
80004ad0:	00000013          	nop
80004ad4:	409a5633          	sra	a2,s4,s1
80004ad8:	fb4ee413          	ori	s0,t4,-76
80004adc:	00ee3233          	sltu	tp,t3,a4
80004ae0:	409a5633          	sra	a2,s4,s1
80004ae4:	015f1093          	slli	ra,t5,0x15
80004ae8:	00ee3233          	sltu	tp,t3,a4
80004aec:	028c8263          	beq	s9,s0,80004b10 <sub_3+0xc64>
80004af0:	015ad993          	srli	s3,s5,0x15
80004af4:	b35a3893          	sltiu	a7,s4,-1227
80004af8:	00406333          	or	t1,zero,tp
80004afc:	01bef5b3          	and	a1,t4,s11
80004b00:	00000013          	nop
80004b04:	00406333          	or	t1,zero,tp
80004b08:	4cb37c13          	andi	s8,t1,1227
80004b0c:	015ad993          	srli	s3,s5,0x15
80004b10:	000706b3          	add	a3,a4,zero
80004b14:	fb4ee413          	ori	s0,t4,-76
80004b18:	015ad993          	srli	s3,s5,0x15
80004b1c:	5dff4793          	xori	a5,t5,1503
80004b20:	0033c233          	xor	tp,t2,gp
80004b24:	006410b3          	sll	ra,s0,t1
80004b28:	20648893          	addi	a7,s1,518
80004b2c:	006410b3          	sll	ra,s0,t1
80004b30:	006410b3          	sll	ra,s0,t1
80004b34:	409a5633          	sra	a2,s4,s1
80004b38:	01bef5b3          	and	a1,t4,s11
80004b3c:	00406333          	or	t1,zero,tp
80004b40:	5dff4793          	xori	a5,t5,1503
80004b44:	0ff0000f          	fence
80004b48:	0033c233          	xor	tp,t2,gp
80004b4c:	1d860217          	auipc	tp,0x1d860
80004b50:	03d2dc63          	bge	t0,t4,80004b88 <sub_3+0xcdc>
80004b54:	0000100f          	fence.i
80004b58:	00cea633          	slt	a2,t4,a2
80004b5c:	409a5633          	sra	a2,s4,s1
80004b60:	03d2da63          	bge	t0,t4,80004b94 <sub_3+0xce8>
80004b64:	03a0e863          	bltu	ra,s10,80004b94 <sub_3+0xce8>
80004b68:	015f1093          	slli	ra,t5,0x15
80004b6c:	01c4dbb3          	srl	s7,s1,t3
80004b70:	01457263          	bgeu	a0,s4,80004b74 <sub_3+0xcc8>
80004b74:	4111dd93          	srai	s11,gp,0x11
80004b78:	bce1a693          	slti	a3,gp,-1074
80004b7c:	000706b3          	add	a3,a4,zero
80004b80:	05457063          	bgeu	a0,s4,80004bc0 <sub_3+0xd14>
80004b84:	038d1a63          	bne	s10,s8,80004bb8 <sub_3+0xd0c>
80004b88:	028c8863          	beq	s9,s0,80004bb8 <sub_3+0xd0c>
80004b8c:	01bef5b3          	and	a1,t4,s11
80004b90:	006410b3          	sll	ra,s0,t1
80004b94:	1d860217          	auipc	tp,0x1d860
80004b98:	000706b3          	add	a3,a4,zero
80004b9c:	03457463          	bgeu	a0,s4,80004bc4 <sub_3+0xd18>
80004ba0:	01c4dbb3          	srl	s7,s1,t3
80004ba4:	b35a3893          	sltiu	a7,s4,-1227
80004ba8:	cc92a0b7          	lui	ra,0xcc92a
80004bac:	00000013          	nop
80004bb0:	018d1263          	bne	s10,s8,80004bb4 <sub_3+0xd08>
80004bb4:	40ed8c33          	sub	s8,s11,a4
80004bb8:	01bef5b3          	and	a1,t4,s11
80004bbc:	006410b3          	sll	ra,s0,t1
80004bc0:	043b4263          	blt	s6,gp,80004c04 <sub_3+0xd58>
80004bc4:	5dff4793          	xori	a5,t5,1503
80004bc8:	5dff4793          	xori	a5,t5,1503
80004bcc:	023b4863          	blt	s6,gp,80004bfc <sub_3+0xd50>
80004bd0:	015ad993          	srli	s3,s5,0x15
80004bd4:	5dff4793          	xori	a5,t5,1503
80004bd8:	bce1a693          	slti	a3,gp,-1074
80004bdc:	20648893          	addi	a7,s1,518
80004be0:	01c4dbb3          	srl	s7,s1,t3
80004be4:	015f1093          	slli	ra,t5,0x15
80004be8:	0000100f          	fence.i
80004bec:	00406333          	or	t1,zero,tp
80004bf0:	028c8263          	beq	s9,s0,80004c14 <sub_3+0xd68>
80004bf4:	5dff4793          	xori	a5,t5,1503
80004bf8:	5dff4793          	xori	a5,t5,1503
80004bfc:	4cb37c13          	andi	s8,t1,1227
80004c00:	20648893          	addi	a7,s1,518
80004c04:	bce1a693          	slti	a3,gp,-1074
80004c08:	bce1a693          	slti	a3,gp,-1074
80004c0c:	015f1093          	slli	ra,t5,0x15
80004c10:	0ff0000f          	fence
80004c14:	01d2de63          	bge	t0,t4,80004c30 <sub_3+0xd84>
80004c18:	fb4ee413          	ori	s0,t4,-76
80004c1c:	00ee3233          	sltu	tp,t3,a4
80004c20:	20648893          	addi	a7,s1,518
80004c24:	015f1093          	slli	ra,t5,0x15
80004c28:	0000100f          	fence.i
80004c2c:	000706b3          	add	a3,a4,zero
80004c30:	cc92a0b7          	lui	ra,0xcc92a
80004c34:	00ee3233          	sltu	tp,t3,a4
80004c38:	01c4dbb3          	srl	s7,s1,t3
80004c3c:	00406333          	or	t1,zero,tp
80004c40:	20648893          	addi	a7,s1,518
80004c44:	40ed8c33          	sub	s8,s11,a4
80004c48:	01c4dbb3          	srl	s7,s1,t3
80004c4c:	03a0e263          	bltu	ra,s10,80004c70 <sub_3+0xdc4>
80004c50:	01c4dbb3          	srl	s7,s1,t3
80004c54:	03d2d863          	bge	t0,t4,80004c84 <sub_3+0xdd8>
80004c58:	03d2d063          	bge	t0,t4,80004c78 <sub_3+0xdcc>
80004c5c:	018d1263          	bne	s10,s8,80004c60 <sub_3+0xdb4>
80004c60:	409a5633          	sra	a2,s4,s1
80004c64:	000706b3          	add	a3,a4,zero
80004c68:	01c4dbb3          	srl	s7,s1,t3
80004c6c:	bce1a693          	slti	a3,gp,-1074
80004c70:	01c4dbb3          	srl	s7,s1,t3
80004c74:	00cea633          	slt	a2,t4,a2
80004c78:	038d1863          	bne	s10,s8,80004ca8 <sub_3+0xdfc>
80004c7c:	00ee3233          	sltu	tp,t3,a4
80004c80:	008c8a63          	beq	s9,s0,80004c94 <sub_3+0xde8>
80004c84:	01c4dbb3          	srl	s7,s1,t3
80004c88:	20648893          	addi	a7,s1,518
80004c8c:	5dff4793          	xori	a5,t5,1503
80004c90:	5dff4793          	xori	a5,t5,1503
80004c94:	20648893          	addi	a7,s1,518
80004c98:	5dff4793          	xori	a5,t5,1503
80004c9c:	00406333          	or	t1,zero,tp
80004ca0:	03457063          	bgeu	a0,s4,80004cc0 <sub_3+0xe14>
80004ca4:	fb4ee413          	ori	s0,t4,-76
80004ca8:	5dff4793          	xori	a5,t5,1503
80004cac:	5dff4793          	xori	a5,t5,1503
80004cb0:	bce1a693          	slti	a3,gp,-1074
80004cb4:	00406333          	or	t1,zero,tp
80004cb8:	4cb37c13          	andi	s8,t1,1227
80004cbc:	4111dd93          	srai	s11,gp,0x11
80004cc0:	00000013          	nop
80004cc4:	20648893          	addi	a7,s1,518
80004cc8:	00406333          	or	t1,zero,tp
80004ccc:	00406333          	or	t1,zero,tp
80004cd0:	bce1a693          	slti	a3,gp,-1074
80004cd4:	20648893          	addi	a7,s1,518
80004cd8:	015f1093          	slli	ra,t5,0x15
80004cdc:	000706b3          	add	a3,a4,zero
80004ce0:	5dff4793          	xori	a5,t5,1503
80004ce4:	01c4dbb3          	srl	s7,s1,t3
80004ce8:	01d2da63          	bge	t0,t4,80004cfc <sub_3+0xe50>
80004cec:	cc92a0b7          	lui	ra,0xcc92a
80004cf0:	03d2d463          	bge	t0,t4,80004d18 <sub_3+0xe6c>
80004cf4:	4111dd93          	srai	s11,gp,0x11
80004cf8:	00406333          	or	t1,zero,tp
80004cfc:	409a5633          	sra	a2,s4,s1
80004d00:	409a5633          	sra	a2,s4,s1
80004d04:	b35a3893          	sltiu	a7,s4,-1227
80004d08:	00ee3233          	sltu	tp,t3,a4
80004d0c:	b35a3893          	sltiu	a7,s4,-1227
80004d10:	015f1093          	slli	ra,t5,0x15
80004d14:	b35a3893          	sltiu	a7,s4,-1227
80004d18:	00cea633          	slt	a2,t4,a2
80004d1c:	fb4ee413          	ori	s0,t4,-76
80004d20:	00406333          	or	t1,zero,tp
80004d24:	fb4ee413          	ori	s0,t4,-76
80004d28:	015f1093          	slli	ra,t5,0x15
80004d2c:	b35a3893          	sltiu	a7,s4,-1227
80004d30:	cc92a0b7          	lui	ra,0xcc92a
80004d34:	01bef5b3          	and	a1,t4,s11
80004d38:	008c8c63          	beq	s9,s0,80004d50 <sub_3+0xea4>
80004d3c:	00cea633          	slt	a2,t4,a2
80004d40:	01d2d263          	bge	t0,t4,80004d44 <sub_3+0xe98>
80004d44:	00ee3233          	sltu	tp,t3,a4
80004d48:	fb4ee413          	ori	s0,t4,-76
80004d4c:	20648893          	addi	a7,s1,518
80004d50:	01c4dbb3          	srl	s7,s1,t3
80004d54:	4cb37c13          	andi	s8,t1,1227
80004d58:	01a0e663          	bltu	ra,s10,80004d64 <sub_3+0xeb8>
80004d5c:	05457063          	bgeu	a0,s4,80004d9c <sub_3+0xef0>
80004d60:	4cb37c13          	andi	s8,t1,1227
80004d64:	00ee3233          	sltu	tp,t3,a4
80004d68:	015ad993          	srli	s3,s5,0x15
80004d6c:	015f1093          	slli	ra,t5,0x15
80004d70:	048c8663          	beq	s9,s0,80004dbc <sub_3+0xf10>
80004d74:	409a5633          	sra	a2,s4,s1
80004d78:	05d2d063          	bge	t0,t4,80004db8 <sub_3+0xf0c>
80004d7c:	003b4e63          	blt	s6,gp,80004d98 <sub_3+0xeec>
80004d80:	409a5633          	sra	a2,s4,s1
80004d84:	01c4dbb3          	srl	s7,s1,t3
80004d88:	015f1093          	slli	ra,t5,0x15
80004d8c:	03a0e863          	bltu	ra,s10,80004dbc <sub_3+0xf10>
80004d90:	0000100f          	fence.i
80004d94:	00406333          	or	t1,zero,tp
80004d98:	01bef5b3          	and	a1,t4,s11
80004d9c:	01bef5b3          	and	a1,t4,s11
80004da0:	00406333          	or	t1,zero,tp
80004da4:	fb4ee413          	ori	s0,t4,-76
80004da8:	40ed8c33          	sub	s8,s11,a4
80004dac:	5dff4793          	xori	a5,t5,1503
80004db0:	00cea633          	slt	a2,t4,a2
80004db4:	03a0ea63          	bltu	ra,s10,80004de8 <sub_3+0xf3c>
80004db8:	409a5633          	sra	a2,s4,s1
80004dbc:	015ad993          	srli	s3,s5,0x15
80004dc0:	023b4263          	blt	s6,gp,80004de4 <sub_3+0xf38>
80004dc4:	028c8863          	beq	s9,s0,80004df4 <sub_3+0xf48>
80004dc8:	01457e63          	bgeu	a0,s4,80004de4 <sub_3+0xf38>
80004dcc:	015ad993          	srli	s3,s5,0x15
80004dd0:	5dff4793          	xori	a5,t5,1503
80004dd4:	1d860217          	auipc	tp,0x1d860
80004dd8:	fb4ee413          	ori	s0,t4,-76
80004ddc:	fb4ee413          	ori	s0,t4,-76
80004de0:	00000013          	nop
80004de4:	0033c233          	xor	tp,t2,gp
80004de8:	bce1a693          	slti	a3,gp,-1074
80004dec:	000706b3          	add	a3,a4,zero
80004df0:	00000013          	nop
80004df4:	006410b3          	sll	ra,s0,t1
80004df8:	0ff0000f          	fence
80004dfc:	00406333          	or	t1,zero,tp
80004e00:	b35a3893          	sltiu	a7,s4,-1227
80004e04:	0ff0000f          	fence
80004e08:	015f1093          	slli	ra,t5,0x15
80004e0c:	00cea633          	slt	a2,t4,a2
80004e10:	20648893          	addi	a7,s1,518
80004e14:	0033c233          	xor	tp,t2,gp
80004e18:	0000100f          	fence.i
80004e1c:	b35a3893          	sltiu	a7,s4,-1227
80004e20:	0ff0000f          	fence
80004e24:	01457263          	bgeu	a0,s4,80004e28 <sub_3+0xf7c>
80004e28:	006410b3          	sll	ra,s0,t1
80004e2c:	5dff4793          	xori	a5,t5,1503
80004e30:	01a0e263          	bltu	ra,s10,80004e34 <sub_3+0xf88>
80004e34:	015ad993          	srli	s3,s5,0x15
80004e38:	0ff0000f          	fence
80004e3c:	015ad993          	srli	s3,s5,0x15
80004e40:	0ff0000f          	fence
80004e44:	1d860217          	auipc	tp,0x1d860
80004e48:	1d860217          	auipc	tp,0x1d860
80004e4c:	015f1093          	slli	ra,t5,0x15
80004e50:	023b4063          	blt	s6,gp,80004e70 <sub_3+0xfc4>
80004e54:	043b4063          	blt	s6,gp,80004e94 <sub_3+0xfe8>
80004e58:	1d860217          	auipc	tp,0x1d860
80004e5c:	409a5633          	sra	a2,s4,s1
80004e60:	03a0e263          	bltu	ra,s10,80004e84 <sub_3+0xfd8>
80004e64:	015ad993          	srli	s3,s5,0x15
80004e68:	015ad993          	srli	s3,s5,0x15
80004e6c:	000706b3          	add	a3,a4,zero
80004e70:	01bef5b3          	and	a1,t4,s11
80004e74:	b35a3893          	sltiu	a7,s4,-1227
80004e78:	043b4263          	blt	s6,gp,80004ebc <sub_3+0x1010>
80004e7c:	000706b3          	add	a3,a4,zero
80004e80:	0ff0000f          	fence
80004e84:	006410b3          	sll	ra,s0,t1
80004e88:	5dff4793          	xori	a5,t5,1503
80004e8c:	0033c233          	xor	tp,t2,gp
80004e90:	0000100f          	fence.i
80004e94:	fb4ee413          	ori	s0,t4,-76
80004e98:	023b4863          	blt	s6,gp,80004ec8 <sub_3+0x101c>
80004e9c:	1d860217          	auipc	tp,0x1d860
80004ea0:	000706b3          	add	a3,a4,zero
80004ea4:	cc92a0b7          	lui	ra,0xcc92a
80004ea8:	00000013          	nop
80004eac:	015ad993          	srli	s3,s5,0x15
80004eb0:	cc92a0b7          	lui	ra,0xcc92a
80004eb4:	00cea633          	slt	a2,t4,a2
80004eb8:	003b4263          	blt	s6,gp,80004ebc <sub_3+0x1010>
80004ebc:	063b4863          	blt	s6,gp,80004f2c <sub_3_j5+0x14>
80004ec0:	4111dd93          	srai	s11,gp,0x11
80004ec4:	0000100f          	fence.i
80004ec8:	0033c233          	xor	tp,t2,gp
80004ecc:	4111dd93          	srai	s11,gp,0x11
80004ed0:	043b4a63          	blt	s6,gp,80004f24 <sub_3_j5+0xc>
80004ed4:	20648893          	addi	a7,s1,518
80004ed8:	cc92a0b7          	lui	ra,0xcc92a
80004edc:	043b4e63          	blt	s6,gp,80004f38 <sub_3_j5+0x20>
80004ee0:	1d860217          	auipc	tp,0x1d860
80004ee4:	00406333          	or	t1,zero,tp
80004ee8:	cc92a0b7          	lui	ra,0xcc92a
80004eec:	40ed8c33          	sub	s8,s11,a4
80004ef0:	038d1c63          	bne	s10,s8,80004f28 <sub_3_j5+0x10>
80004ef4:	0033c233          	xor	tp,t2,gp
80004ef8:	20648913          	addi	s2,s1,518
80004efc:	cc92a0b7          	lui	ra,0xcc92a
80004f00:	20648913          	addi	s2,s1,518
80004f04:	0ff0000f          	fence
80004f08:	bce1a693          	slti	a3,gp,-1074
80004f0c:	00ee3233          	sltu	tp,t3,a4
80004f10:	000706b3          	add	a3,a4,zero
80004f14:	015f1093          	slli	ra,t5,0x15

80004f18 <sub_3_j5>:
80004f18:	27902fef          	jal	t6,80007990 <sub_5>
80004f1c:	cc92a0b7          	lui	ra,0xcc92a
80004f20:	409a5633          	sra	a2,s4,s1
80004f24:	40ed8c33          	sub	s8,s11,a4
80004f28:	015f1093          	slli	ra,t5,0x15
80004f2c:	0000100f          	fence.i
80004f30:	000706b3          	add	a3,a4,zero
80004f34:	023b4263          	blt	s6,gp,80004f58 <sub_3_j5+0x40>
80004f38:	01a0ec63          	bltu	ra,s10,80004f50 <sub_3_j5+0x38>
80004f3c:	409a5633          	sra	a2,s4,s1
80004f40:	015f1093          	slli	ra,t5,0x15
80004f44:	409a5633          	sra	a2,s4,s1
80004f48:	cc92a0b7          	lui	ra,0xcc92a
80004f4c:	003b4e63          	blt	s6,gp,80004f68 <sub_3_j5+0x50>
80004f50:	006410b3          	sll	ra,s0,t1
80004f54:	015ad993          	srli	s3,s5,0x15
80004f58:	1d860217          	auipc	tp,0x1d860
80004f5c:	b35a3893          	sltiu	a7,s4,-1227
80004f60:	1d860217          	auipc	tp,0x1d860
80004f64:	1d860217          	auipc	tp,0x1d860
80004f68:	40ed8c33          	sub	s8,s11,a4
80004f6c:	409a5633          	sra	a2,s4,s1
80004f70:	01bef5b3          	and	a1,t4,s11
80004f74:	000706b3          	add	a3,a4,zero
80004f78:	015f1093          	slli	ra,t5,0x15
80004f7c:	cc92a0b7          	lui	ra,0xcc92a
80004f80:	03457a63          	bgeu	a0,s4,80004fb4 <sub_3_j5+0x9c>
80004f84:	0000100f          	fence.i
80004f88:	01c4dbb3          	srl	s7,s1,t3
80004f8c:	00cea633          	slt	a2,t4,a2
80004f90:	40ed8c33          	sub	s8,s11,a4
80004f94:	015ad993          	srli	s3,s5,0x15
80004f98:	4cb37c13          	andi	s8,t1,1227
80004f9c:	028c8063          	beq	s9,s0,80004fbc <sub_3_j5+0xa4>
80004fa0:	05a0e063          	bltu	ra,s10,80004fe0 <sub_3_j5+0xc8>
80004fa4:	4cb37c13          	andi	s8,t1,1227
80004fa8:	01bef5b3          	and	a1,t4,s11
80004fac:	01c4dbb3          	srl	s7,s1,t3
80004fb0:	1d860217          	auipc	tp,0x1d860
80004fb4:	4cb37c13          	andi	s8,t1,1227
80004fb8:	015f1093          	slli	ra,t5,0x15
80004fbc:	0000100f          	fence.i
80004fc0:	20648893          	addi	a7,s1,518
80004fc4:	00406333          	or	t1,zero,tp
80004fc8:	00000013          	nop
80004fcc:	01bef5b3          	and	a1,t4,s11
80004fd0:	05a0e063          	bltu	ra,s10,80005010 <sub_3_j5+0xf8>
80004fd4:	028c8863          	beq	s9,s0,80005004 <sub_3_j5+0xec>
80004fd8:	00ee3233          	sltu	tp,t3,a4
80004fdc:	01bef5b3          	and	a1,t4,s11
80004fe0:	028c8463          	beq	s9,s0,80005008 <sub_3_j5+0xf0>
80004fe4:	40ed8c33          	sub	s8,s11,a4
80004fe8:	000706b3          	add	a3,a4,zero
80004fec:	015ad993          	srli	s3,s5,0x15
80004ff0:	0000100f          	fence.i
80004ff4:	008c8263          	beq	s9,s0,80004ff8 <sub_3_j5+0xe0>
80004ff8:	0ff0000f          	fence
80004ffc:	023b4463          	blt	s6,gp,80005024 <sub_3_j5+0x10c>
80005000:	015ad993          	srli	s3,s5,0x15
80005004:	409a5633          	sra	a2,s4,s1
80005008:	015ad993          	srli	s3,s5,0x15
8000500c:	01bef5b3          	and	a1,t4,s11
80005010:	01bef5b3          	and	a1,t4,s11
80005014:	40ed8c33          	sub	s8,s11,a4
80005018:	b35a3893          	sltiu	a7,s4,-1227
8000501c:	003b4663          	blt	s6,gp,80005028 <sub_3_j5+0x110>
80005020:	4111dd93          	srai	s11,gp,0x11
80005024:	4cb37c13          	andi	s8,t1,1227
80005028:	5dff4793          	xori	a5,t5,1503
8000502c:	0033c233          	xor	tp,t2,gp
80005030:	01d2da63          	bge	t0,t4,80005044 <sub_3_j5+0x12c>
80005034:	4111dd93          	srai	s11,gp,0x11
80005038:	000706b3          	add	a3,a4,zero
8000503c:	008c8c63          	beq	s9,s0,80005054 <sub_3_j5+0x13c>
80005040:	006410b3          	sll	ra,s0,t1
80005044:	fb4ee413          	ori	s0,t4,-76
80005048:	409a5633          	sra	a2,s4,s1
8000504c:	03a0e263          	bltu	ra,s10,80005070 <sub_3_j5+0x158>
80005050:	4cb37c13          	andi	s8,t1,1227
80005054:	00000013          	nop
80005058:	bce1a693          	slti	a3,gp,-1074
8000505c:	b35a3893          	sltiu	a7,s4,-1227
80005060:	028c8863          	beq	s9,s0,80005090 <sub_3_j5+0x178>
80005064:	0000100f          	fence.i
80005068:	4cb37c13          	andi	s8,t1,1227
8000506c:	cc92a0b7          	lui	ra,0xcc92a
80005070:	0ff0000f          	fence
80005074:	0ff0000f          	fence
80005078:	b35a3893          	sltiu	a7,s4,-1227
8000507c:	00000013          	nop
80005080:	40ed8c33          	sub	s8,s11,a4
80005084:	b35a3893          	sltiu	a7,s4,-1227
80005088:	00406333          	or	t1,zero,tp
8000508c:	058d1663          	bne	s10,s8,800050d8 <sub_3_j5+0x1c0>
80005090:	01bef5b3          	and	a1,t4,s11
80005094:	0033c233          	xor	tp,t2,gp
80005098:	0033c233          	xor	tp,t2,gp
8000509c:	1d860217          	auipc	tp,0x1d860
800050a0:	000706b3          	add	a3,a4,zero
800050a4:	038d1463          	bne	s10,s8,800050cc <sub_3_j5+0x1b4>
800050a8:	00000013          	nop
800050ac:	00ee3233          	sltu	tp,t3,a4
800050b0:	00ee3233          	sltu	tp,t3,a4
800050b4:	00000013          	nop
800050b8:	015ad993          	srli	s3,s5,0x15
800050bc:	00406333          	or	t1,zero,tp
800050c0:	05a0e063          	bltu	ra,s10,80005100 <sub_3_j5+0x1e8>
800050c4:	01bef5b3          	and	a1,t4,s11
800050c8:	01bef5b3          	and	a1,t4,s11
800050cc:	00ee3233          	sltu	tp,t3,a4
800050d0:	5dff4793          	xori	a5,t5,1503
800050d4:	0ff0000f          	fence
800050d8:	00ee3233          	sltu	tp,t3,a4
800050dc:	01c4dbb3          	srl	s7,s1,t3
800050e0:	03457863          	bgeu	a0,s4,80005110 <sub_3_j5+0x1f8>
800050e4:	01c4dbb3          	srl	s7,s1,t3
800050e8:	cc92a0b7          	lui	ra,0xcc92a
800050ec:	0ff0000f          	fence
800050f0:	000706b3          	add	a3,a4,zero
800050f4:	cc92a0b7          	lui	ra,0xcc92a
800050f8:	fb4ee413          	ori	s0,t4,-76
800050fc:	409a5633          	sra	a2,s4,s1
80005100:	01d2d263          	bge	t0,t4,80005104 <sub_3_j5+0x1ec>
80005104:	4cb37c13          	andi	s8,t1,1227
80005108:	01c4dbb3          	srl	s7,s1,t3
8000510c:	048c8263          	beq	s9,s0,80005150 <sub_3_j5+0x238>
80005110:	b35a3893          	sltiu	a7,s4,-1227
80005114:	01457e63          	bgeu	a0,s4,80005130 <sub_3_j5+0x218>
80005118:	00cea633          	slt	a2,t4,a2
8000511c:	01c4dbb3          	srl	s7,s1,t3
80005120:	01c4dbb3          	srl	s7,s1,t3
80005124:	cc92a0b7          	lui	ra,0xcc92a
80005128:	409a5633          	sra	a2,s4,s1
8000512c:	5dff4793          	xori	a5,t5,1503
80005130:	b35a3893          	sltiu	a7,s4,-1227
80005134:	0000100f          	fence.i
80005138:	20648893          	addi	a7,s1,518
8000513c:	01c4dbb3          	srl	s7,s1,t3
80005140:	00000013          	nop
80005144:	03d2d263          	bge	t0,t4,80005168 <sub_3_j5+0x250>
80005148:	00000013          	nop
8000514c:	00cea633          	slt	a2,t4,a2
80005150:	0033c233          	xor	tp,t2,gp
80005154:	0000100f          	fence.i
80005158:	cc92a0b7          	lui	ra,0xcc92a
8000515c:	0033c233          	xor	tp,t2,gp
80005160:	20648893          	addi	a7,s1,518
80005164:	409a5633          	sra	a2,s4,s1
80005168:	4111dd93          	srai	s11,gp,0x11
8000516c:	015ad993          	srli	s3,s5,0x15
80005170:	0ff0000f          	fence
80005174:	40ed8c33          	sub	s8,s11,a4
80005178:	1d860217          	auipc	tp,0x1d860
8000517c:	006410b3          	sll	ra,s0,t1
80005180:	006410b3          	sll	ra,s0,t1
80005184:	20648893          	addi	a7,s1,518
80005188:	b35a3893          	sltiu	a7,s4,-1227
8000518c:	40ed8c33          	sub	s8,s11,a4
80005190:	01a0e663          	bltu	ra,s10,8000519c <sub_3_j5+0x284>
80005194:	fb4ee413          	ori	s0,t4,-76
80005198:	00000013          	nop
8000519c:	03d2d063          	bge	t0,t4,800051bc <sub_3_j5+0x2a4>
800051a0:	006410b3          	sll	ra,s0,t1
800051a4:	00000013          	nop
800051a8:	b35a3893          	sltiu	a7,s4,-1227
800051ac:	01a0ea63          	bltu	ra,s10,800051c0 <sub_3_j5+0x2a8>
800051b0:	006410b3          	sll	ra,s0,t1
800051b4:	006410b3          	sll	ra,s0,t1
800051b8:	03457863          	bgeu	a0,s4,800051e8 <sub_3_j5+0x2d0>
800051bc:	003b4e63          	blt	s6,gp,800051d8 <sub_3_j5+0x2c0>
800051c0:	03457c63          	bgeu	a0,s4,800051f8 <sub_3_j5+0x2e0>
800051c4:	00ee3233          	sltu	tp,t3,a4
800051c8:	003b4263          	blt	s6,gp,800051cc <sub_3_j5+0x2b4>
800051cc:	05a0e063          	bltu	ra,s10,8000520c <sub_3_j5+0x2f4>
800051d0:	20648893          	addi	a7,s1,518
800051d4:	b35a3893          	sltiu	a7,s4,-1227
800051d8:	00406333          	or	t1,zero,tp
800051dc:	015f1093          	slli	ra,t5,0x15
800051e0:	015f1093          	slli	ra,t5,0x15
800051e4:	0033c233          	xor	tp,t2,gp
800051e8:	01c4dbb3          	srl	s7,s1,t3
800051ec:	409a5633          	sra	a2,s4,s1
800051f0:	4cb37c13          	andi	s8,t1,1227
800051f4:	b35a3893          	sltiu	a7,s4,-1227
800051f8:	01bef5b3          	and	a1,t4,s11
800051fc:	015ad993          	srli	s3,s5,0x15
80005200:	bce1a693          	slti	a3,gp,-1074
80005204:	1d860217          	auipc	tp,0x1d860
80005208:	40ed8c33          	sub	s8,s11,a4
8000520c:	bce1a693          	slti	a3,gp,-1074
80005210:	00ee3233          	sltu	tp,t3,a4
80005214:	01d2d263          	bge	t0,t4,80005218 <sub_3_j5+0x300>
80005218:	01bef5b3          	and	a1,t4,s11
8000521c:	0033c233          	xor	tp,t2,gp
80005220:	0033c233          	xor	tp,t2,gp
80005224:	028c8863          	beq	s9,s0,80005254 <sub_3_j5+0x33c>
80005228:	0ff0000f          	fence
8000522c:	fb4ee413          	ori	s0,t4,-76
80005230:	015ad993          	srli	s3,s5,0x15
80005234:	4111dd93          	srai	s11,gp,0x11
80005238:	048c8063          	beq	s9,s0,80005278 <sub_3_j5+0x360>
8000523c:	00cea633          	slt	a2,t4,a2
80005240:	b35a3893          	sltiu	a7,s4,-1227
80005244:	00ee3233          	sltu	tp,t3,a4
80005248:	0000100f          	fence.i
8000524c:	00406333          	or	t1,zero,tp
80005250:	cc92a0b7          	lui	ra,0xcc92a
80005254:	03457063          	bgeu	a0,s4,80005274 <sub_3_j5+0x35c>
80005258:	0033c233          	xor	tp,t2,gp
8000525c:	03457863          	bgeu	a0,s4,8000528c <sub_3_j5+0x374>
80005260:	cc92a0b7          	lui	ra,0xcc92a
80005264:	0ff0000f          	fence
80005268:	006410b3          	sll	ra,s0,t1
8000526c:	0000100f          	fence.i
80005270:	01c4dbb3          	srl	s7,s1,t3
80005274:	409a5633          	sra	a2,s4,s1
80005278:	03457a63          	bgeu	a0,s4,800052ac <sub_3_j5+0x394>
8000527c:	000706b3          	add	a3,a4,zero
80005280:	000706b3          	add	a3,a4,zero
80005284:	20648893          	addi	a7,s1,518
80005288:	008c8263          	beq	s9,s0,8000528c <sub_3_j5+0x374>
8000528c:	5dff4793          	xori	a5,t5,1503
80005290:	20648893          	addi	a7,s1,518
80005294:	006410b3          	sll	ra,s0,t1
80005298:	b35a3893          	sltiu	a7,s4,-1227
8000529c:	4cb37c13          	andi	s8,t1,1227
800052a0:	1d860217          	auipc	tp,0x1d860
800052a4:	00000013          	nop
800052a8:	5dff4793          	xori	a5,t5,1503
800052ac:	015f1093          	slli	ra,t5,0x15
800052b0:	4111dd93          	srai	s11,gp,0x11
800052b4:	01457a63          	bgeu	a0,s4,800052c8 <sub_3_j5+0x3b0>
800052b8:	006410b3          	sll	ra,s0,t1
800052bc:	023b4263          	blt	s6,gp,800052e0 <sub_3_j5+0x3c8>
800052c0:	000706b3          	add	a3,a4,zero
800052c4:	03a0e463          	bltu	ra,s10,800052ec <sub_3_j5+0x3d4>
800052c8:	038d1a63          	bne	s10,s8,800052fc <sub_3_j5+0x3e4>
800052cc:	00cea633          	slt	a2,t4,a2
800052d0:	01bef5b3          	and	a1,t4,s11
800052d4:	018d1e63          	bne	s10,s8,800052f0 <sub_3_j5+0x3d8>
800052d8:	bce1a693          	slti	a3,gp,-1074
800052dc:	00000013          	nop
800052e0:	0000100f          	fence.i
800052e4:	20648893          	addi	a7,s1,518
800052e8:	409a5633          	sra	a2,s4,s1
800052ec:	015f1093          	slli	ra,t5,0x15
800052f0:	01a0ec63          	bltu	ra,s10,80005308 <sub_3_j5+0x3f0>
800052f4:	bce1a693          	slti	a3,gp,-1074
800052f8:	20648893          	addi	a7,s1,518
800052fc:	006410b3          	sll	ra,s0,t1
80005300:	006410b3          	sll	ra,s0,t1
80005304:	bce1a693          	slti	a3,gp,-1074
80005308:	008c8263          	beq	s9,s0,8000530c <sub_3_j5+0x3f4>
8000530c:	40ed8c33          	sub	s8,s11,a4
80005310:	0ff0000f          	fence
80005314:	0033c233          	xor	tp,t2,gp
80005318:	023b4263          	blt	s6,gp,8000533c <sub_3_j5+0x424>
8000531c:	006410b3          	sll	ra,s0,t1
80005320:	015ad993          	srli	s3,s5,0x15
80005324:	409a5633          	sra	a2,s4,s1
80005328:	000706b3          	add	a3,a4,zero
8000532c:	0000100f          	fence.i
80005330:	000706b3          	add	a3,a4,zero
80005334:	015f1093          	slli	ra,t5,0x15
80005338:	0033c233          	xor	tp,t2,gp
8000533c:	01a0e663          	bltu	ra,s10,80005348 <sub_3_j5+0x430>
80005340:	038d1863          	bne	s10,s8,80005370 <sub_3_j5+0x458>
80005344:	03d2d463          	bge	t0,t4,8000536c <sub_3_j5+0x454>
80005348:	000706b3          	add	a3,a4,zero
8000534c:	000706b3          	add	a3,a4,zero
80005350:	cc92a0b7          	lui	ra,0xcc92a
80005354:	015f1093          	slli	ra,t5,0x15
80005358:	409a5633          	sra	a2,s4,s1
8000535c:	003b4a63          	blt	s6,gp,80005370 <sub_3_j5+0x458>
80005360:	015ad993          	srli	s3,s5,0x15
80005364:	5dff4793          	xori	a5,t5,1503
80005368:	20648893          	addi	a7,s1,518
8000536c:	015f1093          	slli	ra,t5,0x15
80005370:	4111dd93          	srai	s11,gp,0x11
80005374:	409a5633          	sra	a2,s4,s1
80005378:	4cb37c13          	andi	s8,t1,1227
8000537c:	fb4ee413          	ori	s0,t4,-76
80005380:	00406333          	or	t1,zero,tp
80005384:	03d2dc63          	bge	t0,t4,800053bc <sub_3_j5+0x4a4>
80005388:	015ad993          	srli	s3,s5,0x15
8000538c:	006410b3          	sll	ra,s0,t1
80005390:	fb4ee413          	ori	s0,t4,-76
80005394:	0ff0000f          	fence
80005398:	038d1a63          	bne	s10,s8,800053cc <sub_3_j5+0x4b4>
8000539c:	048c8063          	beq	s9,s0,800053dc <sub_3_j5+0x4c4>
800053a0:	0000100f          	fence.i
800053a4:	cc92a0b7          	lui	ra,0xcc92a
800053a8:	03457463          	bgeu	a0,s4,800053d0 <sub_3_j5+0x4b8>
800053ac:	b35a3893          	sltiu	a7,s4,-1227
800053b0:	bce1a693          	slti	a3,gp,-1074
800053b4:	1d860217          	auipc	tp,0x1d860
800053b8:	00406333          	or	t1,zero,tp
800053bc:	0ff0000f          	fence
800053c0:	008c8263          	beq	s9,s0,800053c4 <sub_3_j5+0x4ac>
800053c4:	015f1093          	slli	ra,t5,0x15
800053c8:	01bef5b3          	and	a1,t4,s11
800053cc:	00000013          	nop
800053d0:	015ad993          	srli	s3,s5,0x15
800053d4:	03457263          	bgeu	a0,s4,800053f8 <sub_3_j5+0x4e0>
800053d8:	01c4dbb3          	srl	s7,s1,t3
800053dc:	03a0ea63          	bltu	ra,s10,80005410 <sub_3_j5+0x4f8>
800053e0:	1d860217          	auipc	tp,0x1d860
800053e4:	05d2d663          	bge	t0,t4,80005430 <sub_3_j5+0x518>
800053e8:	0000100f          	fence.i
800053ec:	028c8063          	beq	s9,s0,8000540c <sub_3_j5+0x4f4>
800053f0:	bce1a693          	slti	a3,gp,-1074
800053f4:	1d860217          	auipc	tp,0x1d860
800053f8:	008c8263          	beq	s9,s0,800053fc <sub_3_j5+0x4e4>
800053fc:	023b4863          	blt	s6,gp,8000542c <sub_3_j5+0x514>
80005400:	40ed8c33          	sub	s8,s11,a4
80005404:	0ff0000f          	fence
80005408:	006410b3          	sll	ra,s0,t1
8000540c:	01c4dbb3          	srl	s7,s1,t3
80005410:	00000013          	nop
80005414:	00406333          	or	t1,zero,tp
80005418:	01c4dbb3          	srl	s7,s1,t3
8000541c:	40ed8c33          	sub	s8,s11,a4
80005420:	006410b3          	sll	ra,s0,t1
80005424:	4111dd93          	srai	s11,gp,0x11
80005428:	000706b3          	add	a3,a4,zero
8000542c:	028c8863          	beq	s9,s0,8000545c <sub_3_j5+0x544>
80005430:	01d2de63          	bge	t0,t4,8000544c <sub_3_j5+0x534>
80005434:	5dff4793          	xori	a5,t5,1503
80005438:	4111dd93          	srai	s11,gp,0x11
8000543c:	0000100f          	fence.i
80005440:	000706b3          	add	a3,a4,zero
80005444:	015ad993          	srli	s3,s5,0x15
80005448:	409a5633          	sra	a2,s4,s1
8000544c:	cc92a0b7          	lui	ra,0xcc92a
80005450:	409a5633          	sra	a2,s4,s1
80005454:	00000013          	nop
80005458:	003b4263          	blt	s6,gp,8000545c <sub_3_j5+0x544>
8000545c:	0000100f          	fence.i
80005460:	1d860217          	auipc	tp,0x1d860
80005464:	03a0e263          	bltu	ra,s10,80005488 <sub_3_j5+0x570>
80005468:	20648893          	addi	a7,s1,518
8000546c:	00cea633          	slt	a2,t4,a2
80005470:	058d1063          	bne	s10,s8,800054b0 <sub_3_j5+0x598>
80005474:	01c4dbb3          	srl	s7,s1,t3
80005478:	000706b3          	add	a3,a4,zero
8000547c:	5dff4793          	xori	a5,t5,1503
80005480:	015f1093          	slli	ra,t5,0x15
80005484:	015ad993          	srli	s3,s5,0x15
80005488:	00ee3233          	sltu	tp,t3,a4
8000548c:	4cb37c13          	andi	s8,t1,1227
80005490:	0000100f          	fence.i
80005494:	015f1093          	slli	ra,t5,0x15
80005498:	0033c233          	xor	tp,t2,gp
8000549c:	5dff4793          	xori	a5,t5,1503
800054a0:	05d2d063          	bge	t0,t4,800054e0 <sub_3_j5+0x5c8>
800054a4:	40ed8c33          	sub	s8,s11,a4
800054a8:	01c4dbb3          	srl	s7,s1,t3
800054ac:	03a0e063          	bltu	ra,s10,800054cc <sub_3_j5+0x5b4>
800054b0:	cc92a0b7          	lui	ra,0xcc92a
800054b4:	03d2d863          	bge	t0,t4,800054e4 <sub_3_j5+0x5cc>
800054b8:	01457a63          	bgeu	a0,s4,800054cc <sub_3_j5+0x5b4>
800054bc:	006410b3          	sll	ra,s0,t1
800054c0:	028c8863          	beq	s9,s0,800054f0 <sub_3_j5+0x5d8>
800054c4:	006410b3          	sll	ra,s0,t1
800054c8:	00406333          	or	t1,zero,tp
800054cc:	00406333          	or	t1,zero,tp
800054d0:	4cb37c13          	andi	s8,t1,1227
800054d4:	1d860217          	auipc	tp,0x1d860
800054d8:	4cb37c13          	andi	s8,t1,1227
800054dc:	00406333          	or	t1,zero,tp
800054e0:	00ee3233          	sltu	tp,t3,a4
800054e4:	cc92a0b7          	lui	ra,0xcc92a
800054e8:	0033c233          	xor	tp,t2,gp
800054ec:	4111dd93          	srai	s11,gp,0x11
800054f0:	409a5633          	sra	a2,s4,s1
800054f4:	40ed8c33          	sub	s8,s11,a4
800054f8:	006410b3          	sll	ra,s0,t1
800054fc:	015ad993          	srli	s3,s5,0x15
80005500:	006410b3          	sll	ra,s0,t1
80005504:	0000100f          	fence.i
80005508:	00000013          	nop
8000550c:	015ad993          	srli	s3,s5,0x15
80005510:	4111dd93          	srai	s11,gp,0x11
80005514:	20648893          	addi	a7,s1,518
80005518:	bce1a693          	slti	a3,gp,-1074
8000551c:	048c8263          	beq	s9,s0,80005560 <sub_3_j5+0x648>
80005520:	5dff4793          	xori	a5,t5,1503
80005524:	40ed8c33          	sub	s8,s11,a4
80005528:	015ad993          	srli	s3,s5,0x15
8000552c:	fb4ee413          	ori	s0,t4,-76
80005530:	01c4dbb3          	srl	s7,s1,t3
80005534:	cc92a0b7          	lui	ra,0xcc92a
80005538:	000706b3          	add	a3,a4,zero
8000553c:	40ed8c33          	sub	s8,s11,a4
80005540:	00cea633          	slt	a2,t4,a2
80005544:	409a5633          	sra	a2,s4,s1
80005548:	023b4863          	blt	s6,gp,80005578 <sub_3_j5+0x660>
8000554c:	b35a3893          	sltiu	a7,s4,-1227
80005550:	015ad993          	srli	s3,s5,0x15
80005554:	03d2d463          	bge	t0,t4,8000557c <sub_3_j5+0x664>
80005558:	015ad993          	srli	s3,s5,0x15
8000555c:	4cb37c13          	andi	s8,t1,1227
80005560:	00000013          	nop
80005564:	000706b3          	add	a3,a4,zero
80005568:	cc92a0b7          	lui	ra,0xcc92a
8000556c:	bce1a693          	slti	a3,gp,-1074
80005570:	4111dd93          	srai	s11,gp,0x11
80005574:	01bef5b3          	and	a1,t4,s11
80005578:	fb4ee413          	ori	s0,t4,-76
8000557c:	006410b3          	sll	ra,s0,t1
80005580:	1d860217          	auipc	tp,0x1d860
80005584:	00406333          	or	t1,zero,tp
80005588:	0ff0000f          	fence
8000558c:	4111dd93          	srai	s11,gp,0x11
80005590:	015f1093          	slli	ra,t5,0x15
80005594:	5dff4793          	xori	a5,t5,1503
80005598:	015ad993          	srli	s3,s5,0x15
8000559c:	b35a3893          	sltiu	a7,s4,-1227
800055a0:	40ed8c33          	sub	s8,s11,a4
800055a4:	023b4863          	blt	s6,gp,800055d4 <sub_3_j5+0x6bc>
800055a8:	20648893          	addi	a7,s1,518
800055ac:	006410b3          	sll	ra,s0,t1
800055b0:	003b4263          	blt	s6,gp,800055b4 <sub_3_j5+0x69c>
800055b4:	006410b3          	sll	ra,s0,t1
800055b8:	015f1093          	slli	ra,t5,0x15
800055bc:	015ad993          	srli	s3,s5,0x15
800055c0:	0ff0000f          	fence
800055c4:	20648893          	addi	a7,s1,518
800055c8:	20648893          	addi	a7,s1,518
800055cc:	4111dd93          	srai	s11,gp,0x11
800055d0:	409a5633          	sra	a2,s4,s1
800055d4:	003b4263          	blt	s6,gp,800055d8 <sub_3_j5+0x6c0>
800055d8:	cc92a0b7          	lui	ra,0xcc92a
800055dc:	038d1c63          	bne	s10,s8,80005614 <sub_3_j5+0x6fc>
800055e0:	038d1a63          	bne	s10,s8,80005614 <sub_3_j5+0x6fc>
800055e4:	01c4dbb3          	srl	s7,s1,t3
800055e8:	4cb37c13          	andi	s8,t1,1227
800055ec:	5dff4793          	xori	a5,t5,1503
800055f0:	20648893          	addi	a7,s1,518
800055f4:	40ed8c33          	sub	s8,s11,a4
800055f8:	bce1a693          	slti	a3,gp,-1074
800055fc:	0000100f          	fence.i
80005600:	0ff0000f          	fence
80005604:	4111dd93          	srai	s11,gp,0x11
80005608:	00cea633          	slt	a2,t4,a2
8000560c:	006410b3          	sll	ra,s0,t1
80005610:	038d1263          	bne	s10,s8,80005634 <sub_3_j5+0x71c>
80005614:	bce1a693          	slti	a3,gp,-1074
80005618:	01bef5b3          	and	a1,t4,s11
8000561c:	4111dd93          	srai	s11,gp,0x11
80005620:	038d1a63          	bne	s10,s8,80005654 <sub_3_j5+0x73c>
80005624:	015ad993          	srli	s3,s5,0x15
80005628:	cc92a0b7          	lui	ra,0xcc92a
8000562c:	40ed8c33          	sub	s8,s11,a4
80005630:	00ee3233          	sltu	tp,t3,a4
80005634:	00406333          	or	t1,zero,tp
80005638:	cc92a0b7          	lui	ra,0xcc92a
8000563c:	05d2d663          	bge	t0,t4,80005688 <sub_3_j5+0x770>
80005640:	00406333          	or	t1,zero,tp
80005644:	05457063          	bgeu	a0,s4,80005684 <sub_3_j5+0x76c>
80005648:	fb4ee413          	ori	s0,t4,-76
8000564c:	03d2d063          	bge	t0,t4,8000566c <sub_3_j5+0x754>
80005650:	409a5633          	sra	a2,s4,s1
80005654:	00cea633          	slt	a2,t4,a2
80005658:	5dff4793          	xori	a5,t5,1503
8000565c:	006410b3          	sll	ra,s0,t1
80005660:	cc92a0b7          	lui	ra,0xcc92a
80005664:	028c8863          	beq	s9,s0,80005694 <sub_3_j5+0x77c>
80005668:	0ff0000f          	fence
8000566c:	000706b3          	add	a3,a4,zero
80005670:	1d860217          	auipc	tp,0x1d860
80005674:	000706b3          	add	a3,a4,zero
80005678:	03d2d863          	bge	t0,t4,800056a8 <sub_3_j5+0x790>
8000567c:	01a0ea63          	bltu	ra,s10,80005690 <sub_3_j5+0x778>
80005680:	bce1a693          	slti	a3,gp,-1074
80005684:	01d2d263          	bge	t0,t4,80005688 <sub_3_j5+0x770>
80005688:	1d860217          	auipc	tp,0x1d860
8000568c:	cc92a0b7          	lui	ra,0xcc92a
80005690:	20648893          	addi	a7,s1,518
80005694:	01c4dbb3          	srl	s7,s1,t3
80005698:	bce1a693          	slti	a3,gp,-1074
8000569c:	000706b3          	add	a3,a4,zero
800056a0:	b35a3893          	sltiu	a7,s4,-1227
800056a4:	01bef5b3          	and	a1,t4,s11
800056a8:	000706b3          	add	a3,a4,zero
800056ac:	cc92a0b7          	lui	ra,0xcc92a
800056b0:	000706b3          	add	a3,a4,zero
800056b4:	0033c233          	xor	tp,t2,gp
800056b8:	20648893          	addi	a7,s1,518
800056bc:	015f1093          	slli	ra,t5,0x15
800056c0:	015ad993          	srli	s3,s5,0x15
800056c4:	000706b3          	add	a3,a4,zero
800056c8:	038d1263          	bne	s10,s8,800056ec <sub_3_j5+0x7d4>
800056cc:	20648893          	addi	a7,s1,518
800056d0:	006410b3          	sll	ra,s0,t1
800056d4:	00000013          	nop
800056d8:	048c8063          	beq	s9,s0,80005718 <sub_3_j5+0x800>
800056dc:	4111dd93          	srai	s11,gp,0x11
800056e0:	01457663          	bgeu	a0,s4,800056ec <sub_3_j5+0x7d4>
800056e4:	00ee3233          	sltu	tp,t3,a4
800056e8:	00406333          	or	t1,zero,tp
800056ec:	cc92a0b7          	lui	ra,0xcc92a
800056f0:	03a0e463          	bltu	ra,s10,80005718 <sub_3_j5+0x800>
800056f4:	03a0e263          	bltu	ra,s10,80005718 <sub_3_j5+0x800>
800056f8:	0000100f          	fence.i
800056fc:	40ed8c33          	sub	s8,s11,a4
80005700:	00000013          	nop
80005704:	05457063          	bgeu	a0,s4,80005744 <sub_3_j5+0x82c>
80005708:	4111dd93          	srai	s11,gp,0x11
8000570c:	20648893          	addi	a7,s1,518
80005710:	006410b3          	sll	ra,s0,t1
80005714:	00000013          	nop
80005718:	4cb37c13          	andi	s8,t1,1227
8000571c:	40ed8c33          	sub	s8,s11,a4
80005720:	bce1a693          	slti	a3,gp,-1074
80005724:	bce1a693          	slti	a3,gp,-1074
80005728:	00406333          	or	t1,zero,tp
8000572c:	1d860217          	auipc	tp,0x1d860
80005730:	1d860217          	auipc	tp,0x1d860
80005734:	00406333          	or	t1,zero,tp
80005738:	015f1093          	slli	ra,t5,0x15
8000573c:	006410b3          	sll	ra,s0,t1
80005740:	00cea633          	slt	a2,t4,a2
80005744:	00000013          	nop
80005748:	01c4dbb3          	srl	s7,s1,t3
8000574c:	01c4dbb3          	srl	s7,s1,t3
80005750:	00cea633          	slt	a2,t4,a2
80005754:	006410b3          	sll	ra,s0,t1
80005758:	cc92a0b7          	lui	ra,0xcc92a
8000575c:	03457063          	bgeu	a0,s4,8000577c <sub_3_j5+0x864>
80005760:	01c4dbb3          	srl	s7,s1,t3
80005764:	03d2d863          	bge	t0,t4,80005794 <sub_3_j5+0x87c>
80005768:	0000100f          	fence.i
8000576c:	00cea633          	slt	a2,t4,a2
80005770:	4111dd93          	srai	s11,gp,0x11
80005774:	5dff4793          	xori	a5,t5,1503
80005778:	01bef5b3          	and	a1,t4,s11
8000577c:	0033c233          	xor	tp,t2,gp
80005780:	b35a3893          	sltiu	a7,s4,-1227
80005784:	fb4ee413          	ori	s0,t4,-76
80005788:	409a5633          	sra	a2,s4,s1
8000578c:	000706b3          	add	a3,a4,zero
80005790:	1d860217          	auipc	tp,0x1d860
80005794:	0ff0000f          	fence
80005798:	5dff4793          	xori	a5,t5,1503
8000579c:	048c8263          	beq	s9,s0,800057e0 <sub_3_j5+0x8c8>
800057a0:	40ed8c33          	sub	s8,s11,a4
800057a4:	006410b3          	sll	ra,s0,t1
800057a8:	018d1e63          	bne	s10,s8,800057c4 <sub_3_j5+0x8ac>
800057ac:	00000013          	nop
800057b0:	20648893          	addi	a7,s1,518
800057b4:	bce1a693          	slti	a3,gp,-1074
800057b8:	008c8a63          	beq	s9,s0,800057cc <sub_3_j5+0x8b4>
800057bc:	5dff4793          	xori	a5,t5,1503
800057c0:	0033c233          	xor	tp,t2,gp
800057c4:	008c8c63          	beq	s9,s0,800057dc <sub_3_j5+0x8c4>
800057c8:	01c4dbb3          	srl	s7,s1,t3
800057cc:	00ee3233          	sltu	tp,t3,a4
800057d0:	01457263          	bgeu	a0,s4,800057d4 <sub_3_j5+0x8bc>
800057d4:	01bef5b3          	and	a1,t4,s11
800057d8:	006410b3          	sll	ra,s0,t1
800057dc:	01a0ee63          	bltu	ra,s10,800057f8 <sub_3_j5+0x8e0>
800057e0:	00406333          	or	t1,zero,tp
800057e4:	0ff0000f          	fence
800057e8:	015ad993          	srli	s3,s5,0x15
800057ec:	015f1093          	slli	ra,t5,0x15
800057f0:	003b4e63          	blt	s6,gp,8000580c <sub_3_j5+0x8f4>
800057f4:	000706b3          	add	a3,a4,zero
800057f8:	00cea633          	slt	a2,t4,a2
800057fc:	1d860217          	auipc	tp,0x1d860
80005800:	008c8263          	beq	s9,s0,80005804 <sub_3_j5+0x8ec>
80005804:	0033c233          	xor	tp,t2,gp
80005808:	01bef5b3          	and	a1,t4,s11
8000580c:	00000013          	nop
80005810:	01d2de63          	bge	t0,t4,8000582c <sub_3_j5+0x914>
80005814:	03a0e863          	bltu	ra,s10,80005844 <sub_3_j5+0x92c>
80005818:	01c4dbb3          	srl	s7,s1,t3
8000581c:	03a0ec63          	bltu	ra,s10,80005854 <sub_3_j5+0x93c>
80005820:	043b4063          	blt	s6,gp,80005860 <sub_3_j5+0x948>
80005824:	cc92a0b7          	lui	ra,0xcc92a
80005828:	018d1a63          	bne	s10,s8,8000583c <sub_3_j5+0x924>
8000582c:	fb4ee413          	ori	s0,t4,-76
80005830:	4111dd93          	srai	s11,gp,0x11
80005834:	00406333          	or	t1,zero,tp
80005838:	0ff0000f          	fence
8000583c:	40ed8c33          	sub	s8,s11,a4
80005840:	5dff4793          	xori	a5,t5,1503
80005844:	038d1863          	bne	s10,s8,80005874 <sub_3_j5+0x95c>
80005848:	01bef5b3          	and	a1,t4,s11
8000584c:	00000013          	nop
80005850:	03d2d463          	bge	t0,t4,80005878 <sub_3_j5+0x960>
80005854:	20648893          	addi	a7,s1,518
80005858:	bce1a693          	slti	a3,gp,-1074
8000585c:	4111dd93          	srai	s11,gp,0x11
80005860:	01bef5b3          	and	a1,t4,s11
80005864:	20648893          	addi	a7,s1,518
80005868:	00cea633          	slt	a2,t4,a2
8000586c:	03457463          	bgeu	a0,s4,80005894 <sub_3_j5+0x97c>
80005870:	00000013          	nop
80005874:	5dff4793          	xori	a5,t5,1503
80005878:	5dff4793          	xori	a5,t5,1503
8000587c:	03457063          	bgeu	a0,s4,8000589c <sub_3_j5+0x984>
80005880:	01c4dbb3          	srl	s7,s1,t3
80005884:	00000013          	nop
80005888:	4111dd93          	srai	s11,gp,0x11
8000588c:	01c4dbb3          	srl	s7,s1,t3
80005890:	40ed8c33          	sub	s8,s11,a4
80005894:	028c8263          	beq	s9,s0,800058b8 <sub_3_j5+0x9a0>
80005898:	028c8263          	beq	s9,s0,800058bc <sub_3_j5+0x9a4>
8000589c:	006410b3          	sll	ra,s0,t1
800058a0:	00cea633          	slt	a2,t4,a2
800058a4:	1d860217          	auipc	tp,0x1d860
800058a8:	40ed8c33          	sub	s8,s11,a4
800058ac:	00406333          	or	t1,zero,tp
800058b0:	01457a63          	bgeu	a0,s4,800058c4 <sub_3_j5+0x9ac>
800058b4:	5dff4793          	xori	a5,t5,1503
800058b8:	006410b3          	sll	ra,s0,t1
800058bc:	006410b3          	sll	ra,s0,t1
800058c0:	4111dd93          	srai	s11,gp,0x11
800058c4:	409a5633          	sra	a2,s4,s1
800058c8:	cc92a0b7          	lui	ra,0xcc92a
800058cc:	20648893          	addi	a7,s1,518
800058d0:	023b4a63          	blt	s6,gp,80005904 <sub_3_j5+0x9ec>
800058d4:	015ad993          	srli	s3,s5,0x15
800058d8:	00000013          	nop
800058dc:	01c4dbb3          	srl	s7,s1,t3
800058e0:	4cb37c13          	andi	s8,t1,1227
800058e4:	0033c233          	xor	tp,t2,gp
800058e8:	015ad993          	srli	s3,s5,0x15
800058ec:	4cb37c13          	andi	s8,t1,1227
800058f0:	048c8063          	beq	s9,s0,80005930 <sub_3_j5+0xa18>
800058f4:	00ee3233          	sltu	tp,t3,a4
800058f8:	1d860217          	auipc	tp,0x1d860
800058fc:	03d2d863          	bge	t0,t4,8000592c <sub_3_j5+0xa14>
80005900:	bce1a693          	slti	a3,gp,-1074
80005904:	4111dd93          	srai	s11,gp,0x11
80005908:	0000100f          	fence.i
8000590c:	00406333          	or	t1,zero,tp
80005910:	1d860217          	auipc	tp,0x1d860
80005914:	00cea633          	slt	a2,t4,a2
80005918:	000706b3          	add	a3,a4,zero
8000591c:	015ad993          	srli	s3,s5,0x15
80005920:	409a5633          	sra	a2,s4,s1
80005924:	015ad993          	srli	s3,s5,0x15
80005928:	fb4ee413          	ori	s0,t4,-76
8000592c:	018d1263          	bne	s10,s8,80005930 <sub_3_j5+0xa18>
80005930:	05457063          	bgeu	a0,s4,80005970 <sub_3_j5+0xa58>
80005934:	01c4dbb3          	srl	s7,s1,t3
80005938:	028c8863          	beq	s9,s0,80005968 <sub_3_j5+0xa50>
8000593c:	4cb37c13          	andi	s8,t1,1227
80005940:	015ad993          	srli	s3,s5,0x15
80005944:	003b4663          	blt	s6,gp,80005950 <sub_3_j5+0xa38>
80005948:	5dff4793          	xori	a5,t5,1503
8000594c:	fb4ee413          	ori	s0,t4,-76
80005950:	00406333          	or	t1,zero,tp
80005954:	00ee3233          	sltu	tp,t3,a4
80005958:	4cb37c13          	andi	s8,t1,1227
8000595c:	20648893          	addi	a7,s1,518
80005960:	048c8663          	beq	s9,s0,800059ac <sub_3_j5+0xa94>
80005964:	00406333          	or	t1,zero,tp
80005968:	bce1a693          	slti	a3,gp,-1074
8000596c:	1d860217          	auipc	tp,0x1d860
80005970:	00000013          	nop
80005974:	cc92a0b7          	lui	ra,0xcc92a
80005978:	015f1093          	slli	ra,t5,0x15
8000597c:	4cb37c13          	andi	s8,t1,1227
80005980:	00ee3233          	sltu	tp,t3,a4
80005984:	00cea633          	slt	a2,t4,a2
80005988:	006410b3          	sll	ra,s0,t1
8000598c:	00ee3233          	sltu	tp,t3,a4
80005990:	01a0e263          	bltu	ra,s10,80005994 <sub_3_j5+0xa7c>
80005994:	40ed8c33          	sub	s8,s11,a4
80005998:	00ee3233          	sltu	tp,t3,a4
8000599c:	bce1a693          	slti	a3,gp,-1074
800059a0:	028c8a63          	beq	s9,s0,800059d4 <sub_3_j5+0xabc>
800059a4:	0000100f          	fence.i
800059a8:	015f1093          	slli	ra,t5,0x15
800059ac:	fb4ee413          	ori	s0,t4,-76
800059b0:	fb4ee413          	ori	s0,t4,-76
800059b4:	fb4ee413          	ori	s0,t4,-76
800059b8:	4111dd93          	srai	s11,gp,0x11
800059bc:	006410b3          	sll	ra,s0,t1
800059c0:	00000013          	nop
800059c4:	038d1063          	bne	s10,s8,800059e4 <sub_3_j5+0xacc>
800059c8:	409a5633          	sra	a2,s4,s1
800059cc:	015f1093          	slli	ra,t5,0x15
800059d0:	5dff4793          	xori	a5,t5,1503
800059d4:	4111dd93          	srai	s11,gp,0x11
800059d8:	20648893          	addi	a7,s1,518
800059dc:	0000100f          	fence.i
800059e0:	409a5633          	sra	a2,s4,s1
800059e4:	b35a3893          	sltiu	a7,s4,-1227
800059e8:	0033c233          	xor	tp,t2,gp
800059ec:	0000100f          	fence.i
800059f0:	0ff0000f          	fence
800059f4:	bce1a693          	slti	a3,gp,-1074
800059f8:	00cea633          	slt	a2,t4,a2
800059fc:	bce1a693          	slti	a3,gp,-1074
80005a00:	01bef5b3          	and	a1,t4,s11
80005a04:	00cea633          	slt	a2,t4,a2
80005a08:	01a0ec63          	bltu	ra,s10,80005a20 <sub_3_j5+0xb08>
80005a0c:	028c8863          	beq	s9,s0,80005a3c <sub_3_j5+0xb24>
80005a10:	01d2d263          	bge	t0,t4,80005a14 <sub_3_j5+0xafc>
80005a14:	048c8263          	beq	s9,s0,80005a58 <sub_3_j5+0xb40>
80005a18:	4cb37c13          	andi	s8,t1,1227
80005a1c:	01c4dbb3          	srl	s7,s1,t3
80005a20:	03d2d263          	bge	t0,t4,80005a44 <sub_3_j5+0xb2c>
80005a24:	0000100f          	fence.i
80005a28:	5dff4793          	xori	a5,t5,1503
80005a2c:	01c4dbb3          	srl	s7,s1,t3
80005a30:	4111dd93          	srai	s11,gp,0x11
80005a34:	01a0e263          	bltu	ra,s10,80005a38 <sub_3_j5+0xb20>
80005a38:	5dff4793          	xori	a5,t5,1503
80005a3c:	048c8663          	beq	s9,s0,80005a88 <sub_3_j5+0xb70>
80005a40:	03457a63          	bgeu	a0,s4,80005a74 <sub_3_j5+0xb5c>
80005a44:	20648893          	addi	a7,s1,518
80005a48:	0000100f          	fence.i
80005a4c:	cc92a0b7          	lui	ra,0xcc92a
80005a50:	40ed8c33          	sub	s8,s11,a4
80005a54:	00cea633          	slt	a2,t4,a2
80005a58:	0033c233          	xor	tp,t2,gp
80005a5c:	fb4ee413          	ori	s0,t4,-76
80005a60:	006410b3          	sll	ra,s0,t1
80005a64:	000706b3          	add	a3,a4,zero
80005a68:	015ad993          	srli	s3,s5,0x15
80005a6c:	01c4dbb3          	srl	s7,s1,t3
80005a70:	4cb37c13          	andi	s8,t1,1227
80005a74:	cc92a0b7          	lui	ra,0xcc92a
80005a78:	01457a63          	bgeu	a0,s4,80005a8c <sub_3_j5+0xb74>
80005a7c:	5dff4793          	xori	a5,t5,1503
80005a80:	038d1863          	bne	s10,s8,80005ab0 <sub_3_j5+0xb98>
80005a84:	b35a3893          	sltiu	a7,s4,-1227
80005a88:	00406333          	or	t1,zero,tp
80005a8c:	5dff4793          	xori	a5,t5,1503
80005a90:	01bef5b3          	and	a1,t4,s11
80005a94:	1d860217          	auipc	tp,0x1d860
80005a98:	0ff0000f          	fence
80005a9c:	4cb37c13          	andi	s8,t1,1227
80005aa0:	40ed8c33          	sub	s8,s11,a4
80005aa4:	01c4dbb3          	srl	s7,s1,t3
80005aa8:	015f1093          	slli	ra,t5,0x15
80005aac:	5dff4793          	xori	a5,t5,1503
80005ab0:	028c8063          	beq	s9,s0,80005ad0 <sub_3_j5+0xbb8>
80005ab4:	4111dd93          	srai	s11,gp,0x11
80005ab8:	006410b3          	sll	ra,s0,t1
80005abc:	00406333          	or	t1,zero,tp
80005ac0:	038d1863          	bne	s10,s8,80005af0 <sub_3_j5+0xbd8>
80005ac4:	00000013          	nop
80005ac8:	0000100f          	fence.i
80005acc:	00ee3233          	sltu	tp,t3,a4
80005ad0:	015f1093          	slli	ra,t5,0x15
80005ad4:	00406333          	or	t1,zero,tp
80005ad8:	40ed8c33          	sub	s8,s11,a4
80005adc:	01bef5b3          	and	a1,t4,s11
80005ae0:	01a0ec63          	bltu	ra,s10,80005af8 <sub_3_j5+0xbe0>
80005ae4:	008c8e63          	beq	s9,s0,80005b00 <sub_3_j5+0xbe8>
80005ae8:	0ff0000f          	fence
80005aec:	00406333          	or	t1,zero,tp
80005af0:	b35a3893          	sltiu	a7,s4,-1227
80005af4:	03457863          	bgeu	a0,s4,80005b24 <sub_3_j5+0xc0c>
80005af8:	b35a3893          	sltiu	a7,s4,-1227
80005afc:	00406333          	or	t1,zero,tp
80005b00:	00ee3233          	sltu	tp,t3,a4
80005b04:	015ad993          	srli	s3,s5,0x15
80005b08:	00406333          	or	t1,zero,tp
80005b0c:	05457063          	bgeu	a0,s4,80005b4c <sub_3_j5+0xc34>
80005b10:	05457263          	bgeu	a0,s4,80005b54 <sub_3_j5+0xc3c>
80005b14:	20648893          	addi	a7,s1,518
80005b18:	01c4dbb3          	srl	s7,s1,t3
80005b1c:	4111dd93          	srai	s11,gp,0x11
80005b20:	40ed8c33          	sub	s8,s11,a4
80005b24:	5dff4793          	xori	a5,t5,1503
80005b28:	015f1093          	slli	ra,t5,0x15
80005b2c:	01457a63          	bgeu	a0,s4,80005b40 <sub_3_j5+0xc28>
80005b30:	cc92a0b7          	lui	ra,0xcc92a
80005b34:	000706b3          	add	a3,a4,zero
80005b38:	00000013          	nop
80005b3c:	01bef5b3          	and	a1,t4,s11
80005b40:	b35a3893          	sltiu	a7,s4,-1227
80005b44:	0ff0000f          	fence
80005b48:	1d860217          	auipc	tp,0x1d860
80005b4c:	058d1063          	bne	s10,s8,80005b8c <sub_3_j5+0xc74>
80005b50:	cc92a0b7          	lui	ra,0xcc92a
80005b54:	4111dd93          	srai	s11,gp,0x11
80005b58:	006410b3          	sll	ra,s0,t1
80005b5c:	1d860217          	auipc	tp,0x1d860
80005b60:	03a0e463          	bltu	ra,s10,80005b88 <sub_3_j5+0xc70>
80005b64:	01bef5b3          	and	a1,t4,s11
80005b68:	0000100f          	fence.i
80005b6c:	023b4863          	blt	s6,gp,80005b9c <sub_3_j5+0xc84>
80005b70:	023b4c63          	blt	s6,gp,80005ba8 <sub_3_j5+0xc90>
80005b74:	00cea633          	slt	a2,t4,a2
80005b78:	00000013          	nop
80005b7c:	00ee3233          	sltu	tp,t3,a4
80005b80:	00cea633          	slt	a2,t4,a2
80005b84:	003b4263          	blt	s6,gp,80005b88 <sub_3_j5+0xc70>
80005b88:	0ff0000f          	fence
80005b8c:	bce1a693          	slti	a3,gp,-1074
80005b90:	b35a3893          	sltiu	a7,s4,-1227
80005b94:	00cea633          	slt	a2,t4,a2
80005b98:	0000100f          	fence.i
80005b9c:	0000100f          	fence.i
80005ba0:	03a0e863          	bltu	ra,s10,80005bd0 <sub_3_j5+0xcb8>
80005ba4:	bce1a693          	slti	a3,gp,-1074
80005ba8:	01bef5b3          	and	a1,t4,s11
80005bac:	40ed8c33          	sub	s8,s11,a4
80005bb0:	000706b3          	add	a3,a4,zero
80005bb4:	4111dd93          	srai	s11,gp,0x11
80005bb8:	0000100f          	fence.i
80005bbc:	b35a3893          	sltiu	a7,s4,-1227
80005bc0:	40ed8c33          	sub	s8,s11,a4
80005bc4:	bce1a693          	slti	a3,gp,-1074
80005bc8:	bce1a693          	slti	a3,gp,-1074
80005bcc:	5dff4793          	xori	a5,t5,1503
80005bd0:	015ad993          	srli	s3,s5,0x15
80005bd4:	5dff4793          	xori	a5,t5,1503
80005bd8:	038d1463          	bne	s10,s8,80005c00 <sub_3_j5+0xce8>
80005bdc:	4111dd93          	srai	s11,gp,0x11
80005be0:	015f1093          	slli	ra,t5,0x15
80005be4:	01c4dbb3          	srl	s7,s1,t3
80005be8:	4cb37c13          	andi	s8,t1,1227
80005bec:	00ee3233          	sltu	tp,t3,a4
80005bf0:	cc92a0b7          	lui	ra,0xcc92a
80005bf4:	4111dd93          	srai	s11,gp,0x11
80005bf8:	00406333          	or	t1,zero,tp
80005bfc:	00000013          	nop
80005c00:	01457e63          	bgeu	a0,s4,80005c1c <sub_3_j5+0xd04>
80005c04:	00ee3233          	sltu	tp,t3,a4
80005c08:	00ee3233          	sltu	tp,t3,a4
80005c0c:	01c4dbb3          	srl	s7,s1,t3
80005c10:	01d2d663          	bge	t0,t4,80005c1c <sub_3_j5+0xd04>
80005c14:	5dff4793          	xori	a5,t5,1503
80005c18:	00406333          	or	t1,zero,tp
80005c1c:	028c8063          	beq	s9,s0,80005c3c <sub_3_j5+0xd24>
80005c20:	0ff0000f          	fence
80005c24:	fb4ee413          	ori	s0,t4,-76
80005c28:	01bef5b3          	and	a1,t4,s11
80005c2c:	b35a3893          	sltiu	a7,s4,-1227
80005c30:	015f1093          	slli	ra,t5,0x15
80005c34:	409a5633          	sra	a2,s4,s1
80005c38:	03a0ea63          	bltu	ra,s10,80005c6c <sub_3_j5+0xd54>
80005c3c:	0ff0000f          	fence
80005c40:	038d1263          	bne	s10,s8,80005c64 <sub_3_j5+0xd4c>
80005c44:	03457263          	bgeu	a0,s4,80005c68 <sub_3_j5+0xd50>
80005c48:	4111dd93          	srai	s11,gp,0x11
80005c4c:	0ff0000f          	fence
80005c50:	01d2d263          	bge	t0,t4,80005c54 <sub_3_j5+0xd3c>
80005c54:	40ed8c33          	sub	s8,s11,a4
80005c58:	006410b3          	sll	ra,s0,t1
80005c5c:	05a0e063          	bltu	ra,s10,80005c9c <sub_3_j5+0xd84>
80005c60:	006410b3          	sll	ra,s0,t1
80005c64:	0ff0000f          	fence
80005c68:	00ee3233          	sltu	tp,t3,a4
80005c6c:	b35a3893          	sltiu	a7,s4,-1227
80005c70:	00406333          	or	t1,zero,tp
80005c74:	0ff0000f          	fence
80005c78:	4111dd93          	srai	s11,gp,0x11
80005c7c:	5dff4793          	xori	a5,t5,1503
80005c80:	4111dd93          	srai	s11,gp,0x11
80005c84:	1d860217          	auipc	tp,0x1d860
80005c88:	000706b3          	add	a3,a4,zero
80005c8c:	018d1263          	bne	s10,s8,80005c90 <sub_3_j5+0xd78>
80005c90:	0000100f          	fence.i
80005c94:	028c8263          	beq	s9,s0,80005cb8 <sub_3_j5+0xda0>
80005c98:	bce1a693          	slti	a3,gp,-1074
80005c9c:	5dff4793          	xori	a5,t5,1503
80005ca0:	003b4263          	blt	s6,gp,80005ca4 <sub_3_j5+0xd8c>
80005ca4:	20648893          	addi	a7,s1,518
80005ca8:	0ff0000f          	fence
80005cac:	1d860217          	auipc	tp,0x1d860
80005cb0:	023b4863          	blt	s6,gp,80005ce0 <sub_3_j5+0xdc8>
80005cb4:	03a0ea63          	bltu	ra,s10,80005ce8 <sub_3_j5+0xdd0>
80005cb8:	00406333          	or	t1,zero,tp
80005cbc:	015ad993          	srli	s3,s5,0x15
80005cc0:	038d1263          	bne	s10,s8,80005ce4 <sub_3_j5+0xdcc>
80005cc4:	5dff4793          	xori	a5,t5,1503
80005cc8:	023b4463          	blt	s6,gp,80005cf0 <sub_3_j5+0xdd8>
80005ccc:	0ff0000f          	fence
80005cd0:	00406333          	or	t1,zero,tp
80005cd4:	01457263          	bgeu	a0,s4,80005cd8 <sub_3_j5+0xdc0>
80005cd8:	bce1a693          	slti	a3,gp,-1074
80005cdc:	01c4dbb3          	srl	s7,s1,t3
80005ce0:	05457063          	bgeu	a0,s4,80005d20 <sub_3_j5+0xe08>
80005ce4:	cc92a0b7          	lui	ra,0xcc92a
80005ce8:	b35a3893          	sltiu	a7,s4,-1227
80005cec:	03457263          	bgeu	a0,s4,80005d10 <sub_3_j5+0xdf8>
80005cf0:	000706b3          	add	a3,a4,zero
80005cf4:	00406333          	or	t1,zero,tp
80005cf8:	fb4ee413          	ori	s0,t4,-76
80005cfc:	4111dd93          	srai	s11,gp,0x11
80005d00:	1d860217          	auipc	tp,0x1d860
80005d04:	00cea633          	slt	a2,t4,a2
80005d08:	5dff4793          	xori	a5,t5,1503
80005d0c:	0033c233          	xor	tp,t2,gp
80005d10:	fb4ee413          	ori	s0,t4,-76
80005d14:	b35a3893          	sltiu	a7,s4,-1227
80005d18:	038d1c63          	bne	s10,s8,80005d50 <sub_3_j5+0xe38>
80005d1c:	03a0e063          	bltu	ra,s10,80005d3c <sub_3_j5+0xe24>
80005d20:	00ee3233          	sltu	tp,t3,a4
80005d24:	015f1093          	slli	ra,t5,0x15
80005d28:	015ad993          	srli	s3,s5,0x15
80005d2c:	03d2d863          	bge	t0,t4,80005d5c <sub_3_j5+0xe44>
80005d30:	00406333          	or	t1,zero,tp
80005d34:	40ed8c33          	sub	s8,s11,a4
80005d38:	1d860217          	auipc	tp,0x1d860
80005d3c:	00406333          	or	t1,zero,tp
80005d40:	409a5633          	sra	a2,s4,s1
80005d44:	00000013          	nop
80005d48:	00000013          	nop
80005d4c:	00ee3233          	sltu	tp,t3,a4
80005d50:	00406333          	or	t1,zero,tp
80005d54:	5dff4793          	xori	a5,t5,1503
80005d58:	01bef5b3          	and	a1,t4,s11
80005d5c:	20648893          	addi	a7,s1,518
80005d60:	0033c233          	xor	tp,t2,gp
80005d64:	015ad993          	srli	s3,s5,0x15
80005d68:	5dff4793          	xori	a5,t5,1503
80005d6c:	b35a3893          	sltiu	a7,s4,-1227
80005d70:	05457263          	bgeu	a0,s4,80005db4 <sub_3_j5+0xe9c>
80005d74:	018d1663          	bne	s10,s8,80005d80 <sub_3_j5+0xe68>
80005d78:	023b4863          	blt	s6,gp,80005da8 <sub_3_j5+0xe90>
80005d7c:	015f1093          	slli	ra,t5,0x15
80005d80:	015ad993          	srli	s3,s5,0x15
80005d84:	40ed8c33          	sub	s8,s11,a4
80005d88:	40ed8c33          	sub	s8,s11,a4
80005d8c:	0ff0000f          	fence
80005d90:	bce1a693          	slti	a3,gp,-1074
80005d94:	bce1a693          	slti	a3,gp,-1074
80005d98:	003b4c63          	blt	s6,gp,80005db0 <sub_3_j5+0xe98>
80005d9c:	00000013          	nop
80005da0:	03d2d463          	bge	t0,t4,80005dc8 <sub_3_j5+0xeb0>
80005da4:	00406333          	or	t1,zero,tp
80005da8:	20648893          	addi	a7,s1,518
80005dac:	00000013          	nop
80005db0:	5dff4793          	xori	a5,t5,1503
80005db4:	01c4dbb3          	srl	s7,s1,t3
80005db8:	03457a63          	bgeu	a0,s4,80005dec <sub_3_j5+0xed4>
80005dbc:	40ed8c33          	sub	s8,s11,a4
80005dc0:	01457a63          	bgeu	a0,s4,80005dd4 <sub_3_j5+0xebc>
80005dc4:	006410b3          	sll	ra,s0,t1
80005dc8:	03457263          	bgeu	a0,s4,80005dec <sub_3_j5+0xed4>
80005dcc:	00406333          	or	t1,zero,tp
80005dd0:	40ed8c33          	sub	s8,s11,a4
80005dd4:	b35a3893          	sltiu	a7,s4,-1227
80005dd8:	b35a3893          	sltiu	a7,s4,-1227
80005ddc:	006410b3          	sll	ra,s0,t1
80005de0:	409a5633          	sra	a2,s4,s1
80005de4:	05a0e063          	bltu	ra,s10,80005e24 <sub_3_j5+0xf0c>
80005de8:	409a5633          	sra	a2,s4,s1
80005dec:	03a0e063          	bltu	ra,s10,80005e0c <sub_3_j5+0xef4>
80005df0:	5dff4793          	xori	a5,t5,1503
80005df4:	01457e63          	bgeu	a0,s4,80005e10 <sub_3_j5+0xef8>
80005df8:	01c4dbb3          	srl	s7,s1,t3
80005dfc:	4cb37c13          	andi	s8,t1,1227
80005e00:	0033c233          	xor	tp,t2,gp
80005e04:	cc92a0b7          	lui	ra,0xcc92a
80005e08:	006410b3          	sll	ra,s0,t1
80005e0c:	000706b3          	add	a3,a4,zero
80005e10:	00000013          	nop
80005e14:	fb4ee413          	ori	s0,t4,-76
80005e18:	409a5633          	sra	a2,s4,s1
80005e1c:	00cea633          	slt	a2,t4,a2
80005e20:	015ad993          	srli	s3,s5,0x15
80005e24:	015ad993          	srli	s3,s5,0x15
80005e28:	01a0ea63          	bltu	ra,s10,80005e3c <sub_3_j5+0xf24>
80005e2c:	048c8063          	beq	s9,s0,80005e6c <sub_3_j5+0xf54>
80005e30:	20648893          	addi	a7,s1,518
80005e34:	5dff4793          	xori	a5,t5,1503
80005e38:	4cb37c13          	andi	s8,t1,1227
80005e3c:	0000100f          	fence.i
80005e40:	0033c233          	xor	tp,t2,gp
80005e44:	01bef5b3          	and	a1,t4,s11
80005e48:	01c4dbb3          	srl	s7,s1,t3
80005e4c:	b35a3893          	sltiu	a7,s4,-1227
80005e50:	1d860217          	auipc	tp,0x1d860
80005e54:	015f1093          	slli	ra,t5,0x15
80005e58:	40ed8c33          	sub	s8,s11,a4
80005e5c:	01457263          	bgeu	a0,s4,80005e60 <sub_3_j5+0xf48>
80005e60:	00406333          	or	t1,zero,tp
80005e64:	006410b3          	sll	ra,s0,t1
80005e68:	00406333          	or	t1,zero,tp
80005e6c:	409a5633          	sra	a2,s4,s1
80005e70:	0000100f          	fence.i
80005e74:	4111dd93          	srai	s11,gp,0x11
80005e78:	cc92a0b7          	lui	ra,0xcc92a
80005e7c:	bce1a693          	slti	a3,gp,-1074
80005e80:	0ff0000f          	fence
80005e84:	03a0e863          	bltu	ra,s10,80005eb4 <sub_3_j5+0xf9c>
80005e88:	006410b3          	sll	ra,s0,t1
80005e8c:	01bef5b3          	and	a1,t4,s11
80005e90:	05457663          	bgeu	a0,s4,80005edc <sub_3_j5+0xfc4>
80005e94:	038d1863          	bne	s10,s8,80005ec4 <sub_3_j5+0xfac>
80005e98:	000706b3          	add	a3,a4,zero
80005e9c:	003b4e63          	blt	s6,gp,80005eb8 <sub_3_j5+0xfa0>
80005ea0:	cc92a0b7          	lui	ra,0xcc92a
80005ea4:	fb4ee413          	ori	s0,t4,-76
80005ea8:	cc92a0b7          	lui	ra,0xcc92a
80005eac:	5dff4793          	xori	a5,t5,1503
80005eb0:	006410b3          	sll	ra,s0,t1
80005eb4:	cc92a0b7          	lui	ra,0xcc92a
80005eb8:	01bef5b3          	and	a1,t4,s11
80005ebc:	0ff0000f          	fence
80005ec0:	0033c233          	xor	tp,t2,gp
80005ec4:	006410b3          	sll	ra,s0,t1
80005ec8:	00000013          	nop
80005ecc:	40ed8c33          	sub	s8,s11,a4
80005ed0:	00000013          	nop
80005ed4:	b35a3893          	sltiu	a7,s4,-1227
80005ed8:	01bef5b3          	and	a1,t4,s11
80005edc:	01bef5b3          	and	a1,t4,s11
80005ee0:	00ee3233          	sltu	tp,t3,a4
80005ee4:	00ee3233          	sltu	tp,t3,a4
80005ee8:	00406333          	or	t1,zero,tp
80005eec:	000706b3          	add	a3,a4,zero
80005ef0:	008c8263          	beq	s9,s0,80005ef4 <sub_3_j5+0xfdc>
80005ef4:	03d2d863          	bge	t0,t4,80005f24 <sub_3_j5+0x100c>
80005ef8:	4cb37c13          	andi	s8,t1,1227
80005efc:	bce1a693          	slti	a3,gp,-1074
80005f00:	03457263          	bgeu	a0,s4,80005f24 <sub_3_j5+0x100c>
80005f04:	0ff0000f          	fence
80005f08:	40ed8c33          	sub	s8,s11,a4
80005f0c:	03d2da63          	bge	t0,t4,80005f40 <sub_3_j5+0x1028>
80005f10:	20648893          	addi	a7,s1,518
80005f14:	015ad993          	srli	s3,s5,0x15
80005f18:	03a0e263          	bltu	ra,s10,80005f3c <sub_3_j5+0x1024>
80005f1c:	028c8a63          	beq	s9,s0,80005f50 <sub_3_j5+0x1038>
80005f20:	b35a3893          	sltiu	a7,s4,-1227
80005f24:	00ee3233          	sltu	tp,t3,a4
80005f28:	0ff0000f          	fence
80005f2c:	b35a3893          	sltiu	a7,s4,-1227
80005f30:	cc92a0b7          	lui	ra,0xcc92a
80005f34:	1d860217          	auipc	tp,0x1d860
80005f38:	cc92a0b7          	lui	ra,0xcc92a
80005f3c:	fb4ee413          	ori	s0,t4,-76
80005f40:	01a0ec63          	bltu	ra,s10,80005f58 <sub_3_j5+0x1040>
80005f44:	01c4dbb3          	srl	s7,s1,t3
80005f48:	058d1063          	bne	s10,s8,80005f88 <sub_3_j5+0x1070>
80005f4c:	00ee3233          	sltu	tp,t3,a4
80005f50:	015ad993          	srli	s3,s5,0x15
80005f54:	000706b3          	add	a3,a4,zero
80005f58:	00cea633          	slt	a2,t4,a2
80005f5c:	fb4ee413          	ori	s0,t4,-76
80005f60:	fb4ee413          	ori	s0,t4,-76
80005f64:	fb4ee413          	ori	s0,t4,-76
80005f68:	4111dd93          	srai	s11,gp,0x11
80005f6c:	01c4dbb3          	srl	s7,s1,t3
80005f70:	cc92a0b7          	lui	ra,0xcc92a
80005f74:	01d2d263          	bge	t0,t4,80005f78 <sub_3_j5+0x1060>
80005f78:	00ee3233          	sltu	tp,t3,a4
80005f7c:	023b4863          	blt	s6,gp,80005fac <sub_3_j5+0x1094>
80005f80:	409a5633          	sra	a2,s4,s1
80005f84:	01bef5b3          	and	a1,t4,s11
80005f88:	4111dd93          	srai	s11,gp,0x11
80005f8c:	00ee3233          	sltu	tp,t3,a4
80005f90:	0000100f          	fence.i
80005f94:	409a5633          	sra	a2,s4,s1
80005f98:	cc92a0b7          	lui	ra,0xcc92a
80005f9c:	0ff0000f          	fence
80005fa0:	00cea633          	slt	a2,t4,a2
80005fa4:	cc92a0b7          	lui	ra,0xcc92a
80005fa8:	00406333          	or	t1,zero,tp
80005fac:	0033c233          	xor	tp,t2,gp
80005fb0:	cc92a0b7          	lui	ra,0xcc92a
80005fb4:	000706b3          	add	a3,a4,zero
80005fb8:	00cea633          	slt	a2,t4,a2
80005fbc:	20648893          	addi	a7,s1,518
80005fc0:	028c8463          	beq	s9,s0,80005fe8 <sub_3_j5+0x10d0>
80005fc4:	4111dd93          	srai	s11,gp,0x11
80005fc8:	4cb37c13          	andi	s8,t1,1227
80005fcc:	409a5633          	sra	a2,s4,s1
80005fd0:	015f1093          	slli	ra,t5,0x15
80005fd4:	cc92a0b7          	lui	ra,0xcc92a
80005fd8:	00cea633          	slt	a2,t4,a2
80005fdc:	03d2d263          	bge	t0,t4,80006000 <sub_3_j5+0x10e8>
80005fe0:	01d2de63          	bge	t0,t4,80005ffc <sub_3_j5+0x10e4>
80005fe4:	409a5633          	sra	a2,s4,s1
80005fe8:	bce1a693          	slti	a3,gp,-1074
80005fec:	fb4ee413          	ori	s0,t4,-76
80005ff0:	028c8863          	beq	s9,s0,80006020 <sub_3_j5+0x1108>
80005ff4:	00cea633          	slt	a2,t4,a2
80005ff8:	40ed8c33          	sub	s8,s11,a4
80005ffc:	01c4dbb3          	srl	s7,s1,t3
80006000:	4cb37c13          	andi	s8,t1,1227
80006004:	0000100f          	fence.i
80006008:	0000100f          	fence.i
8000600c:	00cea633          	slt	a2,t4,a2
80006010:	4cb37c13          	andi	s8,t1,1227
80006014:	b35a3893          	sltiu	a7,s4,-1227
80006018:	048c8063          	beq	s9,s0,80006058 <sub_3_j5+0x1140>
8000601c:	00000013          	nop
80006020:	0000100f          	fence.i
80006024:	00000013          	nop
80006028:	05a0e263          	bltu	ra,s10,8000606c <sub_3_j5+0x1154>
8000602c:	01bef5b3          	and	a1,t4,s11
80006030:	cc92a0b7          	lui	ra,0xcc92a
80006034:	5dff4793          	xori	a5,t5,1503
80006038:	20648893          	addi	a7,s1,518
8000603c:	003b4663          	blt	s6,gp,80006048 <sub_3_j5+0x1130>
80006040:	00ee3233          	sltu	tp,t3,a4
80006044:	409a5633          	sra	a2,s4,s1
80006048:	20648893          	addi	a7,s1,518
8000604c:	1d860217          	auipc	tp,0x1d860
80006050:	00ee3233          	sltu	tp,t3,a4
80006054:	006410b3          	sll	ra,s0,t1
80006058:	03a0e063          	bltu	ra,s10,80006078 <sub_3_j5+0x1160>
8000605c:	409a5633          	sra	a2,s4,s1
80006060:	00ee3233          	sltu	tp,t3,a4
80006064:	01bef5b3          	and	a1,t4,s11
80006068:	cc92a0b7          	lui	ra,0xcc92a
8000606c:	20648893          	addi	a7,s1,518
80006070:	4111dd93          	srai	s11,gp,0x11
80006074:	015f1093          	slli	ra,t5,0x15
80006078:	cc92a0b7          	lui	ra,0xcc92a
8000607c:	4cb37c13          	andi	s8,t1,1227
80006080:	0000100f          	fence.i
80006084:	023b4463          	blt	s6,gp,800060ac <sub_3_j5+0x1194>
80006088:	015ad993          	srli	s3,s5,0x15
8000608c:	409a5633          	sra	a2,s4,s1
80006090:	01bef5b3          	and	a1,t4,s11
80006094:	015ad993          	srli	s3,s5,0x15
80006098:	01d2d263          	bge	t0,t4,8000609c <sub_3_j5+0x1184>
8000609c:	0033c233          	xor	tp,t2,gp
800060a0:	00406333          	or	t1,zero,tp
800060a4:	5dff4793          	xori	a5,t5,1503
800060a8:	20648893          	addi	a7,s1,518
800060ac:	00ee3233          	sltu	tp,t3,a4
800060b0:	01bef5b3          	and	a1,t4,s11
800060b4:	000706b3          	add	a3,a4,zero
800060b8:	000706b3          	add	a3,a4,zero
800060bc:	01c4dbb3          	srl	s7,s1,t3
800060c0:	0ff0000f          	fence
800060c4:	01bef5b3          	and	a1,t4,s11
800060c8:	40ed8c33          	sub	s8,s11,a4
800060cc:	023b4c63          	blt	s6,gp,80006104 <sub_3_j5+0x11ec>
800060d0:	00ee3233          	sltu	tp,t3,a4
800060d4:	00000013          	nop
800060d8:	00000013          	nop
800060dc:	5dff4793          	xori	a5,t5,1503
800060e0:	018d1a63          	bne	s10,s8,800060f4 <sub_3_j5+0x11dc>
800060e4:	028c8863          	beq	s9,s0,80006114 <sub_3_j5+0x11fc>
800060e8:	00406333          	or	t1,zero,tp
800060ec:	20648893          	addi	a7,s1,518
800060f0:	008c8263          	beq	s9,s0,800060f4 <sub_3_j5+0x11dc>
800060f4:	00000013          	nop
800060f8:	038d1063          	bne	s10,s8,80006118 <sub_3_j5+0x1200>
800060fc:	409a5633          	sra	a2,s4,s1
80006100:	fb4ee413          	ori	s0,t4,-76
80006104:	20648893          	addi	a7,s1,518
80006108:	5dff4793          	xori	a5,t5,1503
8000610c:	023b4863          	blt	s6,gp,8000613c <sub_3_j5+0x1224>
80006110:	bce1a693          	slti	a3,gp,-1074
80006114:	00cea633          	slt	a2,t4,a2
80006118:	5dff4793          	xori	a5,t5,1503
8000611c:	0000100f          	fence.i
80006120:	000706b3          	add	a3,a4,zero
80006124:	01c4dbb3          	srl	s7,s1,t3
80006128:	000706b3          	add	a3,a4,zero
8000612c:	00000013          	nop
80006130:	000706b3          	add	a3,a4,zero
80006134:	01c4dbb3          	srl	s7,s1,t3
80006138:	01bef5b3          	and	a1,t4,s11
8000613c:	048c8063          	beq	s9,s0,8000617c <sub_3_j5+0x1264>
80006140:	01c4dbb3          	srl	s7,s1,t3
80006144:	fb4ee413          	ori	s0,t4,-76
80006148:	00cea633          	slt	a2,t4,a2
8000614c:	0000100f          	fence.i
80006150:	015f1093          	slli	ra,t5,0x15
80006154:	409a5633          	sra	a2,s4,s1
80006158:	00406333          	or	t1,zero,tp
8000615c:	00406333          	or	t1,zero,tp
80006160:	01a0ee63          	bltu	ra,s10,8000617c <sub_3_j5+0x1264>
80006164:	1d860217          	auipc	tp,0x1d860
80006168:	0000100f          	fence.i
8000616c:	409a5633          	sra	a2,s4,s1
80006170:	5dff4793          	xori	a5,t5,1503
80006174:	40ed8c33          	sub	s8,s11,a4
80006178:	01a0e263          	bltu	ra,s10,8000617c <sub_3_j5+0x1264>
8000617c:	bce1a693          	slti	a3,gp,-1074
80006180:	00406333          	or	t1,zero,tp
80006184:	0ff0000f          	fence
80006188:	0ff0000f          	fence
8000618c:	1d860217          	auipc	tp,0x1d860
80006190:	008c8a63          	beq	s9,s0,800061a4 <sub_3_j5+0x128c>
80006194:	1d860217          	auipc	tp,0x1d860
80006198:	006410b3          	sll	ra,s0,t1
8000619c:	20648893          	addi	a7,s1,518
800061a0:	409a5633          	sra	a2,s4,s1
800061a4:	00406333          	or	t1,zero,tp
800061a8:	043b4663          	blt	s6,gp,800061f4 <sub_3_j5+0x12dc>
800061ac:	01a0ee63          	bltu	ra,s10,800061c8 <sub_3_j5+0x12b0>
800061b0:	03457a63          	bgeu	a0,s4,800061e4 <sub_3_j5+0x12cc>
800061b4:	01bef5b3          	and	a1,t4,s11
800061b8:	4111dd93          	srai	s11,gp,0x11
800061bc:	409a5633          	sra	a2,s4,s1
800061c0:	fb4ee413          	ori	s0,t4,-76
800061c4:	01bef5b3          	and	a1,t4,s11
800061c8:	cc92a0b7          	lui	ra,0xcc92a
800061cc:	0ff0000f          	fence
800061d0:	b35a3893          	sltiu	a7,s4,-1227
800061d4:	01d2d663          	bge	t0,t4,800061e0 <sub_3_j5+0x12c8>
800061d8:	0000100f          	fence.i
800061dc:	003b4263          	blt	s6,gp,800061e0 <sub_3_j5+0x12c8>
800061e0:	4cb37c13          	andi	s8,t1,1227
800061e4:	20648893          	addi	a7,s1,518
800061e8:	40ed8c33          	sub	s8,s11,a4
800061ec:	0000100f          	fence.i
800061f0:	b35a3893          	sltiu	a7,s4,-1227
800061f4:	00406333          	or	t1,zero,tp
800061f8:	20648893          	addi	a7,s1,518
800061fc:	0000100f          	fence.i
80006200:	5dff4793          	xori	a5,t5,1503
80006204:	5dff4793          	xori	a5,t5,1503
80006208:	fb4ee413          	ori	s0,t4,-76
8000620c:	003b4e63          	blt	s6,gp,80006228 <sub_3_j5+0x1310>
80006210:	fb4ee413          	ori	s0,t4,-76
80006214:	015f1093          	slli	ra,t5,0x15
80006218:	1d860217          	auipc	tp,0x1d860
8000621c:	048c8063          	beq	s9,s0,8000625c <sub_3_j5+0x1344>
80006220:	01d2dc63          	bge	t0,t4,80006238 <sub_3_j5+0x1320>
80006224:	40ed8c33          	sub	s8,s11,a4
80006228:	00000013          	nop
8000622c:	00ee3233          	sltu	tp,t3,a4
80006230:	409a5633          	sra	a2,s4,s1
80006234:	00000013          	nop
80006238:	015ad993          	srli	s3,s5,0x15
8000623c:	20648893          	addi	a7,s1,518
80006240:	00000013          	nop
80006244:	0ff0000f          	fence
80006248:	0033c233          	xor	tp,t2,gp
8000624c:	023b4863          	blt	s6,gp,8000627c <sub_3_j5+0x1364>
80006250:	015f1093          	slli	ra,t5,0x15
80006254:	bce1a693          	slti	a3,gp,-1074
80006258:	cc92a0b7          	lui	ra,0xcc92a
8000625c:	023b4063          	blt	s6,gp,8000627c <sub_3_j5+0x1364>
80006260:	028c8863          	beq	s9,s0,80006290 <sub_3_j5+0x1378>
80006264:	00ee3233          	sltu	tp,t3,a4
80006268:	01457263          	bgeu	a0,s4,8000626c <sub_3_j5+0x1354>
8000626c:	00ee3233          	sltu	tp,t3,a4
80006270:	cc92a0b7          	lui	ra,0xcc92a
80006274:	5dff4793          	xori	a5,t5,1503
80006278:	00406333          	or	t1,zero,tp
8000627c:	01bef5b3          	and	a1,t4,s11
80006280:	1d860217          	auipc	tp,0x1d860
80006284:	20648893          	addi	a7,s1,518
80006288:	00406333          	or	t1,zero,tp
8000628c:	015ad993          	srli	s3,s5,0x15
80006290:	cc92a0b7          	lui	ra,0xcc92a
80006294:	028c8863          	beq	s9,s0,800062c4 <sub_3_j5+0x13ac>
80006298:	015f1093          	slli	ra,t5,0x15
8000629c:	015f1093          	slli	ra,t5,0x15
800062a0:	4cb37c13          	andi	s8,t1,1227
800062a4:	4cb37c13          	andi	s8,t1,1227
800062a8:	00cea633          	slt	a2,t4,a2
800062ac:	015ad993          	srli	s3,s5,0x15
800062b0:	03457463          	bgeu	a0,s4,800062d8 <sub_3_j5+0x13c0>
800062b4:	20648893          	addi	a7,s1,518
800062b8:	008c8a63          	beq	s9,s0,800062cc <sub_3_j5+0x13b4>
800062bc:	20648893          	addi	a7,s1,518
800062c0:	01a0e263          	bltu	ra,s10,800062c4 <sub_3_j5+0x13ac>
800062c4:	05a0e263          	bltu	ra,s10,80006308 <sub_3_j5+0x13f0>
800062c8:	000706b3          	add	a3,a4,zero
800062cc:	028c8463          	beq	s9,s0,800062f4 <sub_3_j5+0x13dc>
800062d0:	01c4dbb3          	srl	s7,s1,t3
800062d4:	0033c233          	xor	tp,t2,gp
800062d8:	00ee3233          	sltu	tp,t3,a4
800062dc:	03457263          	bgeu	a0,s4,80006300 <sub_3_j5+0x13e8>
800062e0:	028c8263          	beq	s9,s0,80006304 <sub_3_j5+0x13ec>
800062e4:	000706b3          	add	a3,a4,zero
800062e8:	409a5633          	sra	a2,s4,s1
800062ec:	5dff4793          	xori	a5,t5,1503
800062f0:	0ff0000f          	fence
800062f4:	015f1093          	slli	ra,t5,0x15
800062f8:	5dff4793          	xori	a5,t5,1503
800062fc:	5dff4793          	xori	a5,t5,1503
80006300:	0ff0000f          	fence
80006304:	003b4263          	blt	s6,gp,80006308 <sub_3_j5+0x13f0>
80006308:	028c8263          	beq	s9,s0,8000632c <sub_3_j5+0x1414>
8000630c:	048c8063          	beq	s9,s0,8000634c <sub_3_j5+0x1434>
80006310:	b35a3893          	sltiu	a7,s4,-1227
80006314:	00cea633          	slt	a2,t4,a2
80006318:	006410b3          	sll	ra,s0,t1
8000631c:	1d860217          	auipc	tp,0x1d860
80006320:	006410b3          	sll	ra,s0,t1
80006324:	b35a3893          	sltiu	a7,s4,-1227
80006328:	4cb37c13          	andi	s8,t1,1227
8000632c:	0033c233          	xor	tp,t2,gp
80006330:	01c4dbb3          	srl	s7,s1,t3
80006334:	048c8663          	beq	s9,s0,80006380 <sub_3_j5+0x1468>
80006338:	003b4a63          	blt	s6,gp,8000634c <sub_3_j5+0x1434>
8000633c:	0033c233          	xor	tp,t2,gp
80006340:	cc92a0b7          	lui	ra,0xcc92a
80006344:	409a5633          	sra	a2,s4,s1
80006348:	015f1093          	slli	ra,t5,0x15
8000634c:	01bef5b3          	and	a1,t4,s11
80006350:	023b4c63          	blt	s6,gp,80006388 <sub_3_j5+0x1470>
80006354:	03d2d863          	bge	t0,t4,80006384 <sub_3_j5+0x146c>
80006358:	00000013          	nop
8000635c:	00cea633          	slt	a2,t4,a2
80006360:	4111dd93          	srai	s11,gp,0x11
80006364:	0033c233          	xor	tp,t2,gp
80006368:	05a0e063          	bltu	ra,s10,800063a8 <sub_3_j5+0x1490>
8000636c:	cc92a0b7          	lui	ra,0xcc92a
80006370:	1d860217          	auipc	tp,0x1d860
80006374:	01c4dbb3          	srl	s7,s1,t3
80006378:	03d2da63          	bge	t0,t4,800063ac <sub_3_j5+0x1494>
8000637c:	015ad993          	srli	s3,s5,0x15
80006380:	fb4ee413          	ori	s0,t4,-76
80006384:	038d1063          	bne	s10,s8,800063a4 <sub_3_j5+0x148c>
80006388:	01bef5b3          	and	a1,t4,s11
8000638c:	00cea633          	slt	a2,t4,a2
80006390:	03457863          	bgeu	a0,s4,800063c0 <sub_3_j5+0x14a8>
80006394:	bce1a693          	slti	a3,gp,-1074
80006398:	cc92a0b7          	lui	ra,0xcc92a
8000639c:	0000100f          	fence.i
800063a0:	03457263          	bgeu	a0,s4,800063c4 <sub_3_j5+0x14ac>
800063a4:	0033c233          	xor	tp,t2,gp
800063a8:	40ed8c33          	sub	s8,s11,a4
800063ac:	03a0e063          	bltu	ra,s10,800063cc <sub_3_j5+0x14b4>
800063b0:	01a0e663          	bltu	ra,s10,800063bc <sub_3_j5+0x14a4>
800063b4:	b35a3893          	sltiu	a7,s4,-1227
800063b8:	05a0e063          	bltu	ra,s10,800063f8 <sub_3_j5+0x14e0>
800063bc:	bce1a693          	slti	a3,gp,-1074
800063c0:	cc92a0b7          	lui	ra,0xcc92a
800063c4:	0ff0000f          	fence
800063c8:	01bef5b3          	and	a1,t4,s11
800063cc:	01bef5b3          	and	a1,t4,s11
800063d0:	409a5633          	sra	a2,s4,s1
800063d4:	018d1263          	bne	s10,s8,800063d8 <sub_3_j5+0x14c0>
800063d8:	4111dd93          	srai	s11,gp,0x11
800063dc:	058d1263          	bne	s10,s8,80006420 <sub_3_j5+0x1508>
800063e0:	00cea633          	slt	a2,t4,a2
800063e4:	015f1093          	slli	ra,t5,0x15
800063e8:	0000100f          	fence.i
800063ec:	00ee3233          	sltu	tp,t3,a4
800063f0:	20648893          	addi	a7,s1,518
800063f4:	03457a63          	bgeu	a0,s4,80006428 <sub_3_j5+0x1510>
800063f8:	fb4ee413          	ori	s0,t4,-76
800063fc:	01bef5b3          	and	a1,t4,s11
80006400:	cc92a0b7          	lui	ra,0xcc92a
80006404:	015ad993          	srli	s3,s5,0x15
80006408:	4111dd93          	srai	s11,gp,0x11
8000640c:	409a5633          	sra	a2,s4,s1
80006410:	fb4ee413          	ori	s0,t4,-76
80006414:	015f1093          	slli	ra,t5,0x15
80006418:	023b4063          	blt	s6,gp,80006438 <sub_3_j5+0x1520>
8000641c:	01bef5b3          	and	a1,t4,s11
80006420:	00406333          	or	t1,zero,tp
80006424:	01bef5b3          	and	a1,t4,s11
80006428:	01a0ee63          	bltu	ra,s10,80006444 <sub_3_j5+0x152c>
8000642c:	bce1a693          	slti	a3,gp,-1074
80006430:	1d860217          	auipc	tp,0x1d860
80006434:	006410b3          	sll	ra,s0,t1
80006438:	038d1c63          	bne	s10,s8,80006470 <sub_3_j5+0x1558>
8000643c:	40ed8c33          	sub	s8,s11,a4
80006440:	006410b3          	sll	ra,s0,t1
80006444:	028c8863          	beq	s9,s0,80006474 <sub_3_j5+0x155c>
80006448:	006410b3          	sll	ra,s0,t1
8000644c:	00000013          	nop
80006450:	006410b3          	sll	ra,s0,t1
80006454:	01c4dbb3          	srl	s7,s1,t3
80006458:	015ad993          	srli	s3,s5,0x15
8000645c:	0033c233          	xor	tp,t2,gp
80006460:	048c8663          	beq	s9,s0,800064ac <sub_3_j5+0x1594>
80006464:	01d2d263          	bge	t0,t4,80006468 <sub_3_j5+0x1550>
80006468:	028c8863          	beq	s9,s0,80006498 <sub_3_j5+0x1580>
8000646c:	20648893          	addi	a7,s1,518
80006470:	00406333          	or	t1,zero,tp
80006474:	015f1093          	slli	ra,t5,0x15
80006478:	03457463          	bgeu	a0,s4,800064a0 <sub_3_j5+0x1588>
8000647c:	bce1a693          	slti	a3,gp,-1074
80006480:	5dff4793          	xori	a5,t5,1503
80006484:	40ed8c33          	sub	s8,s11,a4
80006488:	01c4dbb3          	srl	s7,s1,t3
8000648c:	015f1093          	slli	ra,t5,0x15
80006490:	01457263          	bgeu	a0,s4,80006494 <sub_3_j5+0x157c>
80006494:	015ad993          	srli	s3,s5,0x15
80006498:	043b4063          	blt	s6,gp,800064d8 <sub_3_j5+0x15c0>
8000649c:	03457463          	bgeu	a0,s4,800064c4 <sub_3_j5+0x15ac>
800064a0:	0033c233          	xor	tp,t2,gp
800064a4:	5dff4793          	xori	a5,t5,1503
800064a8:	00ee3233          	sltu	tp,t3,a4
800064ac:	5dff4793          	xori	a5,t5,1503
800064b0:	015ad993          	srli	s3,s5,0x15
800064b4:	20648893          	addi	a7,s1,518
800064b8:	000706b3          	add	a3,a4,zero
800064bc:	01c4dbb3          	srl	s7,s1,t3
800064c0:	00000013          	nop
800064c4:	03d2d863          	bge	t0,t4,800064f4 <sub_3_j5+0x15dc>
800064c8:	015ad993          	srli	s3,s5,0x15
800064cc:	006410b3          	sll	ra,s0,t1
800064d0:	00cea633          	slt	a2,t4,a2
800064d4:	01bef5b3          	and	a1,t4,s11
800064d8:	000706b3          	add	a3,a4,zero
800064dc:	bce1a693          	slti	a3,gp,-1074
800064e0:	cc92a0b7          	lui	ra,0xcc92a
800064e4:	40ed8c33          	sub	s8,s11,a4
800064e8:	fb4ee413          	ori	s0,t4,-76
800064ec:	5dff4793          	xori	a5,t5,1503
800064f0:	0ff0000f          	fence
800064f4:	40ed8c33          	sub	s8,s11,a4
800064f8:	03457863          	bgeu	a0,s4,80006528 <sub_3_j5+0x1610>
800064fc:	0033c233          	xor	tp,t2,gp
80006500:	20648893          	addi	a7,s1,518
80006504:	01d2da63          	bge	t0,t4,80006518 <sub_3_j5+0x1600>
80006508:	01457a63          	bgeu	a0,s4,8000651c <sub_3_j5+0x1604>
8000650c:	0033c233          	xor	tp,t2,gp
80006510:	01457c63          	bgeu	a0,s4,80006528 <sub_3_j5+0x1610>
80006514:	40ed8c33          	sub	s8,s11,a4
80006518:	4111dd93          	srai	s11,gp,0x11
8000651c:	00000013          	nop
80006520:	0ff0000f          	fence
80006524:	01bef5b3          	and	a1,t4,s11
80006528:	1d860217          	auipc	tp,0x1d860
8000652c:	0ff0000f          	fence
80006530:	cc92a0b7          	lui	ra,0xcc92a
80006534:	4cb37c13          	andi	s8,t1,1227
80006538:	058d1063          	bne	s10,s8,80006578 <sub_3_j5+0x1660>
8000653c:	03a0e863          	bltu	ra,s10,8000656c <sub_3_j5+0x1654>
80006540:	5dff4793          	xori	a5,t5,1503
80006544:	006410b3          	sll	ra,s0,t1
80006548:	015ad993          	srli	s3,s5,0x15
8000654c:	409a5633          	sra	a2,s4,s1
80006550:	038d1263          	bne	s10,s8,80006574 <sub_3_j5+0x165c>
80006554:	01a0e263          	bltu	ra,s10,80006558 <sub_3_j5+0x1640>
80006558:	01c4dbb3          	srl	s7,s1,t3
8000655c:	000706b3          	add	a3,a4,zero
80006560:	0000100f          	fence.i
80006564:	0ff0000f          	fence
80006568:	b35a3893          	sltiu	a7,s4,-1227
8000656c:	4111dd93          	srai	s11,gp,0x11
80006570:	0ff0000f          	fence
80006574:	bce1a693          	slti	a3,gp,-1074
80006578:	0ff0000f          	fence
8000657c:	5dff4793          	xori	a5,t5,1503
80006580:	bce1a693          	slti	a3,gp,-1074
80006584:	40ed8c33          	sub	s8,s11,a4
80006588:	000706b3          	add	a3,a4,zero
8000658c:	bce1a693          	slti	a3,gp,-1074
80006590:	023b4a63          	blt	s6,gp,800065c4 <sub_3_j5+0x16ac>
80006594:	028c8263          	beq	s9,s0,800065b8 <sub_3_j5+0x16a0>
80006598:	008c8e63          	beq	s9,s0,800065b4 <sub_3_j5+0x169c>
8000659c:	bce1a693          	slti	a3,gp,-1074
800065a0:	015ad993          	srli	s3,s5,0x15
800065a4:	05a0e263          	bltu	ra,s10,800065e8 <sub_3_j5+0x16d0>
800065a8:	20648893          	addi	a7,s1,518
800065ac:	015f1093          	slli	ra,t5,0x15
800065b0:	015ad993          	srli	s3,s5,0x15
800065b4:	03457463          	bgeu	a0,s4,800065dc <sub_3_j5+0x16c4>
800065b8:	00ee3233          	sltu	tp,t3,a4
800065bc:	bce1a693          	slti	a3,gp,-1074
800065c0:	4111dd93          	srai	s11,gp,0x11
800065c4:	003b4663          	blt	s6,gp,800065d0 <sub_3_j5+0x16b8>
800065c8:	00406333          	or	t1,zero,tp
800065cc:	00ee3233          	sltu	tp,t3,a4
800065d0:	4cb37c13          	andi	s8,t1,1227
800065d4:	03a0ea63          	bltu	ra,s10,80006608 <sub_3_j5+0x16f0>
800065d8:	20648893          	addi	a7,s1,518
800065dc:	015ad993          	srli	s3,s5,0x15
800065e0:	cc92a0b7          	lui	ra,0xcc92a
800065e4:	038d1c63          	bne	s10,s8,8000661c <sub_3_j5+0x1704>
800065e8:	015ad993          	srli	s3,s5,0x15
800065ec:	01c4dbb3          	srl	s7,s1,t3
800065f0:	5dff4793          	xori	a5,t5,1503
800065f4:	0033c233          	xor	tp,t2,gp
800065f8:	01bef5b3          	and	a1,t4,s11
800065fc:	20648893          	addi	a7,s1,518
80006600:	00cea633          	slt	a2,t4,a2
80006604:	cc92a0b7          	lui	ra,0xcc92a
80006608:	40ed8c33          	sub	s8,s11,a4
8000660c:	01c4dbb3          	srl	s7,s1,t3
80006610:	cc92a0b7          	lui	ra,0xcc92a
80006614:	4cb37c13          	andi	s8,t1,1227
80006618:	1d860217          	auipc	tp,0x1d860
8000661c:	5dff4793          	xori	a5,t5,1503
80006620:	038d1463          	bne	s10,s8,80006648 <sub_3_j5+0x1730>
80006624:	b35a3893          	sltiu	a7,s4,-1227
80006628:	cc92a0b7          	lui	ra,0xcc92a
8000662c:	0033c233          	xor	tp,t2,gp
80006630:	4111dd93          	srai	s11,gp,0x11
80006634:	20648893          	addi	a7,s1,518
80006638:	20648893          	addi	a7,s1,518
8000663c:	00ee3233          	sltu	tp,t3,a4
80006640:	03d2d263          	bge	t0,t4,80006664 <sub_3_j5+0x174c>
80006644:	409a5633          	sra	a2,s4,s1
80006648:	4111dd93          	srai	s11,gp,0x11
8000664c:	00cea633          	slt	a2,t4,a2
80006650:	038d1863          	bne	s10,s8,80006680 <sub_3_j5+0x1768>
80006654:	00ee3233          	sltu	tp,t3,a4
80006658:	05a0e063          	bltu	ra,s10,80006698 <sub_3_j5+0x1780>
8000665c:	fb4ee413          	ori	s0,t4,-76
80006660:	1d860217          	auipc	tp,0x1d860
80006664:	015f1093          	slli	ra,t5,0x15
80006668:	00406333          	or	t1,zero,tp
8000666c:	1d860217          	auipc	tp,0x1d860
80006670:	028c8863          	beq	s9,s0,800066a0 <sub_3_j5+0x1788>
80006674:	bce1a693          	slti	a3,gp,-1074
80006678:	40ed8c33          	sub	s8,s11,a4
8000667c:	038d1863          	bne	s10,s8,800066ac <sub_3_j5+0x1794>
80006680:	03457263          	bgeu	a0,s4,800066a4 <sub_3_j5+0x178c>
80006684:	01bef5b3          	and	a1,t4,s11
80006688:	0033c233          	xor	tp,t2,gp
8000668c:	0000100f          	fence.i
80006690:	018d1a63          	bne	s10,s8,800066a4 <sub_3_j5+0x178c>
80006694:	01bef5b3          	and	a1,t4,s11
80006698:	00406333          	or	t1,zero,tp
8000669c:	cc92a0b7          	lui	ra,0xcc92a
800066a0:	00cea633          	slt	a2,t4,a2
800066a4:	008c8263          	beq	s9,s0,800066a8 <sub_3_j5+0x1790>
800066a8:	5dff4793          	xori	a5,t5,1503
800066ac:	20648893          	addi	a7,s1,518
800066b0:	048c8063          	beq	s9,s0,800066f0 <sub_3_j5+0x17d8>
800066b4:	015f1093          	slli	ra,t5,0x15
800066b8:	03457063          	bgeu	a0,s4,800066d8 <sub_3_j5+0x17c0>
800066bc:	00406333          	or	t1,zero,tp
800066c0:	cc92a0b7          	lui	ra,0xcc92a
800066c4:	003b4e63          	blt	s6,gp,800066e0 <sub_3_j5+0x17c8>
800066c8:	015f1093          	slli	ra,t5,0x15
800066cc:	bce1a693          	slti	a3,gp,-1074
800066d0:	0033c233          	xor	tp,t2,gp
800066d4:	1d860217          	auipc	tp,0x1d860
800066d8:	000706b3          	add	a3,a4,zero
800066dc:	015ad993          	srli	s3,s5,0x15
800066e0:	0ff0000f          	fence
800066e4:	bce1a693          	slti	a3,gp,-1074
800066e8:	015f1093          	slli	ra,t5,0x15
800066ec:	00000013          	nop
800066f0:	5dff4793          	xori	a5,t5,1503
800066f4:	058d1063          	bne	s10,s8,80006734 <sub_3_j5+0x181c>
800066f8:	cc92a0b7          	lui	ra,0xcc92a
800066fc:	05457663          	bgeu	a0,s4,80006748 <sub_3_j5+0x1830>
80006700:	015f1093          	slli	ra,t5,0x15
80006704:	000706b3          	add	a3,a4,zero
80006708:	01bef5b3          	and	a1,t4,s11
8000670c:	00cea633          	slt	a2,t4,a2
80006710:	40ed8c33          	sub	s8,s11,a4
80006714:	4cb37c13          	andi	s8,t1,1227
80006718:	000706b3          	add	a3,a4,zero
8000671c:	00000013          	nop
80006720:	00406333          	or	t1,zero,tp
80006724:	b35a3893          	sltiu	a7,s4,-1227
80006728:	00000013          	nop
8000672c:	000706b3          	add	a3,a4,zero
80006730:	015ad993          	srli	s3,s5,0x15
80006734:	006410b3          	sll	ra,s0,t1
80006738:	00cea633          	slt	a2,t4,a2
8000673c:	40ed8c33          	sub	s8,s11,a4
80006740:	01457263          	bgeu	a0,s4,80006744 <sub_3_j5+0x182c>
80006744:	000706b3          	add	a3,a4,zero
80006748:	5dff4793          	xori	a5,t5,1503
8000674c:	008c8a63          	beq	s9,s0,80006760 <sub_3_j5+0x1848>
80006750:	00ee3233          	sltu	tp,t3,a4
80006754:	00ee3233          	sltu	tp,t3,a4
80006758:	015f1093          	slli	ra,t5,0x15
8000675c:	01d2d263          	bge	t0,t4,80006760 <sub_3_j5+0x1848>
80006760:	006410b3          	sll	ra,s0,t1
80006764:	0ff0000f          	fence
80006768:	fb4ee413          	ori	s0,t4,-76
8000676c:	409a5633          	sra	a2,s4,s1
80006770:	03d2d863          	bge	t0,t4,800067a0 <sub_3_j5+0x1888>
80006774:	00406333          	or	t1,zero,tp
80006778:	00ee3233          	sltu	tp,t3,a4
8000677c:	03d2d263          	bge	t0,t4,800067a0 <sub_3_j5+0x1888>
80006780:	fb4ee413          	ori	s0,t4,-76
80006784:	cc92a0b7          	lui	ra,0xcc92a
80006788:	01bef5b3          	and	a1,t4,s11
8000678c:	20648893          	addi	a7,s1,518
80006790:	20648893          	addi	a7,s1,518
80006794:	006410b3          	sll	ra,s0,t1
80006798:	cc92a0b7          	lui	ra,0xcc92a
8000679c:	01a0ee63          	bltu	ra,s10,800067b8 <sub_3_j5+0x18a0>
800067a0:	5dff4793          	xori	a5,t5,1503
800067a4:	00406333          	or	t1,zero,tp
800067a8:	01a0e263          	bltu	ra,s10,800067ac <sub_3_j5+0x1894>
800067ac:	b35a3893          	sltiu	a7,s4,-1227
800067b0:	bce1a693          	slti	a3,gp,-1074
800067b4:	03d2d863          	bge	t0,t4,800067e4 <sub_3_j5+0x18cc>
800067b8:	0033c233          	xor	tp,t2,gp
800067bc:	015f1093          	slli	ra,t5,0x15
800067c0:	00406333          	or	t1,zero,tp
800067c4:	01c4dbb3          	srl	s7,s1,t3
800067c8:	20648893          	addi	a7,s1,518
800067cc:	bce1a693          	slti	a3,gp,-1074
800067d0:	4cb37c13          	andi	s8,t1,1227
800067d4:	409a5633          	sra	a2,s4,s1
800067d8:	bce1a693          	slti	a3,gp,-1074
800067dc:	0033c233          	xor	tp,t2,gp
800067e0:	03d2da63          	bge	t0,t4,80006814 <sub_3_j5+0x18fc>
800067e4:	5dff4793          	xori	a5,t5,1503
800067e8:	01457c63          	bgeu	a0,s4,80006800 <sub_3_j5+0x18e8>
800067ec:	40ed8c33          	sub	s8,s11,a4
800067f0:	038d1063          	bne	s10,s8,80006810 <sub_3_j5+0x18f8>
800067f4:	015ad993          	srli	s3,s5,0x15
800067f8:	cc92a0b7          	lui	ra,0xcc92a
800067fc:	5dff4793          	xori	a5,t5,1503
80006800:	409a5633          	sra	a2,s4,s1
80006804:	00ee3233          	sltu	tp,t3,a4
80006808:	01c4dbb3          	srl	s7,s1,t3
8000680c:	03457263          	bgeu	a0,s4,80006830 <sub_3_j5+0x1918>
80006810:	40ed8c33          	sub	s8,s11,a4
80006814:	fb4ee413          	ori	s0,t4,-76
80006818:	bce1a693          	slti	a3,gp,-1074
8000681c:	00cea633          	slt	a2,t4,a2
80006820:	0033c233          	xor	tp,t2,gp
80006824:	fb4ee413          	ori	s0,t4,-76
80006828:	40ed8c33          	sub	s8,s11,a4
8000682c:	1d860217          	auipc	tp,0x1d860
80006830:	00cea633          	slt	a2,t4,a2
80006834:	003b4263          	blt	s6,gp,80006838 <sub_3_j5+0x1920>
80006838:	058d1063          	bne	s10,s8,80006878 <sub_3_j5+0x1960>
8000683c:	cc92a0b7          	lui	ra,0xcc92a
80006840:	006410b3          	sll	ra,s0,t1
80006844:	4111dd93          	srai	s11,gp,0x11
80006848:	0033c233          	xor	tp,t2,gp
8000684c:	0033c233          	xor	tp,t2,gp
80006850:	40ed8c33          	sub	s8,s11,a4
80006854:	05a0e263          	bltu	ra,s10,80006898 <sub_3_j5+0x1980>
80006858:	000706b3          	add	a3,a4,zero
8000685c:	05a0e063          	bltu	ra,s10,8000689c <sub_3_j5+0x1984>
80006860:	40ed8c33          	sub	s8,s11,a4
80006864:	409a5633          	sra	a2,s4,s1
80006868:	01bef5b3          	and	a1,t4,s11
8000686c:	00000013          	nop
80006870:	5dff4793          	xori	a5,t5,1503
80006874:	003b4e63          	blt	s6,gp,80006890 <sub_3_j5+0x1978>
80006878:	20648893          	addi	a7,s1,518
8000687c:	00cea633          	slt	a2,t4,a2
80006880:	00000013          	nop
80006884:	1d860217          	auipc	tp,0x1d860
80006888:	00cea633          	slt	a2,t4,a2
8000688c:	0ff0000f          	fence
80006890:	00ee3233          	sltu	tp,t3,a4
80006894:	00cea633          	slt	a2,t4,a2
80006898:	fb4ee413          	ori	s0,t4,-76
8000689c:	fb4ee413          	ori	s0,t4,-76
800068a0:	0033c233          	xor	tp,t2,gp
800068a4:	1d860217          	auipc	tp,0x1d860
800068a8:	00406333          	or	t1,zero,tp
800068ac:	bce1a693          	slti	a3,gp,-1074
800068b0:	015f1093          	slli	ra,t5,0x15
800068b4:	5dff4793          	xori	a5,t5,1503
800068b8:	cc92a0b7          	lui	ra,0xcc92a
800068bc:	fb4ee413          	ori	s0,t4,-76
800068c0:	5dff4793          	xori	a5,t5,1503
800068c4:	000706b3          	add	a3,a4,zero
800068c8:	028c8a63          	beq	s9,s0,800068fc <sub_3_j5+0x19e4>
800068cc:	cc92a0b7          	lui	ra,0xcc92a
800068d0:	015ad993          	srli	s3,s5,0x15
800068d4:	003b4263          	blt	s6,gp,800068d8 <sub_3_j5+0x19c0>
800068d8:	4111dd93          	srai	s11,gp,0x11
800068dc:	1d860217          	auipc	tp,0x1d860
800068e0:	043b4063          	blt	s6,gp,80006920 <sub_3_j5+0x1a08>
800068e4:	01d2da63          	bge	t0,t4,800068f8 <sub_3_j5+0x19e0>
800068e8:	015f1093          	slli	ra,t5,0x15
800068ec:	00000013          	nop
800068f0:	03d2d263          	bge	t0,t4,80006914 <sub_3_j5+0x19fc>
800068f4:	015ad993          	srli	s3,s5,0x15
800068f8:	0000100f          	fence.i
800068fc:	00000013          	nop
80006900:	1d860217          	auipc	tp,0x1d860
80006904:	003b4c63          	blt	s6,gp,8000691c <sub_3_j5+0x1a04>
80006908:	4cb37c13          	andi	s8,t1,1227
8000690c:	4111dd93          	srai	s11,gp,0x11
80006910:	0ff0000f          	fence
80006914:	409a5633          	sra	a2,s4,s1
80006918:	038d1863          	bne	s10,s8,80006948 <sub_3_j5+0x1a30>
8000691c:	0000100f          	fence.i
80006920:	01c4dbb3          	srl	s7,s1,t3
80006924:	03a0e863          	bltu	ra,s10,80006954 <sub_3_j5+0x1a3c>
80006928:	00000013          	nop
8000692c:	40ed8c33          	sub	s8,s11,a4
80006930:	0033c233          	xor	tp,t2,gp
80006934:	023b4463          	blt	s6,gp,8000695c <sub_3_j5+0x1a44>
80006938:	00000013          	nop
8000693c:	006410b3          	sll	ra,s0,t1
80006940:	008c8a63          	beq	s9,s0,80006954 <sub_3_j5+0x1a3c>
80006944:	03a0e863          	bltu	ra,s10,80006974 <sub_3_j5+0x1a5c>
80006948:	003b4663          	blt	s6,gp,80006954 <sub_3_j5+0x1a3c>
8000694c:	4111dd93          	srai	s11,gp,0x11
80006950:	20648893          	addi	a7,s1,518
80006954:	03457a63          	bgeu	a0,s4,80006988 <sub_3_j5+0x1a70>
80006958:	006410b3          	sll	ra,s0,t1
8000695c:	038d1063          	bne	s10,s8,8000697c <sub_3_j5+0x1a64>
80006960:	03a0e063          	bltu	ra,s10,80006980 <sub_3_j5+0x1a68>
80006964:	01c4dbb3          	srl	s7,s1,t3
80006968:	03a0e863          	bltu	ra,s10,80006998 <sub_3_j5+0x1a80>
8000696c:	03457263          	bgeu	a0,s4,80006990 <sub_3_j5+0x1a78>
80006970:	015ad993          	srli	s3,s5,0x15
80006974:	00cea633          	slt	a2,t4,a2
80006978:	409a5633          	sra	a2,s4,s1
8000697c:	b35a3893          	sltiu	a7,s4,-1227
80006980:	40ed8c33          	sub	s8,s11,a4
80006984:	1d860217          	auipc	tp,0x1d860
80006988:	fb4ee413          	ori	s0,t4,-76
8000698c:	cc92a0b7          	lui	ra,0xcc92a
80006990:	015f1093          	slli	ra,t5,0x15
80006994:	bce1a693          	slti	a3,gp,-1074
80006998:	4cb37c13          	andi	s8,t1,1227
8000699c:	01d2de63          	bge	t0,t4,800069b8 <sub_3_j5+0x1aa0>
800069a0:	043b4663          	blt	s6,gp,800069ec <sub_3_j5+0x1ad4>
800069a4:	0033c233          	xor	tp,t2,gp
800069a8:	00000013          	nop
800069ac:	20648893          	addi	a7,s1,518
800069b0:	038d1c63          	bne	s10,s8,800069e8 <sub_3_j5+0x1ad0>
800069b4:	1d860217          	auipc	tp,0x1d860
800069b8:	01457263          	bgeu	a0,s4,800069bc <sub_3_j5+0x1aa4>
800069bc:	023b4863          	blt	s6,gp,800069ec <sub_3_j5+0x1ad4>
800069c0:	40ed8c33          	sub	s8,s11,a4
800069c4:	409a5633          	sra	a2,s4,s1
800069c8:	01c4dbb3          	srl	s7,s1,t3
800069cc:	fb4ee413          	ori	s0,t4,-76
800069d0:	01c4dbb3          	srl	s7,s1,t3
800069d4:	0033c233          	xor	tp,t2,gp
800069d8:	00406333          	or	t1,zero,tp
800069dc:	20648893          	addi	a7,s1,518
800069e0:	00000013          	nop
800069e4:	006410b3          	sll	ra,s0,t1
800069e8:	015f1093          	slli	ra,t5,0x15
800069ec:	01c4dbb3          	srl	s7,s1,t3
800069f0:	03457463          	bgeu	a0,s4,80006a18 <sub_3_j5+0x1b00>
800069f4:	01457263          	bgeu	a0,s4,800069f8 <sub_3_j5+0x1ae0>
800069f8:	023b4863          	blt	s6,gp,80006a28 <sub_3_j5+0x1b10>
800069fc:	5dff4793          	xori	a5,t5,1503
80006a00:	5dff4793          	xori	a5,t5,1503
80006a04:	003b4a63          	blt	s6,gp,80006a18 <sub_3_j5+0x1b00>
80006a08:	cc92a0b7          	lui	ra,0xcc92a
80006a0c:	5dff4793          	xori	a5,t5,1503
80006a10:	fb4ee413          	ori	s0,t4,-76
80006a14:	20648893          	addi	a7,s1,518
80006a18:	015f1093          	slli	ra,t5,0x15
80006a1c:	cc92a0b7          	lui	ra,0xcc92a
80006a20:	4cb37c13          	andi	s8,t1,1227
80006a24:	0033c233          	xor	tp,t2,gp
80006a28:	0ff0000f          	fence
80006a2c:	bce1a693          	slti	a3,gp,-1074
80006a30:	4111dd93          	srai	s11,gp,0x11
80006a34:	0ff0000f          	fence
80006a38:	b35a3893          	sltiu	a7,s4,-1227
80006a3c:	00ee3233          	sltu	tp,t3,a4
80006a40:	03d2d863          	bge	t0,t4,80006a70 <sub_3_j5+0x1b58>
80006a44:	5dff4793          	xori	a5,t5,1503
80006a48:	000706b3          	add	a3,a4,zero
80006a4c:	1d860217          	auipc	tp,0x1d860
80006a50:	01c4dbb3          	srl	s7,s1,t3
80006a54:	018d1663          	bne	s10,s8,80006a60 <sub_3_j5+0x1b48>
80006a58:	023b4a63          	blt	s6,gp,80006a8c <sub_3_j5+0x1b74>
80006a5c:	015ad993          	srli	s3,s5,0x15
80006a60:	00cea633          	slt	a2,t4,a2
80006a64:	1d860217          	auipc	tp,0x1d860
80006a68:	00ee3233          	sltu	tp,t3,a4
80006a6c:	01c4dbb3          	srl	s7,s1,t3
80006a70:	00000013          	nop
80006a74:	003b4a63          	blt	s6,gp,80006a88 <sub_3_j5+0x1b70>
80006a78:	cc92a0b7          	lui	ra,0xcc92a
80006a7c:	0033c233          	xor	tp,t2,gp
80006a80:	b35a3893          	sltiu	a7,s4,-1227
80006a84:	20648893          	addi	a7,s1,518
80006a88:	0033c233          	xor	tp,t2,gp
80006a8c:	03457a63          	bgeu	a0,s4,80006ac0 <sub_3_j5+0x1ba8>
80006a90:	008c8e63          	beq	s9,s0,80006aac <sub_3_j5+0x1b94>
80006a94:	4cb37c13          	andi	s8,t1,1227
80006a98:	000706b3          	add	a3,a4,zero
80006a9c:	bce1a693          	slti	a3,gp,-1074
80006aa0:	015ad993          	srli	s3,s5,0x15
80006aa4:	00000013          	nop
80006aa8:	023b4863          	blt	s6,gp,80006ad8 <sub_3_j5+0x1bc0>
80006aac:	fb4ee413          	ori	s0,t4,-76
80006ab0:	5dff4793          	xori	a5,t5,1503
80006ab4:	008c8263          	beq	s9,s0,80006ab8 <sub_3_j5+0x1ba0>
80006ab8:	00cea633          	slt	a2,t4,a2
80006abc:	015f1093          	slli	ra,t5,0x15
80006ac0:	0000100f          	fence.i
80006ac4:	4111dd93          	srai	s11,gp,0x11
80006ac8:	043b4063          	blt	s6,gp,80006b08 <sub_3_j5+0x1bf0>
80006acc:	015ad993          	srli	s3,s5,0x15
80006ad0:	409a5633          	sra	a2,s4,s1
80006ad4:	b35a3893          	sltiu	a7,s4,-1227
80006ad8:	cc92a0b7          	lui	ra,0xcc92a
80006adc:	4cb37c13          	andi	s8,t1,1227
80006ae0:	00ee3233          	sltu	tp,t3,a4
80006ae4:	4111dd93          	srai	s11,gp,0x11
80006ae8:	000706b3          	add	a3,a4,zero
80006aec:	03457463          	bgeu	a0,s4,80006b14 <sub_3_j5+0x1bfc>
80006af0:	0000100f          	fence.i
80006af4:	038d1863          	bne	s10,s8,80006b24 <sub_3_j5+0x1c0c>
80006af8:	cc92a0b7          	lui	ra,0xcc92a
80006afc:	5dff4793          	xori	a5,t5,1503
80006b00:	01bef5b3          	and	a1,t4,s11
80006b04:	0000100f          	fence.i
80006b08:	00000013          	nop
80006b0c:	01d2dc63          	bge	t0,t4,80006b24 <sub_3_j5+0x1c0c>
80006b10:	000706b3          	add	a3,a4,zero
80006b14:	01457e63          	bgeu	a0,s4,80006b30 <sub_3_j5+0x1c18>
80006b18:	015ad993          	srli	s3,s5,0x15
80006b1c:	0ff0000f          	fence
80006b20:	00ee3233          	sltu	tp,t3,a4
80006b24:	015f1093          	slli	ra,t5,0x15
80006b28:	05a0e063          	bltu	ra,s10,80006b68 <sub_3_j5+0x1c50>
80006b2c:	01d2d263          	bge	t0,t4,80006b30 <sub_3_j5+0x1c18>
80006b30:	4111dd93          	srai	s11,gp,0x11
80006b34:	5dff4793          	xori	a5,t5,1503
80006b38:	bce1a693          	slti	a3,gp,-1074
80006b3c:	03457863          	bgeu	a0,s4,80006b6c <sub_3_j5+0x1c54>
80006b40:	03a0e063          	bltu	ra,s10,80006b60 <sub_3_j5+0x1c48>
80006b44:	023b4263          	blt	s6,gp,80006b68 <sub_3_j5+0x1c50>
80006b48:	b35a3893          	sltiu	a7,s4,-1227
80006b4c:	00406333          	or	t1,zero,tp
80006b50:	00cea633          	slt	a2,t4,a2
80006b54:	40ed8c33          	sub	s8,s11,a4
80006b58:	05457263          	bgeu	a0,s4,80006b9c <sub_3_j5+0x1c84>
80006b5c:	1d860217          	auipc	tp,0x1d860
80006b60:	00ee3233          	sltu	tp,t3,a4
80006b64:	40ed8c33          	sub	s8,s11,a4
80006b68:	4111dd93          	srai	s11,gp,0x11
80006b6c:	fb4ee413          	ori	s0,t4,-76
80006b70:	cc92a0b7          	lui	ra,0xcc92a
80006b74:	006410b3          	sll	ra,s0,t1
80006b78:	cc92a0b7          	lui	ra,0xcc92a
80006b7c:	0000100f          	fence.i
80006b80:	cc92a0b7          	lui	ra,0xcc92a
80006b84:	409a5633          	sra	a2,s4,s1
80006b88:	0033c233          	xor	tp,t2,gp
80006b8c:	038d1063          	bne	s10,s8,80006bac <sub_3_j5+0x1c94>
80006b90:	4111dd93          	srai	s11,gp,0x11
80006b94:	038d1263          	bne	s10,s8,80006bb8 <sub_3_j5+0x1ca0>
80006b98:	00cea633          	slt	a2,t4,a2
80006b9c:	015f1093          	slli	ra,t5,0x15
80006ba0:	40ed8c33          	sub	s8,s11,a4
80006ba4:	00ee3233          	sltu	tp,t3,a4
80006ba8:	40ed8c33          	sub	s8,s11,a4
80006bac:	01c4dbb3          	srl	s7,s1,t3
80006bb0:	40ed8c33          	sub	s8,s11,a4
80006bb4:	0033c233          	xor	tp,t2,gp
80006bb8:	40ed8c33          	sub	s8,s11,a4
80006bbc:	01d2d263          	bge	t0,t4,80006bc0 <sub_3_j5+0x1ca8>
80006bc0:	1d860217          	auipc	tp,0x1d860
80006bc4:	05d2d063          	bge	t0,t4,80006c04 <sub_3_j5+0x1cec>
80006bc8:	00cea633          	slt	a2,t4,a2
80006bcc:	006410b3          	sll	ra,s0,t1
80006bd0:	0000100f          	fence.i
80006bd4:	b35a3893          	sltiu	a7,s4,-1227
80006bd8:	008c8263          	beq	s9,s0,80006bdc <sub_3_j5+0x1cc4>
80006bdc:	038d1263          	bne	s10,s8,80006c00 <sub_3_j5+0x1ce8>
80006be0:	00cea633          	slt	a2,t4,a2
80006be4:	0000100f          	fence.i
80006be8:	40ed8c33          	sub	s8,s11,a4
80006bec:	023b4c63          	blt	s6,gp,80006c24 <sub_3_j5+0x1d0c>
80006bf0:	03457463          	bgeu	a0,s4,80006c18 <sub_3_j5+0x1d00>
80006bf4:	bce1a693          	slti	a3,gp,-1074
80006bf8:	015ad993          	srli	s3,s5,0x15
80006bfc:	b35a3893          	sltiu	a7,s4,-1227
80006c00:	043b4663          	blt	s6,gp,80006c4c <sub_3_j5+0x1d34>
80006c04:	1d860217          	auipc	tp,0x1d860
80006c08:	0033c233          	xor	tp,t2,gp
80006c0c:	000706b3          	add	a3,a4,zero
80006c10:	01c4dbb3          	srl	s7,s1,t3
80006c14:	038d1263          	bne	s10,s8,80006c38 <sub_3_j5+0x1d20>
80006c18:	40ed8c33          	sub	s8,s11,a4
80006c1c:	cc92a0b7          	lui	ra,0xcc92a
80006c20:	1d860217          	auipc	tp,0x1d860
80006c24:	01c4dbb3          	srl	s7,s1,t3
80006c28:	00cea633          	slt	a2,t4,a2
80006c2c:	bce1a693          	slti	a3,gp,-1074
80006c30:	006410b3          	sll	ra,s0,t1
80006c34:	fb4ee413          	ori	s0,t4,-76
80006c38:	000706b3          	add	a3,a4,zero
80006c3c:	058d1063          	bne	s10,s8,80006c7c <sub_3_j5+0x1d64>
80006c40:	01457663          	bgeu	a0,s4,80006c4c <sub_3_j5+0x1d34>
80006c44:	015f1093          	slli	ra,t5,0x15
80006c48:	000706b3          	add	a3,a4,zero
80006c4c:	cc92a0b7          	lui	ra,0xcc92a
80006c50:	03457a63          	bgeu	a0,s4,80006c84 <sub_3_j5+0x1d6c>
80006c54:	bce1a693          	slti	a3,gp,-1074
80006c58:	023b4863          	blt	s6,gp,80006c88 <sub_3_j5+0x1d70>
80006c5c:	018d1263          	bne	s10,s8,80006c60 <sub_3_j5+0x1d48>
80006c60:	000706b3          	add	a3,a4,zero
80006c64:	015ad993          	srli	s3,s5,0x15
80006c68:	fb4ee413          	ori	s0,t4,-76
80006c6c:	015ad993          	srli	s3,s5,0x15
80006c70:	0000100f          	fence.i
80006c74:	409a5633          	sra	a2,s4,s1
80006c78:	000706b3          	add	a3,a4,zero
80006c7c:	006410b3          	sll	ra,s0,t1
80006c80:	409a5633          	sra	a2,s4,s1
80006c84:	03a0e863          	bltu	ra,s10,80006cb4 <sub_3_j5+0x1d9c>
80006c88:	4111dd93          	srai	s11,gp,0x11
80006c8c:	01c4dbb3          	srl	s7,s1,t3
80006c90:	409a5633          	sra	a2,s4,s1
80006c94:	fb4ee413          	ori	s0,t4,-76
80006c98:	bce1a693          	slti	a3,gp,-1074
80006c9c:	000706b3          	add	a3,a4,zero
80006ca0:	5dff4793          	xori	a5,t5,1503
80006ca4:	03a0ea63          	bltu	ra,s10,80006cd8 <sub_3_j5+0x1dc0>
80006ca8:	0033c233          	xor	tp,t2,gp
80006cac:	0033c233          	xor	tp,t2,gp
80006cb0:	1d860217          	auipc	tp,0x1d860
80006cb4:	01c4dbb3          	srl	s7,s1,t3
80006cb8:	4111dd93          	srai	s11,gp,0x11
80006cbc:	0033c233          	xor	tp,t2,gp
80006cc0:	0033c233          	xor	tp,t2,gp
80006cc4:	1d860217          	auipc	tp,0x1d860
80006cc8:	03d2d863          	bge	t0,t4,80006cf8 <sub_3_j5+0x1de0>
80006ccc:	018d1263          	bne	s10,s8,80006cd0 <sub_3_j5+0x1db8>
80006cd0:	006410b3          	sll	ra,s0,t1
80006cd4:	0ff0000f          	fence
80006cd8:	03a0e863          	bltu	ra,s10,80006d08 <sub_3_j5+0x1df0>
80006cdc:	00ee3233          	sltu	tp,t3,a4
80006ce0:	bce1a693          	slti	a3,gp,-1074
80006ce4:	40ed8c33          	sub	s8,s11,a4
80006ce8:	20648893          	addi	a7,s1,518
80006cec:	b35a3893          	sltiu	a7,s4,-1227
80006cf0:	0000100f          	fence.i
80006cf4:	4111dd93          	srai	s11,gp,0x11
80006cf8:	01c4dbb3          	srl	s7,s1,t3
80006cfc:	0000100f          	fence.i
80006d00:	0000100f          	fence.i
80006d04:	bce1a693          	slti	a3,gp,-1074
80006d08:	4111dd93          	srai	s11,gp,0x11
80006d0c:	0000100f          	fence.i
80006d10:	01bef5b3          	and	a1,t4,s11
80006d14:	03a0e063          	bltu	ra,s10,80006d34 <sub_3_j5+0x1e1c>
80006d18:	00cea633          	slt	a2,t4,a2
80006d1c:	0000100f          	fence.i
80006d20:	028c8263          	beq	s9,s0,80006d44 <sub_3_j5+0x1e2c>
80006d24:	cc92a0b7          	lui	ra,0xcc92a
80006d28:	409a5633          	sra	a2,s4,s1
80006d2c:	00406333          	or	t1,zero,tp
80006d30:	003b4e63          	blt	s6,gp,80006d4c <sub_3_j5+0x1e34>
80006d34:	015f1093          	slli	ra,t5,0x15
80006d38:	018d1a63          	bne	s10,s8,80006d4c <sub_3_j5+0x1e34>
80006d3c:	0000100f          	fence.i
80006d40:	00cea633          	slt	a2,t4,a2
80006d44:	015f1093          	slli	ra,t5,0x15
80006d48:	00ee3233          	sltu	tp,t3,a4
80006d4c:	01c4dbb3          	srl	s7,s1,t3
80006d50:	000706b3          	add	a3,a4,zero
80006d54:	015ad993          	srli	s3,s5,0x15
80006d58:	bce1a693          	slti	a3,gp,-1074
80006d5c:	006410b3          	sll	ra,s0,t1
80006d60:	b35a3893          	sltiu	a7,s4,-1227
80006d64:	015f1093          	slli	ra,t5,0x15
80006d68:	0033c233          	xor	tp,t2,gp
80006d6c:	bce1a693          	slti	a3,gp,-1074
80006d70:	bce1a693          	slti	a3,gp,-1074
80006d74:	05457263          	bgeu	a0,s4,80006db8 <sub_3_j5+0x1ea0>
80006d78:	4cb37c13          	andi	s8,t1,1227
80006d7c:	015f1093          	slli	ra,t5,0x15
80006d80:	01c4dbb3          	srl	s7,s1,t3
80006d84:	00cea633          	slt	a2,t4,a2
80006d88:	00cea633          	slt	a2,t4,a2
80006d8c:	01a0ee63          	bltu	ra,s10,80006da8 <sub_3_j5+0x1e90>
80006d90:	4111dd93          	srai	s11,gp,0x11
80006d94:	20648893          	addi	a7,s1,518
80006d98:	bce1a693          	slti	a3,gp,-1074
80006d9c:	40ed8c33          	sub	s8,s11,a4
80006da0:	028c8863          	beq	s9,s0,80006dd0 <sub_3_j5+0x1eb8>
80006da4:	018d1a63          	bne	s10,s8,80006db8 <sub_3_j5+0x1ea0>
80006da8:	00cea633          	slt	a2,t4,a2
80006dac:	1d860217          	auipc	tp,0x1d860
80006db0:	409a5633          	sra	a2,s4,s1
80006db4:	0ff0000f          	fence
80006db8:	409a5633          	sra	a2,s4,s1
80006dbc:	006410b3          	sll	ra,s0,t1
80006dc0:	40ed8c33          	sub	s8,s11,a4
80006dc4:	0000100f          	fence.i
80006dc8:	40ed8c33          	sub	s8,s11,a4
80006dcc:	01bef5b3          	and	a1,t4,s11
80006dd0:	01a0e263          	bltu	ra,s10,80006dd4 <sub_3_j5+0x1ebc>
80006dd4:	0033c233          	xor	tp,t2,gp
80006dd8:	4111dd93          	srai	s11,gp,0x11
80006ddc:	043b4663          	blt	s6,gp,80006e28 <sub_3_j5+0x1f10>
80006de0:	00ee3233          	sltu	tp,t3,a4
80006de4:	b35a3893          	sltiu	a7,s4,-1227
80006de8:	409a5633          	sra	a2,s4,s1
80006dec:	01c4dbb3          	srl	s7,s1,t3
80006df0:	5dff4793          	xori	a5,t5,1503
80006df4:	006410b3          	sll	ra,s0,t1
80006df8:	015f1093          	slli	ra,t5,0x15
80006dfc:	b35a3893          	sltiu	a7,s4,-1227
80006e00:	0ff0000f          	fence
80006e04:	000706b3          	add	a3,a4,zero
80006e08:	20648893          	addi	a7,s1,518
80006e0c:	01c4dbb3          	srl	s7,s1,t3
80006e10:	0ff0000f          	fence
80006e14:	4111dd93          	srai	s11,gp,0x11
80006e18:	fb4ee413          	ori	s0,t4,-76
80006e1c:	5dff4793          	xori	a5,t5,1503
80006e20:	0ff0000f          	fence
80006e24:	00cea633          	slt	a2,t4,a2
80006e28:	20648893          	addi	a7,s1,518
80006e2c:	01c4dbb3          	srl	s7,s1,t3
80006e30:	038d1463          	bne	s10,s8,80006e58 <sub_3_j5+0x1f40>
80006e34:	023b4463          	blt	s6,gp,80006e5c <sub_3_j5+0x1f44>
80006e38:	00ee3233          	sltu	tp,t3,a4
80006e3c:	bce1a693          	slti	a3,gp,-1074
80006e40:	01c4dbb3          	srl	s7,s1,t3
80006e44:	20648893          	addi	a7,s1,518
80006e48:	01bef5b3          	and	a1,t4,s11
80006e4c:	01d2dc63          	bge	t0,t4,80006e64 <sub_3_j5+0x1f4c>
80006e50:	4111dd93          	srai	s11,gp,0x11
80006e54:	000706b3          	add	a3,a4,zero
80006e58:	023b4263          	blt	s6,gp,80006e7c <sub_3_j5+0x1f64>
80006e5c:	b35a3893          	sltiu	a7,s4,-1227
80006e60:	409a5633          	sra	a2,s4,s1
80006e64:	015f1093          	slli	ra,t5,0x15
80006e68:	058d1063          	bne	s10,s8,80006ea8 <sub_3_j5+0x1f90>
80006e6c:	5dff4793          	xori	a5,t5,1503
80006e70:	409a5633          	sra	a2,s4,s1
80006e74:	4cb37c13          	andi	s8,t1,1227
80006e78:	00ee3233          	sltu	tp,t3,a4
80006e7c:	028c8063          	beq	s9,s0,80006e9c <sub_3_j5+0x1f84>
80006e80:	b35a3893          	sltiu	a7,s4,-1227
80006e84:	0000100f          	fence.i
80006e88:	bce1a693          	slti	a3,gp,-1074
80006e8c:	409a5633          	sra	a2,s4,s1
80006e90:	01d2d263          	bge	t0,t4,80006e94 <sub_3_j5+0x1f7c>
80006e94:	058d1063          	bne	s10,s8,80006ed4 <sub_3_j5+0x1fbc>
80006e98:	1d860217          	auipc	tp,0x1d860
80006e9c:	4111dd93          	srai	s11,gp,0x11
80006ea0:	00406333          	or	t1,zero,tp
80006ea4:	00cea633          	slt	a2,t4,a2
80006ea8:	000706b3          	add	a3,a4,zero
80006eac:	015ad993          	srli	s3,s5,0x15
80006eb0:	0033c233          	xor	tp,t2,gp
80006eb4:	015f1093          	slli	ra,t5,0x15
80006eb8:	00ee3233          	sltu	tp,t3,a4
80006ebc:	409a5633          	sra	a2,s4,s1
80006ec0:	bce1a693          	slti	a3,gp,-1074
80006ec4:	006410b3          	sll	ra,s0,t1
80006ec8:	000706b3          	add	a3,a4,zero
80006ecc:	20648893          	addi	a7,s1,518
80006ed0:	006410b3          	sll	ra,s0,t1
80006ed4:	00406333          	or	t1,zero,tp
80006ed8:	4111dd93          	srai	s11,gp,0x11
80006edc:	fb4ee413          	ori	s0,t4,-76
80006ee0:	028c8c63          	beq	s9,s0,80006f18 <sub_3_j5+0x2000>
80006ee4:	00ee3233          	sltu	tp,t3,a4
80006ee8:	1d860217          	auipc	tp,0x1d860
80006eec:	5dff4793          	xori	a5,t5,1503
80006ef0:	018d1263          	bne	s10,s8,80006ef4 <sub_3_j5+0x1fdc>
80006ef4:	003b4e63          	blt	s6,gp,80006f10 <sub_3_j5+0x1ff8>
80006ef8:	015f1093          	slli	ra,t5,0x15
80006efc:	409a5633          	sra	a2,s4,s1
80006f00:	0033c233          	xor	tp,t2,gp
80006f04:	1d860217          	auipc	tp,0x1d860
80006f08:	00cea633          	slt	a2,t4,a2
80006f0c:	0033c233          	xor	tp,t2,gp
80006f10:	0ff0000f          	fence
80006f14:	b35a3893          	sltiu	a7,s4,-1227
80006f18:	023b4863          	blt	s6,gp,80006f48 <sub_3_j5+0x2030>
80006f1c:	015f1093          	slli	ra,t5,0x15
80006f20:	bce1a693          	slti	a3,gp,-1074
80006f24:	006410b3          	sll	ra,s0,t1
80006f28:	fb4ee413          	ori	s0,t4,-76
80006f2c:	006410b3          	sll	ra,s0,t1
80006f30:	01457c63          	bgeu	a0,s4,80006f48 <sub_3_j5+0x2030>
80006f34:	00000013          	nop
80006f38:	1d860217          	auipc	tp,0x1d860
80006f3c:	00ee3233          	sltu	tp,t3,a4
80006f40:	fb4ee413          	ori	s0,t4,-76
80006f44:	1d860217          	auipc	tp,0x1d860
80006f48:	03d2d063          	bge	t0,t4,80006f68 <sub_3_j5+0x2050>
80006f4c:	b35a3893          	sltiu	a7,s4,-1227
80006f50:	00406333          	or	t1,zero,tp
80006f54:	0033c233          	xor	tp,t2,gp
80006f58:	0033c233          	xor	tp,t2,gp
80006f5c:	000706b3          	add	a3,a4,zero
80006f60:	00000013          	nop
80006f64:	01bef5b3          	and	a1,t4,s11
80006f68:	01c4dbb3          	srl	s7,s1,t3
80006f6c:	038d1863          	bne	s10,s8,80006f9c <sub_3_j5+0x2084>
80006f70:	006410b3          	sll	ra,s0,t1
80006f74:	03457463          	bgeu	a0,s4,80006f9c <sub_3_j5+0x2084>
80006f78:	40ed8c33          	sub	s8,s11,a4
80006f7c:	01c4dbb3          	srl	s7,s1,t3
80006f80:	058d1663          	bne	s10,s8,80006fcc <sub_3_j5+0x20b4>
80006f84:	b35a3893          	sltiu	a7,s4,-1227
80006f88:	006410b3          	sll	ra,s0,t1
80006f8c:	00ee3233          	sltu	tp,t3,a4
80006f90:	00ee3233          	sltu	tp,t3,a4
80006f94:	20648893          	addi	a7,s1,518
80006f98:	01a0e263          	bltu	ra,s10,80006f9c <sub_3_j5+0x2084>
80006f9c:	0033c233          	xor	tp,t2,gp
80006fa0:	05457063          	bgeu	a0,s4,80006fe0 <sub_3_j5+0x20c8>
80006fa4:	015ad993          	srli	s3,s5,0x15
80006fa8:	00406333          	or	t1,zero,tp
80006fac:	1d860217          	auipc	tp,0x1d860
80006fb0:	01c4dbb3          	srl	s7,s1,t3
80006fb4:	003b4263          	blt	s6,gp,80006fb8 <sub_3_j5+0x20a0>
80006fb8:	01bef5b3          	and	a1,t4,s11
80006fbc:	0000100f          	fence.i
80006fc0:	003b4e63          	blt	s6,gp,80006fdc <sub_3_j5+0x20c4>
80006fc4:	409a5633          	sra	a2,s4,s1
80006fc8:	00cea633          	slt	a2,t4,a2
80006fcc:	023b4a63          	blt	s6,gp,80007000 <sub_3_j5+0x20e8>
80006fd0:	018d1263          	bne	s10,s8,80006fd4 <sub_3_j5+0x20bc>
80006fd4:	0000100f          	fence.i
80006fd8:	1d860217          	auipc	tp,0x1d860
80006fdc:	0000100f          	fence.i
80006fe0:	015f1093          	slli	ra,t5,0x15
80006fe4:	fb4ee413          	ori	s0,t4,-76
80006fe8:	01bef5b3          	and	a1,t4,s11
80006fec:	023b4263          	blt	s6,gp,80007010 <sub_3_j5+0x20f8>
80006ff0:	01c4dbb3          	srl	s7,s1,t3
80006ff4:	01c4dbb3          	srl	s7,s1,t3
80006ff8:	038d1063          	bne	s10,s8,80007018 <sub_3_j5+0x2100>
80006ffc:	20648893          	addi	a7,s1,518
80007000:	0000100f          	fence.i
80007004:	1d860217          	auipc	tp,0x1d860
80007008:	006410b3          	sll	ra,s0,t1
8000700c:	00cea633          	slt	a2,t4,a2
80007010:	01c4dbb3          	srl	s7,s1,t3
80007014:	bce1a693          	slti	a3,gp,-1074
80007018:	015ad993          	srli	s3,s5,0x15
8000701c:	015f1093          	slli	ra,t5,0x15
80007020:	b35a3893          	sltiu	a7,s4,-1227
80007024:	01c4dbb3          	srl	s7,s1,t3
80007028:	015f1093          	slli	ra,t5,0x15
8000702c:	fb4ee413          	ori	s0,t4,-76
80007030:	01c4dbb3          	srl	s7,s1,t3
80007034:	40ed8c33          	sub	s8,s11,a4
80007038:	40ed8c33          	sub	s8,s11,a4
8000703c:	01bef5b3          	and	a1,t4,s11
80007040:	5dff4793          	xori	a5,t5,1503
80007044:	000706b3          	add	a3,a4,zero
80007048:	00cea633          	slt	a2,t4,a2
8000704c:	0000100f          	fence.i
80007050:	bce1a693          	slti	a3,gp,-1074
80007054:	5dff4793          	xori	a5,t5,1503
80007058:	409a5633          	sra	a2,s4,s1
8000705c:	038d1c63          	bne	s10,s8,80007094 <sub_3_j5+0x217c>
80007060:	00406333          	or	t1,zero,tp
80007064:	015f1093          	slli	ra,t5,0x15
80007068:	018d1663          	bne	s10,s8,80007074 <sub_3_j5+0x215c>
8000706c:	20648893          	addi	a7,s1,518
80007070:	000706b3          	add	a3,a4,zero
80007074:	01c4dbb3          	srl	s7,s1,t3
80007078:	01a0ea63          	bltu	ra,s10,8000708c <sub_3_j5+0x2174>
8000707c:	00000013          	nop
80007080:	015ad993          	srli	s3,s5,0x15
80007084:	5dff4793          	xori	a5,t5,1503
80007088:	1d860217          	auipc	tp,0x1d860
8000708c:	00406333          	or	t1,zero,tp
80007090:	20648893          	addi	a7,s1,518
80007094:	058d1063          	bne	s10,s8,800070d4 <sub_3_j5+0x21bc>
80007098:	015ad993          	srli	s3,s5,0x15
8000709c:	1d860217          	auipc	tp,0x1d860
800070a0:	00000013          	nop
800070a4:	015f1093          	slli	ra,t5,0x15
800070a8:	015f1093          	slli	ra,t5,0x15
800070ac:	4111dd93          	srai	s11,gp,0x11
800070b0:	006410b3          	sll	ra,s0,t1
800070b4:	fb4ee413          	ori	s0,t4,-76
800070b8:	20648893          	addi	a7,s1,518
800070bc:	015ad993          	srli	s3,s5,0x15
800070c0:	0ff0000f          	fence
800070c4:	20648893          	addi	a7,s1,518
800070c8:	40ed8c33          	sub	s8,s11,a4
800070cc:	05457063          	bgeu	a0,s4,8000710c <sub_3_j5+0x21f4>
800070d0:	028c8863          	beq	s9,s0,80007100 <sub_3_j5+0x21e8>
800070d4:	043b4263          	blt	s6,gp,80007118 <sub_3_j5+0x2200>
800070d8:	0000100f          	fence.i
800070dc:	015ad993          	srli	s3,s5,0x15
800070e0:	000706b3          	add	a3,a4,zero
800070e4:	03d2d463          	bge	t0,t4,8000710c <sub_3_j5+0x21f4>
800070e8:	00000013          	nop
800070ec:	4111dd93          	srai	s11,gp,0x11
800070f0:	00ee3233          	sltu	tp,t3,a4
800070f4:	01c4dbb3          	srl	s7,s1,t3
800070f8:	03d2d263          	bge	t0,t4,8000711c <sub_3_j5+0x2204>
800070fc:	000706b3          	add	a3,a4,zero
80007100:	03d2d863          	bge	t0,t4,80007130 <sub_3_j5+0x2218>
80007104:	bce1a693          	slti	a3,gp,-1074
80007108:	01bef5b3          	and	a1,t4,s11
8000710c:	006410b3          	sll	ra,s0,t1
80007110:	00406333          	or	t1,zero,tp
80007114:	006410b3          	sll	ra,s0,t1
80007118:	b35a3893          	sltiu	a7,s4,-1227
8000711c:	0033c233          	xor	tp,t2,gp
80007120:	bce1a693          	slti	a3,gp,-1074
80007124:	03a0ea63          	bltu	ra,s10,80007158 <sub_3_j5+0x2240>
80007128:	00406333          	or	t1,zero,tp
8000712c:	015ad993          	srli	s3,s5,0x15
80007130:	409a5633          	sra	a2,s4,s1
80007134:	000706b3          	add	a3,a4,zero
80007138:	0033c233          	xor	tp,t2,gp
8000713c:	4111dd93          	srai	s11,gp,0x11
80007140:	20648893          	addi	a7,s1,518
80007144:	023b4263          	blt	s6,gp,80007168 <sub_3_j5+0x2250>
80007148:	5dff4793          	xori	a5,t5,1503
8000714c:	006410b3          	sll	ra,s0,t1
80007150:	00ee3233          	sltu	tp,t3,a4
80007154:	4cb37c13          	andi	s8,t1,1227
80007158:	40ed8c33          	sub	s8,s11,a4
8000715c:	0000100f          	fence.i
80007160:	1d860217          	auipc	tp,0x1d860
80007164:	00cea633          	slt	a2,t4,a2
80007168:	03d2d863          	bge	t0,t4,80007198 <sub_3_j5+0x2280>
8000716c:	20648893          	addi	a7,s1,518
80007170:	1d860217          	auipc	tp,0x1d860
80007174:	015ad993          	srli	s3,s5,0x15
80007178:	00406333          	or	t1,zero,tp
8000717c:	018d1a63          	bne	s10,s8,80007190 <sub_3_j5+0x2278>
80007180:	006410b3          	sll	ra,s0,t1
80007184:	b35a3893          	sltiu	a7,s4,-1227
80007188:	01d2d263          	bge	t0,t4,8000718c <sub_3_j5+0x2274>
8000718c:	00406333          	or	t1,zero,tp
80007190:	006410b3          	sll	ra,s0,t1
80007194:	fb4ee413          	ori	s0,t4,-76
80007198:	03d2d063          	bge	t0,t4,800071b8 <sub_3_j5+0x22a0>
8000719c:	01a0e263          	bltu	ra,s10,800071a0 <sub_3_j5+0x2288>
800071a0:	05457663          	bgeu	a0,s4,800071ec <sub_3_j5+0x22d4>
800071a4:	01bef5b3          	and	a1,t4,s11
800071a8:	01c4dbb3          	srl	s7,s1,t3
800071ac:	1d860217          	auipc	tp,0x1d860
800071b0:	fb4ee413          	ori	s0,t4,-76
800071b4:	00cea633          	slt	a2,t4,a2
800071b8:	015f1093          	slli	ra,t5,0x15
800071bc:	1d860217          	auipc	tp,0x1d860
800071c0:	b35a3893          	sltiu	a7,s4,-1227
800071c4:	4cb37c13          	andi	s8,t1,1227
800071c8:	01d2da63          	bge	t0,t4,800071dc <sub_3_j5+0x22c4>
800071cc:	b35a3893          	sltiu	a7,s4,-1227
800071d0:	023b4c63          	blt	s6,gp,80007208 <sub_3_j5+0x22f0>
800071d4:	008c8663          	beq	s9,s0,800071e0 <sub_3_j5+0x22c8>
800071d8:	043b4063          	blt	s6,gp,80007218 <sub_3_j5+0x2300>
800071dc:	015ad993          	srli	s3,s5,0x15
800071e0:	006410b3          	sll	ra,s0,t1
800071e4:	03457263          	bgeu	a0,s4,80007208 <sub_3_j5+0x22f0>
800071e8:	5dff4793          	xori	a5,t5,1503
800071ec:	038d1263          	bne	s10,s8,80007210 <sub_3_j5+0x22f8>
800071f0:	006410b3          	sll	ra,s0,t1
800071f4:	0ff0000f          	fence
800071f8:	00000013          	nop
800071fc:	023b4463          	blt	s6,gp,80007224 <sub_3_j5+0x230c>
80007200:	058d1063          	bne	s10,s8,80007240 <sub_3_j5+0x2328>
80007204:	4111dd93          	srai	s11,gp,0x11
80007208:	cc92a0b7          	lui	ra,0xcc92a
8000720c:	00406333          	or	t1,zero,tp
80007210:	409a5633          	sra	a2,s4,s1
80007214:	038d1a63          	bne	s10,s8,80007248 <sub_3_j5+0x2330>
80007218:	00ee3233          	sltu	tp,t3,a4
8000721c:	bce1a693          	slti	a3,gp,-1074
80007220:	0ff0000f          	fence
80007224:	01a0e263          	bltu	ra,s10,80007228 <sub_3_j5+0x2310>
80007228:	1d860217          	auipc	tp,0x1d860
8000722c:	4cb37c13          	andi	s8,t1,1227
80007230:	40ed8c33          	sub	s8,s11,a4
80007234:	023b4063          	blt	s6,gp,80007254 <sub_3_j5+0x233c>
80007238:	000706b3          	add	a3,a4,zero
8000723c:	b35a3893          	sltiu	a7,s4,-1227
80007240:	4111dd93          	srai	s11,gp,0x11
80007244:	03d2d863          	bge	t0,t4,80007274 <sub_3_j5+0x235c>
80007248:	043b4063          	blt	s6,gp,80007288 <sub_3_j5+0x2370>
8000724c:	cc92a0b7          	lui	ra,0xcc92a
80007250:	043b4263          	blt	s6,gp,80007294 <sub_3_j5+0x237c>
80007254:	0033c233          	xor	tp,t2,gp
80007258:	0000100f          	fence.i
8000725c:	01c4dbb3          	srl	s7,s1,t3
80007260:	01bef5b3          	and	a1,t4,s11
80007264:	0033c233          	xor	tp,t2,gp
80007268:	0000100f          	fence.i
8000726c:	bce1a693          	slti	a3,gp,-1074
80007270:	4cb37c13          	andi	s8,t1,1227
80007274:	0000100f          	fence.i
80007278:	000706b3          	add	a3,a4,zero
8000727c:	409a5633          	sra	a2,s4,s1
80007280:	fb4ee413          	ori	s0,t4,-76
80007284:	00406333          	or	t1,zero,tp
80007288:	018d1263          	bne	s10,s8,8000728c <sub_3_j5+0x2374>
8000728c:	023b4863          	blt	s6,gp,800072bc <sub_3_j5+0x23a4>
80007290:	1d860217          	auipc	tp,0x1d860
80007294:	0033c233          	xor	tp,t2,gp
80007298:	00406333          	or	t1,zero,tp
8000729c:	0033c233          	xor	tp,t2,gp
800072a0:	0ff0000f          	fence
800072a4:	00406333          	or	t1,zero,tp
800072a8:	01457e63          	bgeu	a0,s4,800072c4 <sub_3_j5+0x23ac>
800072ac:	20648893          	addi	a7,s1,518
800072b0:	00000013          	nop
800072b4:	5dff4793          	xori	a5,t5,1503
800072b8:	409a5633          	sra	a2,s4,s1
800072bc:	01c4dbb3          	srl	s7,s1,t3
800072c0:	01c4dbb3          	srl	s7,s1,t3
800072c4:	038d1263          	bne	s10,s8,800072e8 <sub_3_j5+0x23d0>
800072c8:	028c8a63          	beq	s9,s0,800072fc <sub_3_j5+0x23e4>
800072cc:	0ff0000f          	fence
800072d0:	01c4dbb3          	srl	s7,s1,t3
800072d4:	20648893          	addi	a7,s1,518
800072d8:	40ed8c33          	sub	s8,s11,a4
800072dc:	00ee3233          	sltu	tp,t3,a4
800072e0:	015f1093          	slli	ra,t5,0x15
800072e4:	cc92a0b7          	lui	ra,0xcc92a
800072e8:	03d2d463          	bge	t0,t4,80007310 <sub_3_j5+0x23f8>
800072ec:	015f1093          	slli	ra,t5,0x15
800072f0:	40ed8c33          	sub	s8,s11,a4
800072f4:	003b4a63          	blt	s6,gp,80007308 <sub_3_j5+0x23f0>
800072f8:	01bef5b3          	and	a1,t4,s11
800072fc:	03a0e863          	bltu	ra,s10,8000732c <sub_3_j5+0x2414>
80007300:	40ed8c33          	sub	s8,s11,a4
80007304:	bce1a693          	slti	a3,gp,-1074
80007308:	00406333          	or	t1,zero,tp
8000730c:	4cb37c13          	andi	s8,t1,1227
80007310:	cc92a0b7          	lui	ra,0xcc92a
80007314:	0033c233          	xor	tp,t2,gp
80007318:	40ed8c33          	sub	s8,s11,a4
8000731c:	01c4dbb3          	srl	s7,s1,t3
80007320:	00ee3233          	sltu	tp,t3,a4
80007324:	1d860217          	auipc	tp,0x1d860
80007328:	40ed8c33          	sub	s8,s11,a4
8000732c:	bce1a693          	slti	a3,gp,-1074
80007330:	01bef5b3          	and	a1,t4,s11
80007334:	023b4863          	blt	s6,gp,80007364 <sub_3_j5+0x244c>
80007338:	003b4c63          	blt	s6,gp,80007350 <sub_3_j5+0x2438>
8000733c:	028c8863          	beq	s9,s0,8000736c <sub_3_j5+0x2454>
80007340:	b35a3893          	sltiu	a7,s4,-1227
80007344:	01457e63          	bgeu	a0,s4,80007360 <sub_3_j5+0x2448>
80007348:	015f1093          	slli	ra,t5,0x15
8000734c:	000706b3          	add	a3,a4,zero
80007350:	00cea633          	slt	a2,t4,a2
80007354:	4111dd93          	srai	s11,gp,0x11
80007358:	015f1093          	slli	ra,t5,0x15
8000735c:	03457863          	bgeu	a0,s4,8000738c <sub_3_j5+0x2474>
80007360:	006410b3          	sll	ra,s0,t1
80007364:	01c4dbb3          	srl	s7,s1,t3
80007368:	048c8063          	beq	s9,s0,800073a8 <sub_3_j5+0x2490>
8000736c:	20648893          	addi	a7,s1,518
80007370:	058d1663          	bne	s10,s8,800073bc <sub_3_j5+0x24a4>
80007374:	01457e63          	bgeu	a0,s4,80007390 <sub_3_j5+0x2478>
80007378:	5dff4793          	xori	a5,t5,1503
8000737c:	5dff4793          	xori	a5,t5,1503
80007380:	01bef5b3          	and	a1,t4,s11
80007384:	00406333          	or	t1,zero,tp
80007388:	00ee3233          	sltu	tp,t3,a4
8000738c:	0000100f          	fence.i
80007390:	0033c233          	xor	tp,t2,gp
80007394:	0ff0000f          	fence
80007398:	409a5633          	sra	a2,s4,s1
8000739c:	023b4a63          	blt	s6,gp,800073d0 <sub_3_j5+0x24b8>
800073a0:	00000013          	nop
800073a4:	03457463          	bgeu	a0,s4,800073cc <sub_3_j5+0x24b4>
800073a8:	015f1093          	slli	ra,t5,0x15
800073ac:	0ff0000f          	fence
800073b0:	018d1263          	bne	s10,s8,800073b4 <sub_3_j5+0x249c>
800073b4:	4111dd93          	srai	s11,gp,0x11
800073b8:	00cea633          	slt	a2,t4,a2
800073bc:	4111dd93          	srai	s11,gp,0x11
800073c0:	01bef5b3          	and	a1,t4,s11
800073c4:	038d1863          	bne	s10,s8,800073f4 <sub_3_j5+0x24dc>
800073c8:	bce1a693          	slti	a3,gp,-1074
800073cc:	20648893          	addi	a7,s1,518
800073d0:	003b4c63          	blt	s6,gp,800073e8 <sub_3_j5+0x24d0>
800073d4:	40ed8c33          	sub	s8,s11,a4
800073d8:	03457263          	bgeu	a0,s4,800073fc <sub_3_j5+0x24e4>
800073dc:	01a0e263          	bltu	ra,s10,800073e0 <sub_3_j5+0x24c8>
800073e0:	40ed8c33          	sub	s8,s11,a4
800073e4:	01a0e663          	bltu	ra,s10,800073f0 <sub_3_j5+0x24d8>
800073e8:	1d860217          	auipc	tp,0x1d860
800073ec:	03457a63          	bgeu	a0,s4,80007420 <sub_3_j5+0x2508>
800073f0:	01bef5b3          	and	a1,t4,s11
800073f4:	1d860217          	auipc	tp,0x1d860
800073f8:	00ee3233          	sltu	tp,t3,a4
800073fc:	015ad993          	srli	s3,s5,0x15
80007400:	4111dd93          	srai	s11,gp,0x11
80007404:	028c8263          	beq	s9,s0,80007428 <sub_3_j5+0x2510>
80007408:	1d860217          	auipc	tp,0x1d860
8000740c:	006410b3          	sll	ra,s0,t1
80007410:	01a0e263          	bltu	ra,s10,80007414 <sub_3_j5+0x24fc>
80007414:	b35a3893          	sltiu	a7,s4,-1227
80007418:	01c4dbb3          	srl	s7,s1,t3
8000741c:	03d2d863          	bge	t0,t4,8000744c <sub_3_j5+0x2534>
80007420:	00ee3233          	sltu	tp,t3,a4
80007424:	20648893          	addi	a7,s1,518
80007428:	00ee3233          	sltu	tp,t3,a4
8000742c:	4cb37c13          	andi	s8,t1,1227
80007430:	0ff0000f          	fence
80007434:	bce1a693          	slti	a3,gp,-1074
80007438:	4cb37c13          	andi	s8,t1,1227
8000743c:	023b4263          	blt	s6,gp,80007460 <sub_3_j5+0x2548>
80007440:	00ee3233          	sltu	tp,t3,a4
80007444:	5dff4793          	xori	a5,t5,1503
80007448:	409a5633          	sra	a2,s4,s1
8000744c:	03d2d063          	bge	t0,t4,8000746c <sub_3_j5+0x2554>
80007450:	b35a3893          	sltiu	a7,s4,-1227
80007454:	4cb37c13          	andi	s8,t1,1227
80007458:	015ad993          	srli	s3,s5,0x15
8000745c:	05a0e263          	bltu	ra,s10,800074a0 <sub_3_j5+0x2588>
80007460:	cc92a0b7          	lui	ra,0xcc92a
80007464:	01bef5b3          	and	a1,t4,s11
80007468:	015ad993          	srli	s3,s5,0x15
8000746c:	0ff0000f          	fence
80007470:	015ad993          	srli	s3,s5,0x15
80007474:	00406333          	or	t1,zero,tp
80007478:	01457263          	bgeu	a0,s4,8000747c <sub_3_j5+0x2564>
8000747c:	4cb37c13          	andi	s8,t1,1227
80007480:	0033c233          	xor	tp,t2,gp
80007484:	1d860217          	auipc	tp,0x1d860
80007488:	4111dd93          	srai	s11,gp,0x11
8000748c:	0033c233          	xor	tp,t2,gp
80007490:	0ff0000f          	fence
80007494:	006410b3          	sll	ra,s0,t1
80007498:	01bef5b3          	and	a1,t4,s11
8000749c:	05d2d063          	bge	t0,t4,800074dc <sub_3_j5+0x25c4>
800074a0:	00000013          	nop
800074a4:	cc92a0b7          	lui	ra,0xcc92a
800074a8:	028c8863          	beq	s9,s0,800074d8 <sub_3_j5+0x25c0>
800074ac:	4111dd93          	srai	s11,gp,0x11
800074b0:	1d860217          	auipc	tp,0x1d860
800074b4:	00ee3233          	sltu	tp,t3,a4
800074b8:	0000100f          	fence.i
800074bc:	4111dd93          	srai	s11,gp,0x11
800074c0:	01bef5b3          	and	a1,t4,s11
800074c4:	4111dd93          	srai	s11,gp,0x11
800074c8:	000706b3          	add	a3,a4,zero
800074cc:	00ee3233          	sltu	tp,t3,a4
800074d0:	015ad993          	srli	s3,s5,0x15
800074d4:	4cb37c13          	andi	s8,t1,1227
800074d8:	03d2d463          	bge	t0,t4,80007500 <sub_3_j5+0x25e8>
800074dc:	0000100f          	fence.i
800074e0:	00000013          	nop
800074e4:	00000013          	nop
800074e8:	01bef5b3          	and	a1,t4,s11
800074ec:	cc92a0b7          	lui	ra,0xcc92a
800074f0:	40ed8c33          	sub	s8,s11,a4
800074f4:	5dff4793          	xori	a5,t5,1503
800074f8:	00000013          	nop
800074fc:	bce1a693          	slti	a3,gp,-1074
80007500:	0000100f          	fence.i
80007504:	20648893          	addi	a7,s1,518
80007508:	023b4c63          	blt	s6,gp,80007540 <sub_3_j5+0x2628>
8000750c:	409a5633          	sra	a2,s4,s1
80007510:	4cb37c13          	andi	s8,t1,1227
80007514:	006410b3          	sll	ra,s0,t1
80007518:	043b4063          	blt	s6,gp,80007558 <sub_3_j5+0x2640>
8000751c:	01bef5b3          	and	a1,t4,s11
80007520:	bce1a693          	slti	a3,gp,-1074
80007524:	bce1a693          	slti	a3,gp,-1074
80007528:	008c8e63          	beq	s9,s0,80007544 <sub_3_j5+0x262c>
8000752c:	01c4dbb3          	srl	s7,s1,t3
80007530:	409a5633          	sra	a2,s4,s1
80007534:	4111dd93          	srai	s11,gp,0x11
80007538:	0ff0000f          	fence
8000753c:	00ee3233          	sltu	tp,t3,a4
80007540:	bce1a693          	slti	a3,gp,-1074
80007544:	0033c233          	xor	tp,t2,gp
80007548:	1d860217          	auipc	tp,0x1d860
8000754c:	000706b3          	add	a3,a4,zero
80007550:	40ed8c33          	sub	s8,s11,a4
80007554:	bce1a693          	slti	a3,gp,-1074
80007558:	028c8863          	beq	s9,s0,80007588 <sub_3_j5+0x2670>
8000755c:	b35a3893          	sltiu	a7,s4,-1227
80007560:	003b4a63          	blt	s6,gp,80007574 <sub_3_j5+0x265c>
80007564:	4111dd93          	srai	s11,gp,0x11
80007568:	00ee3233          	sltu	tp,t3,a4
8000756c:	028c8063          	beq	s9,s0,8000758c <sub_3_j5+0x2674>
80007570:	20648893          	addi	a7,s1,518
80007574:	b35a3893          	sltiu	a7,s4,-1227
80007578:	003b4a63          	blt	s6,gp,8000758c <sub_3_j5+0x2674>
8000757c:	cc92a0b7          	lui	ra,0xcc92a
80007580:	fb4ee413          	ori	s0,t4,-76
80007584:	038d1463          	bne	s10,s8,800075ac <sub_3_j5+0x2694>
80007588:	cc92a0b7          	lui	ra,0xcc92a
8000758c:	043b4063          	blt	s6,gp,800075cc <sub_3_j5+0x26b4>
80007590:	bce1a693          	slti	a3,gp,-1074
80007594:	0ff0000f          	fence
80007598:	01bef5b3          	and	a1,t4,s11
8000759c:	038d1a63          	bne	s10,s8,800075d0 <sub_3_j5+0x26b8>
800075a0:	00406333          	or	t1,zero,tp
800075a4:	00406333          	or	t1,zero,tp
800075a8:	4cb37c13          	andi	s8,t1,1227
800075ac:	bce1a693          	slti	a3,gp,-1074
800075b0:	b35a3893          	sltiu	a7,s4,-1227
800075b4:	006410b3          	sll	ra,s0,t1
800075b8:	0000100f          	fence.i
800075bc:	028c8c63          	beq	s9,s0,800075f4 <sub_3_j5+0x26dc>
800075c0:	006410b3          	sll	ra,s0,t1
800075c4:	b35a3893          	sltiu	a7,s4,-1227
800075c8:	00ee3233          	sltu	tp,t3,a4
800075cc:	0000100f          	fence.i
800075d0:	40ed8c33          	sub	s8,s11,a4
800075d4:	006410b3          	sll	ra,s0,t1
800075d8:	01c4dbb3          	srl	s7,s1,t3
800075dc:	00cea633          	slt	a2,t4,a2
800075e0:	b35a3893          	sltiu	a7,s4,-1227
800075e4:	00406333          	or	t1,zero,tp
800075e8:	b35a3893          	sltiu	a7,s4,-1227
800075ec:	00000013          	nop
800075f0:	4111dd93          	srai	s11,gp,0x11
800075f4:	03457863          	bgeu	a0,s4,80007624 <sub_3_j5+0x270c>
800075f8:	058d1263          	bne	s10,s8,8000763c <sub_3_j5+0x2724>
800075fc:	023b4063          	blt	s6,gp,8000761c <sub_3_j5+0x2704>
80007600:	01bef5b3          	and	a1,t4,s11
80007604:	4cb37c13          	andi	s8,t1,1227
80007608:	006410b3          	sll	ra,s0,t1
8000760c:	409a5633          	sra	a2,s4,s1
80007610:	00406333          	or	t1,zero,tp
80007614:	bce1a693          	slti	a3,gp,-1074
80007618:	00cea633          	slt	a2,t4,a2
8000761c:	00ee3233          	sltu	tp,t3,a4
80007620:	00ee3233          	sltu	tp,t3,a4
80007624:	003b4e63          	blt	s6,gp,80007640 <sub_3_j5+0x2728>
80007628:	01c4dbb3          	srl	s7,s1,t3
8000762c:	01bef5b3          	and	a1,t4,s11
80007630:	01457e63          	bgeu	a0,s4,8000764c <sub_3_j5+0x2734>
80007634:	0000100f          	fence.i
80007638:	03d2d463          	bge	t0,t4,80007660 <sub_3_j5+0x2748>
8000763c:	0ff0000f          	fence
80007640:	01c4dbb3          	srl	s7,s1,t3
80007644:	20648893          	addi	a7,s1,518
80007648:	40ed8c33          	sub	s8,s11,a4
8000764c:	5dff4793          	xori	a5,t5,1503
80007650:	00ee3233          	sltu	tp,t3,a4
80007654:	003b4a63          	blt	s6,gp,80007668 <sub_3_j5+0x2750>
80007658:	cc92a0b7          	lui	ra,0xcc92a
8000765c:	006410b3          	sll	ra,s0,t1
80007660:	0000100f          	fence.i
80007664:	bce1a693          	slti	a3,gp,-1074
80007668:	01bef5b3          	and	a1,t4,s11
8000766c:	4cb37c13          	andi	s8,t1,1227
80007670:	015ad993          	srli	s3,s5,0x15
80007674:	b35a3893          	sltiu	a7,s4,-1227
80007678:	5dff4793          	xori	a5,t5,1503
8000767c:	015ad993          	srli	s3,s5,0x15
80007680:	015f1093          	slli	ra,t5,0x15
80007684:	023b4a63          	blt	s6,gp,800076b8 <sub_3_j5+0x27a0>
80007688:	4111dd93          	srai	s11,gp,0x11
8000768c:	bce1a693          	slti	a3,gp,-1074
80007690:	00000013          	nop
80007694:	000706b3          	add	a3,a4,zero
80007698:	bce1a693          	slti	a3,gp,-1074
8000769c:	028c8863          	beq	s9,s0,800076cc <sub_3_j5+0x27b4>
800076a0:	409a5633          	sra	a2,s4,s1
800076a4:	038d1263          	bne	s10,s8,800076c8 <sub_3_j5+0x27b0>
800076a8:	008c8c63          	beq	s9,s0,800076c0 <sub_3_j5+0x27a8>
800076ac:	00cea633          	slt	a2,t4,a2
800076b0:	028c8263          	beq	s9,s0,800076d4 <sub_3_j5+0x27bc>
800076b4:	01457263          	bgeu	a0,s4,800076b8 <sub_3_j5+0x27a0>
800076b8:	4cb37c13          	andi	s8,t1,1227
800076bc:	bce1a693          	slti	a3,gp,-1074
800076c0:	cc92a0b7          	lui	ra,0xcc92a
800076c4:	000706b3          	add	a3,a4,zero
800076c8:	038d1063          	bne	s10,s8,800076e8 <sub_3_j5+0x27d0>
800076cc:	05d2d663          	bge	t0,t4,80007718 <sub_3_j5+0x2800>
800076d0:	03a0e863          	bltu	ra,s10,80007700 <sub_3_j5+0x27e8>
800076d4:	000706b3          	add	a3,a4,zero
800076d8:	fb4ee413          	ori	s0,t4,-76
800076dc:	fb4ee413          	ori	s0,t4,-76
800076e0:	b35a3893          	sltiu	a7,s4,-1227
800076e4:	01d2d263          	bge	t0,t4,800076e8 <sub_3_j5+0x27d0>
800076e8:	006410b3          	sll	ra,s0,t1
800076ec:	015ad993          	srli	s3,s5,0x15
800076f0:	20648893          	addi	a7,s1,518
800076f4:	01c4dbb3          	srl	s7,s1,t3
800076f8:	01a0e263          	bltu	ra,s10,800076fc <sub_3_j5+0x27e4>
800076fc:	003b4663          	blt	s6,gp,80007708 <sub_3_j5+0x27f0>
80007700:	006410b3          	sll	ra,s0,t1
80007704:	20648893          	addi	a7,s1,518
80007708:	015ad993          	srli	s3,s5,0x15
8000770c:	0ff0000f          	fence
80007710:	40ed8c33          	sub	s8,s11,a4
80007714:	006410b3          	sll	ra,s0,t1
80007718:	03457263          	bgeu	a0,s4,8000773c <sub_3_j5+0x2824>
8000771c:	0033c233          	xor	tp,t2,gp
80007720:	409a5633          	sra	a2,s4,s1
80007724:	028c8863          	beq	s9,s0,80007754 <sub_3_j5+0x283c>
80007728:	0000100f          	fence.i
8000772c:	043b4063          	blt	s6,gp,8000776c <sub_3_j5+0x2854>
80007730:	015ad993          	srli	s3,s5,0x15
80007734:	4111dd93          	srai	s11,gp,0x11
80007738:	fb4ee413          	ori	s0,t4,-76
8000773c:	00406333          	or	t1,zero,tp
80007740:	000706b3          	add	a3,a4,zero
80007744:	0033c233          	xor	tp,t2,gp
80007748:	20648893          	addi	a7,s1,518
8000774c:	20648893          	addi	a7,s1,518
80007750:	01bef5b3          	and	a1,t4,s11
80007754:	000706b3          	add	a3,a4,zero
80007758:	015f1093          	slli	ra,t5,0x15
8000775c:	4111dd93          	srai	s11,gp,0x11
80007760:	cc92a0b7          	lui	ra,0xcc92a
80007764:	fb4ee413          	ori	s0,t4,-76
80007768:	0000100f          	fence.i
8000776c:	01d2da63          	bge	t0,t4,80007780 <sub_3_j5+0x2868>
80007770:	409a5633          	sra	a2,s4,s1
80007774:	05d2d063          	bge	t0,t4,800077b4 <sub_3_j5+0x289c>
80007778:	20648893          	addi	a7,s1,518
8000777c:	015ad993          	srli	s3,s5,0x15
80007780:	03a0e863          	bltu	ra,s10,800077b0 <sub_3_j5+0x2898>
80007784:	5dff4793          	xori	a5,t5,1503
80007788:	1d860217          	auipc	tp,0x1d860
8000778c:	5dff4793          	xori	a5,t5,1503
80007790:	01c4dbb3          	srl	s7,s1,t3
80007794:	20648893          	addi	a7,s1,518
80007798:	018d1263          	bne	s10,s8,8000779c <sub_3_j5+0x2884>
8000779c:	4111dd93          	srai	s11,gp,0x11
800077a0:	05457663          	bgeu	a0,s4,800077ec <sub_3_j5+0x28d4>
800077a4:	00ee3233          	sltu	tp,t3,a4
800077a8:	4111dd93          	srai	s11,gp,0x11
800077ac:	1d860217          	auipc	tp,0x1d860
800077b0:	40ed8c33          	sub	s8,s11,a4
800077b4:	01d2d263          	bge	t0,t4,800077b8 <sub_3_j5+0x28a0>
800077b8:	0033c233          	xor	tp,t2,gp
800077bc:	0ff0000f          	fence
800077c0:	03457863          	bgeu	a0,s4,800077f0 <sub_3_j5+0x28d8>
800077c4:	01bef5b3          	and	a1,t4,s11
800077c8:	008c8a63          	beq	s9,s0,800077dc <sub_3_j5+0x28c4>
800077cc:	01c4dbb3          	srl	s7,s1,t3
800077d0:	20648893          	addi	a7,s1,518
800077d4:	0033c233          	xor	tp,t2,gp
800077d8:	038d1863          	bne	s10,s8,80007808 <sub_3_j5+0x28f0>
800077dc:	fb4ee413          	ori	s0,t4,-76
800077e0:	00ee3233          	sltu	tp,t3,a4
800077e4:	0033c233          	xor	tp,t2,gp
800077e8:	015f1093          	slli	ra,t5,0x15
800077ec:	4cb37c13          	andi	s8,t1,1227
800077f0:	01c4dbb3          	srl	s7,s1,t3
800077f4:	01bef5b3          	and	a1,t4,s11
800077f8:	1d860217          	auipc	tp,0x1d860
800077fc:	00406333          	or	t1,zero,tp
80007800:	20648893          	addi	a7,s1,518
80007804:	015f1093          	slli	ra,t5,0x15
80007808:	00406333          	or	t1,zero,tp
8000780c:	008c8263          	beq	s9,s0,80007810 <sub_3_j5+0x28f8>
80007810:	00ee3233          	sltu	tp,t3,a4
80007814:	0033c233          	xor	tp,t2,gp
80007818:	b35a3893          	sltiu	a7,s4,-1227
8000781c:	008c8a63          	beq	s9,s0,80007830 <sub_3_j5+0x2918>
80007820:	0033c233          	xor	tp,t2,gp
80007824:	023b4463          	blt	s6,gp,8000784c <sub_3_j5+0x2934>
80007828:	00cea633          	slt	a2,t4,a2
8000782c:	01d2d263          	bge	t0,t4,80007830 <sub_3_j5+0x2918>
80007830:	0000100f          	fence.i
80007834:	006410b3          	sll	ra,s0,t1
80007838:	00ee3233          	sltu	tp,t3,a4
8000783c:	015ad993          	srli	s3,s5,0x15
80007840:	40ed8c33          	sub	s8,s11,a4
80007844:	4111dd93          	srai	s11,gp,0x11
80007848:	0000100f          	fence.i
8000784c:	4111dd93          	srai	s11,gp,0x11
80007850:	01c4dbb3          	srl	s7,s1,t3
80007854:	0000100f          	fence.i
80007858:	fb4ee413          	ori	s0,t4,-76
8000785c:	4111dd93          	srai	s11,gp,0x11
80007860:	018d1e63          	bne	s10,s8,8000787c <sub_3_j5+0x2964>
80007864:	006410b3          	sll	ra,s0,t1
80007868:	038d1263          	bne	s10,s8,8000788c <sub_3_j5+0x2974>
8000786c:	20648893          	addi	a7,s1,518
80007870:	20648893          	addi	a7,s1,518
80007874:	20648893          	addi	a7,s1,518
80007878:	015f1093          	slli	ra,t5,0x15
8000787c:	01457663          	bgeu	a0,s4,80007888 <sub_3_j5+0x2970>
80007880:	0033c233          	xor	tp,t2,gp
80007884:	1d860217          	auipc	tp,0x1d860
80007888:	409a5633          	sra	a2,s4,s1
8000788c:	03a0ea63          	bltu	ra,s10,800078c0 <sub_3_j5+0x29a8>
80007890:	015ad993          	srli	s3,s5,0x15
80007894:	028c8c63          	beq	s9,s0,800078cc <sub_3_j5+0x29b4>
80007898:	409a5633          	sra	a2,s4,s1
8000789c:	006410b3          	sll	ra,s0,t1
800078a0:	00ee3233          	sltu	tp,t3,a4
800078a4:	0000100f          	fence.i
800078a8:	01bef5b3          	and	a1,t4,s11
800078ac:	5dff4793          	xori	a5,t5,1503
800078b0:	006410b3          	sll	ra,s0,t1
800078b4:	01bef5b3          	and	a1,t4,s11
800078b8:	038d1263          	bne	s10,s8,800078dc <sub_3_j5+0x29c4>
800078bc:	20648893          	addi	a7,s1,518
800078c0:	01bef5b3          	and	a1,t4,s11
800078c4:	00ee3233          	sltu	tp,t3,a4
800078c8:	0000100f          	fence.i
800078cc:	0ff0000f          	fence
800078d0:	b35a3893          	sltiu	a7,s4,-1227
800078d4:	008c8c63          	beq	s9,s0,800078ec <sub_3_j5+0x29d4>
800078d8:	1d860217          	auipc	tp,0x1d860
800078dc:	015f1093          	slli	ra,t5,0x15
800078e0:	00ee3233          	sltu	tp,t3,a4
800078e4:	03a0e863          	bltu	ra,s10,80007914 <sub_3_j5+0x29fc>
800078e8:	5dff4793          	xori	a5,t5,1503
800078ec:	015f1093          	slli	ra,t5,0x15
800078f0:	00ee3233          	sltu	tp,t3,a4
800078f4:	00cea633          	slt	a2,t4,a2
800078f8:	01c4dbb3          	srl	s7,s1,t3
800078fc:	000706b3          	add	a3,a4,zero
80007900:	fb4ee413          	ori	s0,t4,-76
80007904:	4cb37c13          	andi	s8,t1,1227
80007908:	4111dd93          	srai	s11,gp,0x11
8000790c:	038d1063          	bne	s10,s8,8000792c <sub_3_j5+0x2a14>
80007910:	03a0e863          	bltu	ra,s10,80007940 <sub_3_j5+0x2a28>
80007914:	20648893          	addi	a7,s1,518
80007918:	01c4dbb3          	srl	s7,s1,t3
8000791c:	00406333          	or	t1,zero,tp
80007920:	4cb37c13          	andi	s8,t1,1227
80007924:	fb4ee413          	ori	s0,t4,-76
80007928:	006410b3          	sll	ra,s0,t1
8000792c:	03a0e263          	bltu	ra,s10,80007950 <sub_3_j5+0x2a38>
80007930:	b35a3893          	sltiu	a7,s4,-1227
80007934:	00ee3233          	sltu	tp,t3,a4
80007938:	01457e63          	bgeu	a0,s4,80007954 <sub_3_j5+0x2a3c>
8000793c:	4cb37c13          	andi	s8,t1,1227
80007940:	006410b3          	sll	ra,s0,t1
80007944:	006410b3          	sll	ra,s0,t1
80007948:	00cea633          	slt	a2,t4,a2
8000794c:	015f1093          	slli	ra,t5,0x15
80007950:	bce1a693          	slti	a3,gp,-1074
80007954:	1d860217          	auipc	tp,0x1d860
80007958:	fb4ee413          	ori	s0,t4,-76
8000795c:	004e2f83          	lw	t6,4(t3)
80007960:	409a5633          	sra	a2,s4,s1
80007964:	015f1093          	slli	ra,t5,0x15
80007968:	0ff0000f          	fence
8000796c:	014e0e13          	addi	t3,t3,20
80007970:	000706b3          	add	a3,a4,zero
80007974:	00ee3233          	sltu	tp,t3,a4
80007978:	01bef5b3          	and	a1,t4,s11
8000797c:	4cb37c13          	andi	s8,t1,1227
80007980:	006410b3          	sll	ra,s0,t1
80007984:	00ee3233          	sltu	tp,t3,a4
80007988:	000f8e93          	mv	t4,t6
8000798c:	000e8ee7          	jalr	t4,t4 # 80000000 <_end+0xfffd1180>

80007990 <sub_5>:
80007990:	fece0e13          	addi	t3,t3,-20
80007994:	fb4ee413          	ori	s0,t4,-76
80007998:	00cea633          	slt	a2,t4,a2
8000799c:	b35a3893          	sltiu	a7,s4,-1227
800079a0:	01fe2223          	sw	t6,4(t3)
800079a4:	cc92a0b7          	lui	ra,0xcc92a
800079a8:	00000013          	nop
800079ac:	006410b3          	sll	ra,s0,t1
800079b0:	4cb37c13          	andi	s8,t1,1227
800079b4:	038d1e63          	bne	s10,s8,800079f0 <sub_5+0x60>
800079b8:	028c8263          	beq	s9,s0,800079dc <sub_5+0x4c>
800079bc:	01c4dbb3          	srl	s7,s1,t3
800079c0:	1d860217          	auipc	tp,0x1d860
800079c4:	03d2d863          	bge	t0,t4,800079f4 <sub_5+0x64>
800079c8:	409a5633          	sra	a2,s4,s1
800079cc:	006410b3          	sll	ra,s0,t1
800079d0:	4111dd93          	srai	s11,gp,0x11
800079d4:	01457863          	bgeu	a0,s4,800079e4 <sub_5+0x54>
800079d8:	0ff0000f          	fence
800079dc:	0ff0000f          	fence
800079e0:	018d1a63          	bne	s10,s8,800079f4 <sub_5+0x64>
800079e4:	03d2d063          	bge	t0,t4,80007a04 <sub_5+0x74>
800079e8:	00ee3233          	sltu	tp,t3,a4
800079ec:	000706b3          	add	a3,a4,zero
800079f0:	1d860217          	auipc	tp,0x1d860
800079f4:	409a5633          	sra	a2,s4,s1
800079f8:	409a5633          	sra	a2,s4,s1
800079fc:	cc92a0b7          	lui	ra,0xcc92a
80007a00:	01c4dbb3          	srl	s7,s1,t3
80007a04:	1d860217          	auipc	tp,0x1d860
80007a08:	0ff0000f          	fence
80007a0c:	4cb37c13          	andi	s8,t1,1227
80007a10:	1d860217          	auipc	tp,0x1d860
80007a14:	fb4ee413          	ori	s0,t4,-76
80007a18:	004e2f83          	lw	t6,4(t3)
80007a1c:	00cea633          	slt	a2,t4,a2
80007a20:	0000100f          	fence.i
80007a24:	00cea633          	slt	a2,t4,a2
80007a28:	bce1a693          	slti	a3,gp,-1074
80007a2c:	cc92a0b7          	lui	ra,0xcc92a
80007a30:	014e0e13          	addi	t3,t3,20
80007a34:	1d860217          	auipc	tp,0x1d860
80007a38:	000f8813          	mv	a6,t6
80007a3c:	00080867          	jalr	a6,a6

80007a40 <sub_1>:
80007a40:	20648893          	addi	a7,s1,518
80007a44:	fc8e0e13          	addi	t3,t3,-56
80007a48:	00000013          	nop
80007a4c:	5dff4793          	xori	a5,t5,1503
80007a50:	01fe2223          	sw	t6,4(t3)
80007a54:	00000013          	nop
80007a58:	00cea633          	slt	a2,t4,a2
80007a5c:	000706b3          	add	a3,a4,zero
80007a60:	008c8c63          	beq	s9,s0,80007a78 <sub_1+0x38>
80007a64:	03a0ee63          	bltu	ra,s10,80007aa0 <sub_1+0x60>
80007a68:	006410b3          	sll	ra,s0,t1
80007a6c:	01c4dbb3          	srl	s7,s1,t3
80007a70:	0000100f          	fence.i
80007a74:	00406333          	or	t1,zero,tp
80007a78:	cc92a0b7          	lui	ra,0xcc92a
80007a7c:	00406333          	or	t1,zero,tp
80007a80:	006410b3          	sll	ra,s0,t1
80007a84:	00ee3233          	sltu	tp,t3,a4
80007a88:	015ad993          	srli	s3,s5,0x15
80007a8c:	40ed8c33          	sub	s8,s11,a4
80007a90:	00406333          	or	t1,zero,tp
80007a94:	018d1a63          	bne	s10,s8,80007aa8 <sub_1+0x68>
80007a98:	fb4ee413          	ori	s0,t4,-76
80007a9c:	b35a3893          	sltiu	a7,s4,-1227
80007aa0:	00cea633          	slt	a2,t4,a2
80007aa4:	fb4ee413          	ori	s0,t4,-76
80007aa8:	40ed8c33          	sub	s8,s11,a4
80007aac:	5dff4793          	xori	a5,t5,1503
80007ab0:	00000013          	nop
80007ab4:	015ad993          	srli	s3,s5,0x15
80007ab8:	1d860217          	auipc	tp,0x1d860
80007abc:	20648893          	addi	a7,s1,518
80007ac0:	1d860217          	auipc	tp,0x1d860
80007ac4:	00406333          	or	t1,zero,tp
80007ac8:	015ad993          	srli	s3,s5,0x15
80007acc:	00cea633          	slt	a2,t4,a2
80007ad0:	5dff4793          	xori	a5,t5,1503
80007ad4:	015f1093          	slli	ra,t5,0x15
80007ad8:	0ff0000f          	fence
80007adc:	015ad993          	srli	s3,s5,0x15
80007ae0:	4111dd93          	srai	s11,gp,0x11
80007ae4:	05d2d663          	bge	t0,t4,80007b30 <sub_1_j2+0x8>
80007ae8:	015f1093          	slli	ra,t5,0x15
80007aec:	078d1663          	bne	s10,s8,80007b58 <sub_1_j2+0x30>
80007af0:	4cb37c13          	andi	s8,t1,1227
80007af4:	b35a3913          	sltiu	s2,s4,-1227
80007af8:	00001617          	auipc	a2,0x1
80007afc:	7f060613          	addi	a2,a2,2032 # 800092e8 <sub_2>
80007b00:	bce1a713          	slti	a4,gp,-1074
80007b04:	006410b3          	sll	ra,s0,t1
80007b08:	20648913          	addi	s2,s1,518
80007b0c:	d1c60613          	addi	a2,a2,-740
80007b10:	cc92a0b7          	lui	ra,0xcc92a
80007b14:	00070733          	add	a4,a4,zero
80007b18:	018d1863          	bne	s10,s8,80007b28 <sub_1_j2>
80007b1c:	0ff0000f          	fence
80007b20:	5dff4813          	xori	a6,t5,1503
80007b24:	00406333          	or	t1,zero,tp

80007b28 <sub_1_j2>:
80007b28:	2e460fe7          	jalr	t6,740(a2)
80007b2c:	015ad993          	srli	s3,s5,0x15
80007b30:	cc92a0b7          	lui	ra,0xcc92a
80007b34:	008c8c63          	beq	s9,s0,80007b4c <sub_1_j2+0x24>
80007b38:	00cea633          	slt	a2,t4,a2
80007b3c:	015ad993          	srli	s3,s5,0x15
80007b40:	01a0ec63          	bltu	ra,s10,80007b58 <sub_1_j2+0x30>
80007b44:	4111dd93          	srai	s11,gp,0x11
80007b48:	01d2d263          	bge	t0,t4,80007b4c <sub_1_j2+0x24>
80007b4c:	000706b3          	add	a3,a4,zero
80007b50:	048c8863          	beq	s9,s0,80007ba0 <sub_1_j2+0x78>
80007b54:	015f1093          	slli	ra,t5,0x15
80007b58:	00cea633          	slt	a2,t4,a2
80007b5c:	00000013          	nop
80007b60:	fb4ee413          	ori	s0,t4,-76
80007b64:	000706b3          	add	a3,a4,zero
80007b68:	01bef5b3          	and	a1,t4,s11
80007b6c:	1d860217          	auipc	tp,0x1d860
80007b70:	00406333          	or	t1,zero,tp
80007b74:	cc92a0b7          	lui	ra,0xcc92a
80007b78:	05457463          	bgeu	a0,s4,80007bc0 <sub_1_j2+0x98>
80007b7c:	409a5633          	sra	a2,s4,s1
80007b80:	5dff4793          	xori	a5,t5,1503
80007b84:	00cea633          	slt	a2,t4,a2
80007b88:	00000013          	nop
80007b8c:	00406333          	or	t1,zero,tp
80007b90:	0033c233          	xor	tp,t2,gp
80007b94:	000706b3          	add	a3,a4,zero
80007b98:	01bef5b3          	and	a1,t4,s11
80007b9c:	fb4ee413          	ori	s0,t4,-76
80007ba0:	01a0ea63          	bltu	ra,s10,80007bb4 <sub_1_j2+0x8c>
80007ba4:	015f1093          	slli	ra,t5,0x15
80007ba8:	00cea633          	slt	a2,t4,a2
80007bac:	043b4863          	blt	s6,gp,80007bfc <sub_1_j2+0xd4>
80007bb0:	bce1a693          	slti	a3,gp,-1074
80007bb4:	03a0e463          	bltu	ra,s10,80007bdc <sub_1_j2+0xb4>
80007bb8:	00ee3233          	sltu	tp,t3,a4
80007bbc:	4cb37c13          	andi	s8,t1,1227
80007bc0:	038d1063          	bne	s10,s8,80007be0 <sub_1_j2+0xb8>
80007bc4:	023b4863          	blt	s6,gp,80007bf4 <sub_1_j2+0xcc>
80007bc8:	0000100f          	fence.i
80007bcc:	b35a3893          	sltiu	a7,s4,-1227
80007bd0:	1d860217          	auipc	tp,0x1d860
80007bd4:	4111dd93          	srai	s11,gp,0x11
80007bd8:	20648893          	addi	a7,s1,518
80007bdc:	000706b3          	add	a3,a4,zero
80007be0:	023b4c63          	blt	s6,gp,80007c18 <sub_1_j2+0xf0>
80007be4:	20648893          	addi	a7,s1,518
80007be8:	028c8e63          	beq	s9,s0,80007c24 <sub_1_j2+0xfc>
80007bec:	00406333          	or	t1,zero,tp
80007bf0:	1d860217          	auipc	tp,0x1d860
80007bf4:	40ed8c33          	sub	s8,s11,a4
80007bf8:	038d1a63          	bne	s10,s8,80007c2c <sub_1_j2+0x104>
80007bfc:	cc92a0b7          	lui	ra,0xcc92a
80007c00:	01bef5b3          	and	a1,t4,s11
80007c04:	bce1a693          	slti	a3,gp,-1074
80007c08:	fb4ee413          	ori	s0,t4,-76
80007c0c:	05457463          	bgeu	a0,s4,80007c54 <sub_1_j2+0x12c>
80007c10:	038d1663          	bne	s10,s8,80007c3c <sub_1_j2+0x114>
80007c14:	40ed8c33          	sub	s8,s11,a4
80007c18:	409a5633          	sra	a2,s4,s1
80007c1c:	006410b3          	sll	ra,s0,t1
80007c20:	003b4263          	blt	s6,gp,80007c24 <sub_1_j2+0xfc>
80007c24:	1d860217          	auipc	tp,0x1d860
80007c28:	0033c233          	xor	tp,t2,gp
80007c2c:	4111dd93          	srai	s11,gp,0x11
80007c30:	409a5633          	sra	a2,s4,s1
80007c34:	bce1a693          	slti	a3,gp,-1074
80007c38:	00ee3233          	sltu	tp,t3,a4
80007c3c:	409a5633          	sra	a2,s4,s1
80007c40:	000706b3          	add	a3,a4,zero
80007c44:	bce1a693          	slti	a3,gp,-1074
80007c48:	00406333          	or	t1,zero,tp
80007c4c:	00cea633          	slt	a2,t4,a2
80007c50:	4cb37c13          	andi	s8,t1,1227
80007c54:	00ee3233          	sltu	tp,t3,a4
80007c58:	1d860217          	auipc	tp,0x1d860
80007c5c:	01457863          	bgeu	a0,s4,80007c6c <sub_1_j2+0x144>
80007c60:	01d2d463          	bge	t0,t4,80007c68 <sub_1_j2+0x140>
80007c64:	00ee3233          	sltu	tp,t3,a4
80007c68:	5dff4793          	xori	a5,t5,1503
80007c6c:	00000013          	nop
80007c70:	20648893          	addi	a7,s1,518
80007c74:	409a5633          	sra	a2,s4,s1
80007c78:	03457c63          	bgeu	a0,s4,80007cb0 <sub_1_j2+0x188>
80007c7c:	006410b3          	sll	ra,s0,t1
80007c80:	00ee3233          	sltu	tp,t3,a4
80007c84:	01d2d463          	bge	t0,t4,80007c8c <sub_1_j2+0x164>
80007c88:	20648893          	addi	a7,s1,518
80007c8c:	003b4a63          	blt	s6,gp,80007ca0 <sub_1_j2+0x178>
80007c90:	cc92a0b7          	lui	ra,0xcc92a
80007c94:	008c8863          	beq	s9,s0,80007ca4 <sub_1_j2+0x17c>
80007c98:	0ff0000f          	fence
80007c9c:	01bef5b3          	and	a1,t4,s11
80007ca0:	00cea633          	slt	a2,t4,a2
80007ca4:	bce1a693          	slti	a3,gp,-1074
80007ca8:	4cb37c13          	andi	s8,t1,1227
80007cac:	b35a3893          	sltiu	a7,s4,-1227
80007cb0:	00406333          	or	t1,zero,tp
80007cb4:	40ed8c33          	sub	s8,s11,a4
80007cb8:	4cb37c13          	andi	s8,t1,1227
80007cbc:	008c8a63          	beq	s9,s0,80007cd0 <sub_1_j2+0x1a8>
80007cc0:	015ad993          	srli	s3,s5,0x15
80007cc4:	40ed8c33          	sub	s8,s11,a4
80007cc8:	0033c233          	xor	tp,t2,gp
80007ccc:	00cea633          	slt	a2,t4,a2
80007cd0:	409a5633          	sra	a2,s4,s1
80007cd4:	015ad993          	srli	s3,s5,0x15
80007cd8:	05a0e463          	bltu	ra,s10,80007d20 <sub_1_j2+0x1f8>
80007cdc:	40ed8c33          	sub	s8,s11,a4
80007ce0:	008c8263          	beq	s9,s0,80007ce4 <sub_1_j2+0x1bc>
80007ce4:	0000100f          	fence.i
80007ce8:	4cb37c13          	andi	s8,t1,1227
80007cec:	000706b3          	add	a3,a4,zero
80007cf0:	409a5633          	sra	a2,s4,s1
80007cf4:	20648893          	addi	a7,s1,518
80007cf8:	01d2dc63          	bge	t0,t4,80007d10 <sub_1_j2+0x1e8>
80007cfc:	fb4ee413          	ori	s0,t4,-76
80007d00:	01c4dbb3          	srl	s7,s1,t3
80007d04:	00cea633          	slt	a2,t4,a2
80007d08:	05457863          	bgeu	a0,s4,80007d58 <sub_1_j2+0x230>
80007d0c:	cc92a0b7          	lui	ra,0xcc92a
80007d10:	20648893          	addi	a7,s1,518
80007d14:	00406333          	or	t1,zero,tp
80007d18:	00000013          	nop
80007d1c:	0000100f          	fence.i
80007d20:	03a0ec63          	bltu	ra,s10,80007d58 <sub_1_j2+0x230>
80007d24:	1d860217          	auipc	tp,0x1d860
80007d28:	0000100f          	fence.i
80007d2c:	01a0ec63          	bltu	ra,s10,80007d44 <sub_1_j2+0x21c>
80007d30:	038d1e63          	bne	s10,s8,80007d6c <sub_1_j2+0x244>
80007d34:	01457463          	bgeu	a0,s4,80007d3c <sub_1_j2+0x214>
80007d38:	409a5633          	sra	a2,s4,s1
80007d3c:	fb4ee413          	ori	s0,t4,-76
80007d40:	018d1463          	bne	s10,s8,80007d48 <sub_1_j2+0x220>
80007d44:	0000100f          	fence.i
80007d48:	0ff0000f          	fence
80007d4c:	5dff4793          	xori	a5,t5,1503
80007d50:	01a0ea63          	bltu	ra,s10,80007d64 <sub_1_j2+0x23c>
80007d54:	0033c233          	xor	tp,t2,gp
80007d58:	4cb37c13          	andi	s8,t1,1227
80007d5c:	b35a3893          	sltiu	a7,s4,-1227
80007d60:	00ee3233          	sltu	tp,t3,a4
80007d64:	0000100f          	fence.i
80007d68:	01c4dbb3          	srl	s7,s1,t3
80007d6c:	01bef5b3          	and	a1,t4,s11
80007d70:	bce1a693          	slti	a3,gp,-1074
80007d74:	000706b3          	add	a3,a4,zero
80007d78:	0000100f          	fence.i
80007d7c:	00ee3233          	sltu	tp,t3,a4
80007d80:	01c4dbb3          	srl	s7,s1,t3
80007d84:	015ad993          	srli	s3,s5,0x15
80007d88:	bce1a693          	slti	a3,gp,-1074
80007d8c:	5dff4793          	xori	a5,t5,1503
80007d90:	20648893          	addi	a7,s1,518
80007d94:	00406333          	or	t1,zero,tp
80007d98:	00cea633          	slt	a2,t4,a2
80007d9c:	4cb37c13          	andi	s8,t1,1227
80007da0:	5dff4793          	xori	a5,t5,1503
80007da4:	015ad993          	srli	s3,s5,0x15
80007da8:	01457263          	bgeu	a0,s4,80007dac <sub_1_j2+0x284>
80007dac:	fb4ee413          	ori	s0,t4,-76
80007db0:	00000013          	nop
80007db4:	03d2d663          	bge	t0,t4,80007de0 <sub_1_j2+0x2b8>
80007db8:	b35a3893          	sltiu	a7,s4,-1227
80007dbc:	038d1c63          	bne	s10,s8,80007df4 <sub_1_j2+0x2cc>
80007dc0:	cc92a0b7          	lui	ra,0xcc92a
80007dc4:	00cea633          	slt	a2,t4,a2
80007dc8:	03a0e463          	bltu	ra,s10,80007df0 <sub_1_j2+0x2c8>
80007dcc:	00406333          	or	t1,zero,tp
80007dd0:	0000100f          	fence.i
80007dd4:	0033c233          	xor	tp,t2,gp
80007dd8:	20648893          	addi	a7,s1,518
80007ddc:	00000013          	nop
80007de0:	0033c233          	xor	tp,t2,gp
80007de4:	0033c233          	xor	tp,t2,gp
80007de8:	0ff0000f          	fence
80007dec:	00000013          	nop
80007df0:	01bef5b3          	and	a1,t4,s11
80007df4:	03a0e863          	bltu	ra,s10,80007e24 <sub_1_j2+0x2fc>
80007df8:	4111dd93          	srai	s11,gp,0x11
80007dfc:	1d860217          	auipc	tp,0x1d860
80007e00:	043b4463          	blt	s6,gp,80007e48 <sub_1_j2+0x320>
80007e04:	5dff4793          	xori	a5,t5,1503
80007e08:	00406333          	or	t1,zero,tp
80007e0c:	409a5633          	sra	a2,s4,s1
80007e10:	05457463          	bgeu	a0,s4,80007e58 <sub_1_j2+0x330>
80007e14:	003b4a63          	blt	s6,gp,80007e28 <sub_1_j2+0x300>
80007e18:	00406333          	or	t1,zero,tp
80007e1c:	01c4dbb3          	srl	s7,s1,t3
80007e20:	1d860217          	auipc	tp,0x1d860
80007e24:	20648893          	addi	a7,s1,518
80007e28:	b35a3893          	sltiu	a7,s4,-1227
80007e2c:	000706b3          	add	a3,a4,zero
80007e30:	015f1093          	slli	ra,t5,0x15
80007e34:	fb4ee413          	ori	s0,t4,-76
80007e38:	015f1093          	slli	ra,t5,0x15
80007e3c:	0033c233          	xor	tp,t2,gp
80007e40:	0ff0000f          	fence
80007e44:	00406333          	or	t1,zero,tp
80007e48:	015ad993          	srli	s3,s5,0x15
80007e4c:	0000100f          	fence.i
80007e50:	01c4dbb3          	srl	s7,s1,t3
80007e54:	409a5633          	sra	a2,s4,s1
80007e58:	5dff4793          	xori	a5,t5,1503
80007e5c:	1d860217          	auipc	tp,0x1d860
80007e60:	01457a63          	bgeu	a0,s4,80007e74 <sub_1_j2+0x34c>
80007e64:	0ff0000f          	fence
80007e68:	0033c233          	xor	tp,t2,gp
80007e6c:	bce1a693          	slti	a3,gp,-1074
80007e70:	00406333          	or	t1,zero,tp
80007e74:	0000100f          	fence.i
80007e78:	bce1a693          	slti	a3,gp,-1074
80007e7c:	fb4ee413          	ori	s0,t4,-76
80007e80:	40ed8c33          	sub	s8,s11,a4
80007e84:	20648893          	addi	a7,s1,518
80007e88:	01c4dbb3          	srl	s7,s1,t3
80007e8c:	0ff0000f          	fence
80007e90:	01d2d263          	bge	t0,t4,80007e94 <sub_1_j2+0x36c>
80007e94:	1d860217          	auipc	tp,0x1d860
80007e98:	0000100f          	fence.i
80007e9c:	000706b3          	add	a3,a4,zero
80007ea0:	b35a3893          	sltiu	a7,s4,-1227
80007ea4:	03d2d063          	bge	t0,t4,80007ec4 <sub_1_j2+0x39c>
80007ea8:	00ee3233          	sltu	tp,t3,a4
80007eac:	018d1a63          	bne	s10,s8,80007ec0 <sub_1_j2+0x398>
80007eb0:	409a5633          	sra	a2,s4,s1
80007eb4:	0033c233          	xor	tp,t2,gp
80007eb8:	0033c233          	xor	tp,t2,gp
80007ebc:	006410b3          	sll	ra,s0,t1
80007ec0:	01bef5b3          	and	a1,t4,s11
80007ec4:	4111dd93          	srai	s11,gp,0x11
80007ec8:	0033c233          	xor	tp,t2,gp
80007ecc:	018d1c63          	bne	s10,s8,80007ee4 <sub_1_j2+0x3bc>
80007ed0:	01bef5b3          	and	a1,t4,s11
80007ed4:	000706b3          	add	a3,a4,zero
80007ed8:	015ad993          	srli	s3,s5,0x15
80007edc:	fb4ee413          	ori	s0,t4,-76
80007ee0:	b35a3893          	sltiu	a7,s4,-1227
80007ee4:	4cb37c13          	andi	s8,t1,1227
80007ee8:	00000013          	nop
80007eec:	b35a3893          	sltiu	a7,s4,-1227
80007ef0:	20648893          	addi	a7,s1,518
80007ef4:	20648893          	addi	a7,s1,518
80007ef8:	00000013          	nop
80007efc:	015f1093          	slli	ra,t5,0x15
80007f00:	000706b3          	add	a3,a4,zero
80007f04:	bce1a693          	slti	a3,gp,-1074
80007f08:	00406333          	or	t1,zero,tp
80007f0c:	01bef5b3          	and	a1,t4,s11
80007f10:	0ff0000f          	fence
80007f14:	01457863          	bgeu	a0,s4,80007f24 <sub_1_j2+0x3fc>
80007f18:	cc92a0b7          	lui	ra,0xcc92a
80007f1c:	cc92a0b7          	lui	ra,0xcc92a
80007f20:	40ed8c33          	sub	s8,s11,a4
80007f24:	00ee3233          	sltu	tp,t3,a4
80007f28:	1d860217          	auipc	tp,0x1d860
80007f2c:	cc92a0b7          	lui	ra,0xcc92a
80007f30:	038d1a63          	bne	s10,s8,80007f64 <sub_1_j2+0x43c>
80007f34:	015f1093          	slli	ra,t5,0x15
80007f38:	00ee3233          	sltu	tp,t3,a4
80007f3c:	028c8a63          	beq	s9,s0,80007f70 <sub_1_j2+0x448>
80007f40:	b35a3893          	sltiu	a7,s4,-1227
80007f44:	4cb37c13          	andi	s8,t1,1227
80007f48:	409a5633          	sra	a2,s4,s1
80007f4c:	00cea633          	slt	a2,t4,a2
80007f50:	409a5633          	sra	a2,s4,s1
80007f54:	0000100f          	fence.i
80007f58:	bce1a693          	slti	a3,gp,-1074
80007f5c:	01d2da63          	bge	t0,t4,80007f70 <sub_1_j2+0x448>
80007f60:	0033c233          	xor	tp,t2,gp
80007f64:	00406333          	or	t1,zero,tp
80007f68:	b35a3893          	sltiu	a7,s4,-1227
80007f6c:	4111dd93          	srai	s11,gp,0x11
80007f70:	015ad993          	srli	s3,s5,0x15
80007f74:	01bef5b3          	and	a1,t4,s11
80007f78:	00000013          	nop
80007f7c:	4111dd93          	srai	s11,gp,0x11
80007f80:	015f1093          	slli	ra,t5,0x15
80007f84:	00ee3233          	sltu	tp,t3,a4
80007f88:	cc92a0b7          	lui	ra,0xcc92a
80007f8c:	00ee3233          	sltu	tp,t3,a4
80007f90:	00ee3233          	sltu	tp,t3,a4
80007f94:	00ee3233          	sltu	tp,t3,a4
80007f98:	cc92a0b7          	lui	ra,0xcc92a
80007f9c:	008c8863          	beq	s9,s0,80007fac <sub_1_j2+0x484>
80007fa0:	01bef5b3          	and	a1,t4,s11
80007fa4:	028c8e63          	beq	s9,s0,80007fe0 <sub_1_j2+0x4b8>
80007fa8:	1d860217          	auipc	tp,0x1d860
80007fac:	015f1093          	slli	ra,t5,0x15
80007fb0:	40ed8c33          	sub	s8,s11,a4
80007fb4:	003b4263          	blt	s6,gp,80007fb8 <sub_1_j2+0x490>
80007fb8:	4cb37c13          	andi	s8,t1,1227
80007fbc:	b35a3893          	sltiu	a7,s4,-1227
80007fc0:	b35a3893          	sltiu	a7,s4,-1227
80007fc4:	40ed8c33          	sub	s8,s11,a4
80007fc8:	01bef5b3          	and	a1,t4,s11
80007fcc:	01c4dbb3          	srl	s7,s1,t3
80007fd0:	0000100f          	fence.i
80007fd4:	cc92a0b7          	lui	ra,0xcc92a
80007fd8:	015f1093          	slli	ra,t5,0x15
80007fdc:	20648893          	addi	a7,s1,518
80007fe0:	015ad993          	srli	s3,s5,0x15
80007fe4:	4111dd93          	srai	s11,gp,0x11
80007fe8:	bce1a693          	slti	a3,gp,-1074
80007fec:	05a0e463          	bltu	ra,s10,80008034 <sub_1_j2+0x50c>
80007ff0:	4cb37c13          	andi	s8,t1,1227
80007ff4:	05d2d863          	bge	t0,t4,80008044 <sub_1_j2+0x51c>
80007ff8:	01457c63          	bgeu	a0,s4,80008010 <sub_1_j2+0x4e8>
80007ffc:	4cb37c13          	andi	s8,t1,1227
80008000:	01bef5b3          	and	a1,t4,s11
80008004:	015f1093          	slli	ra,t5,0x15
80008008:	20648893          	addi	a7,s1,518
8000800c:	01c4dbb3          	srl	s7,s1,t3
80008010:	4cb37c13          	andi	s8,t1,1227
80008014:	006410b3          	sll	ra,s0,t1
80008018:	0ff0000f          	fence
8000801c:	006410b3          	sll	ra,s0,t1
80008020:	bce1a693          	slti	a3,gp,-1074
80008024:	00ee3233          	sltu	tp,t3,a4
80008028:	003b4a63          	blt	s6,gp,8000803c <sub_1_j2+0x514>
8000802c:	4111dd93          	srai	s11,gp,0x11
80008030:	043b4463          	blt	s6,gp,80008078 <sub_1_j2+0x550>
80008034:	4111dd93          	srai	s11,gp,0x11
80008038:	043b4863          	blt	s6,gp,80008088 <sub_1_j2+0x560>
8000803c:	0033c233          	xor	tp,t2,gp
80008040:	015f1093          	slli	ra,t5,0x15
80008044:	015ad993          	srli	s3,s5,0x15
80008048:	015f1093          	slli	ra,t5,0x15
8000804c:	b35a3893          	sltiu	a7,s4,-1227
80008050:	015f1093          	slli	ra,t5,0x15
80008054:	015f1093          	slli	ra,t5,0x15
80008058:	018d1a63          	bne	s10,s8,8000806c <sub_1_j2+0x544>
8000805c:	409a5633          	sra	a2,s4,s1
80008060:	006410b3          	sll	ra,s0,t1
80008064:	cc92a0b7          	lui	ra,0xcc92a
80008068:	20648893          	addi	a7,s1,518
8000806c:	fb4ee413          	ori	s0,t4,-76
80008070:	000706b3          	add	a3,a4,zero
80008074:	4111dd93          	srai	s11,gp,0x11
80008078:	015ad993          	srli	s3,s5,0x15
8000807c:	000706b3          	add	a3,a4,zero
80008080:	4111dd93          	srai	s11,gp,0x11
80008084:	015f1093          	slli	ra,t5,0x15
80008088:	bce1a693          	slti	a3,gp,-1074
8000808c:	bce1a693          	slti	a3,gp,-1074
80008090:	000706b3          	add	a3,a4,zero
80008094:	fb4ee413          	ori	s0,t4,-76
80008098:	20648893          	addi	a7,s1,518
8000809c:	fb4ee413          	ori	s0,t4,-76
800080a0:	0ff0000f          	fence
800080a4:	015ad993          	srli	s3,s5,0x15
800080a8:	40ed8c33          	sub	s8,s11,a4
800080ac:	000706b3          	add	a3,a4,zero
800080b0:	4cb37c13          	andi	s8,t1,1227
800080b4:	038d1c63          	bne	s10,s8,800080ec <sub_1_j2+0x5c4>
800080b8:	03457e63          	bgeu	a0,s4,800080f4 <sub_1_j2+0x5cc>
800080bc:	023b4063          	blt	s6,gp,800080dc <sub_1_j2+0x5b4>
800080c0:	015f1093          	slli	ra,t5,0x15
800080c4:	015ad993          	srli	s3,s5,0x15
800080c8:	5dff4793          	xori	a5,t5,1503
800080cc:	cc92a0b7          	lui	ra,0xcc92a
800080d0:	006410b3          	sll	ra,s0,t1
800080d4:	015f1093          	slli	ra,t5,0x15
800080d8:	01c4dbb3          	srl	s7,s1,t3
800080dc:	003b4c63          	blt	s6,gp,800080f4 <sub_1_j2+0x5cc>
800080e0:	b35a3893          	sltiu	a7,s4,-1227
800080e4:	cc92a0b7          	lui	ra,0xcc92a
800080e8:	0000100f          	fence.i
800080ec:	0ff0000f          	fence
800080f0:	20648893          	addi	a7,s1,518
800080f4:	40ed8c33          	sub	s8,s11,a4
800080f8:	0033c233          	xor	tp,t2,gp
800080fc:	01bef5b3          	and	a1,t4,s11
80008100:	00406333          	or	t1,zero,tp
80008104:	40ed8c33          	sub	s8,s11,a4
80008108:	4cb37c13          	andi	s8,t1,1227
8000810c:	0000100f          	fence.i
80008110:	b35a3893          	sltiu	a7,s4,-1227
80008114:	20648893          	addi	a7,s1,518
80008118:	01c4dbb3          	srl	s7,s1,t3
8000811c:	03457463          	bgeu	a0,s4,80008144 <sub_1_j2+0x61c>
80008120:	4111dd93          	srai	s11,gp,0x11
80008124:	023b4663          	blt	s6,gp,80008150 <sub_1_j2+0x628>
80008128:	0033c233          	xor	tp,t2,gp
8000812c:	006410b3          	sll	ra,s0,t1
80008130:	20648893          	addi	a7,s1,518
80008134:	023b4c63          	blt	s6,gp,8000816c <sub_1_j2+0x644>
80008138:	015f1093          	slli	ra,t5,0x15
8000813c:	000706b3          	add	a3,a4,zero
80008140:	01a0ec63          	bltu	ra,s10,80008158 <sub_1_j2+0x630>
80008144:	0033c233          	xor	tp,t2,gp
80008148:	015f1093          	slli	ra,t5,0x15
8000814c:	5dff4793          	xori	a5,t5,1503
80008150:	000706b3          	add	a3,a4,zero
80008154:	018d1863          	bne	s10,s8,80008164 <sub_1_j2+0x63c>
80008158:	40ed8c33          	sub	s8,s11,a4
8000815c:	00406333          	or	t1,zero,tp
80008160:	4111dd93          	srai	s11,gp,0x11
80008164:	0000100f          	fence.i
80008168:	5dff4793          	xori	a5,t5,1503
8000816c:	043b4863          	blt	s6,gp,800081bc <sub_1_j2+0x694>
80008170:	00ee3233          	sltu	tp,t3,a4
80008174:	00ee3233          	sltu	tp,t3,a4
80008178:	20648893          	addi	a7,s1,518
8000817c:	0033c233          	xor	tp,t2,gp
80008180:	01bef5b3          	and	a1,t4,s11
80008184:	b35a3893          	sltiu	a7,s4,-1227
80008188:	00000013          	nop
8000818c:	00000013          	nop
80008190:	4111dd93          	srai	s11,gp,0x11
80008194:	4cb37c13          	andi	s8,t1,1227
80008198:	003b4263          	blt	s6,gp,8000819c <sub_1_j2+0x674>
8000819c:	cc92a0b7          	lui	ra,0xcc92a
800081a0:	01bef5b3          	and	a1,t4,s11
800081a4:	4111dd93          	srai	s11,gp,0x11
800081a8:	5dff4793          	xori	a5,t5,1503
800081ac:	05457463          	bgeu	a0,s4,800081f4 <sub_1_j2+0x6cc>
800081b0:	0000100f          	fence.i
800081b4:	01a0ea63          	bltu	ra,s10,800081c8 <sub_1_j2+0x6a0>
800081b8:	01c4dbb3          	srl	s7,s1,t3
800081bc:	00ee3233          	sltu	tp,t3,a4
800081c0:	0000100f          	fence.i
800081c4:	1d860217          	auipc	tp,0x1d860
800081c8:	1d860217          	auipc	tp,0x1d860
800081cc:	01457863          	bgeu	a0,s4,800081dc <sub_1_j2+0x6b4>
800081d0:	01bef5b3          	and	a1,t4,s11
800081d4:	0ff0000f          	fence
800081d8:	5dff4793          	xori	a5,t5,1503
800081dc:	015f1093          	slli	ra,t5,0x15
800081e0:	0ff0000f          	fence
800081e4:	0000100f          	fence.i
800081e8:	5dff4793          	xori	a5,t5,1503
800081ec:	01bef5b3          	and	a1,t4,s11
800081f0:	05d2d463          	bge	t0,t4,80008238 <sub_1_j2+0x710>
800081f4:	01c4dbb3          	srl	s7,s1,t3
800081f8:	01bef5b3          	and	a1,t4,s11
800081fc:	0ff0000f          	fence
80008200:	00000013          	nop
80008204:	00406333          	or	t1,zero,tp
80008208:	01a0e463          	bltu	ra,s10,80008210 <sub_1_j2+0x6e8>
8000820c:	40ed8c33          	sub	s8,s11,a4
80008210:	0000100f          	fence.i
80008214:	003b4a63          	blt	s6,gp,80008228 <sub_1_j2+0x700>
80008218:	40ed8c33          	sub	s8,s11,a4
8000821c:	01bef5b3          	and	a1,t4,s11
80008220:	03457a63          	bgeu	a0,s4,80008254 <sub_1_j2+0x72c>
80008224:	00ee3233          	sltu	tp,t3,a4
80008228:	01c4dbb3          	srl	s7,s1,t3
8000822c:	4cb37c13          	andi	s8,t1,1227
80008230:	00406333          	or	t1,zero,tp
80008234:	00000013          	nop
80008238:	5dff4793          	xori	a5,t5,1503
8000823c:	0ff0000f          	fence
80008240:	409a5633          	sra	a2,s4,s1
80008244:	008c8a63          	beq	s9,s0,80008258 <sub_1_j2+0x730>
80008248:	00000013          	nop
8000824c:	bce1a693          	slti	a3,gp,-1074
80008250:	0033c233          	xor	tp,t2,gp
80008254:	003b4463          	blt	s6,gp,8000825c <sub_1_j2+0x734>
80008258:	015f1093          	slli	ra,t5,0x15
8000825c:	1d860217          	auipc	tp,0x1d860
80008260:	4111dd93          	srai	s11,gp,0x11
80008264:	cc92a0b7          	lui	ra,0xcc92a
80008268:	038d1863          	bne	s10,s8,80008298 <sub_1_j2+0x770>
8000826c:	01d2d263          	bge	t0,t4,80008270 <sub_1_j2+0x748>
80008270:	4cb37c13          	andi	s8,t1,1227
80008274:	01bef5b3          	and	a1,t4,s11
80008278:	00ee3233          	sltu	tp,t3,a4
8000827c:	000706b3          	add	a3,a4,zero
80008280:	5dff4793          	xori	a5,t5,1503
80008284:	b35a3893          	sltiu	a7,s4,-1227
80008288:	40ed8c33          	sub	s8,s11,a4
8000828c:	bce1a693          	slti	a3,gp,-1074
80008290:	bce1a693          	slti	a3,gp,-1074
80008294:	000706b3          	add	a3,a4,zero
80008298:	20648893          	addi	a7,s1,518
8000829c:	bce1a693          	slti	a3,gp,-1074
800082a0:	00406333          	or	t1,zero,tp
800082a4:	01c4dbb3          	srl	s7,s1,t3
800082a8:	000706b3          	add	a3,a4,zero
800082ac:	0ff0000f          	fence
800082b0:	00406333          	or	t1,zero,tp
800082b4:	00406333          	or	t1,zero,tp
800082b8:	0000100f          	fence.i
800082bc:	00cea633          	slt	a2,t4,a2
800082c0:	00cea633          	slt	a2,t4,a2
800082c4:	409a5633          	sra	a2,s4,s1
800082c8:	006410b3          	sll	ra,s0,t1
800082cc:	00406333          	or	t1,zero,tp
800082d0:	01c4dc33          	srl	s8,s1,t3
800082d4:	1d860217          	auipc	tp,0x1d860
800082d8:	b35a3893          	sltiu	a7,s4,-1227
800082dc:	00000013          	nop
800082e0:	006410b3          	sll	ra,s0,t1
800082e4:	b35a3893          	sltiu	a7,s4,-1227
800082e8:	01a0e463          	bltu	ra,s10,800082f0 <sub_1_j3>
800082ec:	4cb37c93          	andi	s9,t1,1227

800082f0 <sub_1_j3>:
800082f0:	bbdfbfef          	jal	t6,80003eac <sub_3>
800082f4:	028c8e63          	beq	s9,s0,80008330 <sub_1_j3+0x40>
800082f8:	000706b3          	add	a3,a4,zero
800082fc:	0033c233          	xor	tp,t2,gp
80008300:	038d1a63          	bne	s10,s8,80008334 <sub_1_j3+0x44>
80008304:	01a0e263          	bltu	ra,s10,80008308 <sub_1_j3+0x18>
80008308:	003b4a63          	blt	s6,gp,8000831c <sub_1_j3+0x2c>
8000830c:	bce1a693          	slti	a3,gp,-1074
80008310:	4111dd93          	srai	s11,gp,0x11
80008314:	018d1263          	bne	s10,s8,80008318 <sub_1_j3+0x28>
80008318:	05457463          	bgeu	a0,s4,80008360 <sub_1_j3+0x70>
8000831c:	01bef5b3          	and	a1,t4,s11
80008320:	03d2de63          	bge	t0,t4,8000835c <sub_1_j3+0x6c>
80008324:	00000013          	nop
80008328:	038d1c63          	bne	s10,s8,80008360 <sub_1_j3+0x70>
8000832c:	01d2d263          	bge	t0,t4,80008330 <sub_1_j3+0x40>
80008330:	0ff0000f          	fence
80008334:	5dff4793          	xori	a5,t5,1503
80008338:	40ed8c33          	sub	s8,s11,a4
8000833c:	01bef5b3          	and	a1,t4,s11
80008340:	01c4dbb3          	srl	s7,s1,t3
80008344:	00ee3233          	sltu	tp,t3,a4
80008348:	01bef5b3          	and	a1,t4,s11
8000834c:	058d1863          	bne	s10,s8,8000839c <sub_1_j3+0xac>
80008350:	006410b3          	sll	ra,s0,t1
80008354:	4cb37c13          	andi	s8,t1,1227
80008358:	4111dd93          	srai	s11,gp,0x11
8000835c:	0000100f          	fence.i
80008360:	006410b3          	sll	ra,s0,t1
80008364:	01d2d863          	bge	t0,t4,80008374 <sub_1_j3+0x84>
80008368:	fb4ee413          	ori	s0,t4,-76
8000836c:	00000013          	nop
80008370:	b35a3893          	sltiu	a7,s4,-1227
80008374:	40ed8c33          	sub	s8,s11,a4
80008378:	1d860217          	auipc	tp,0x1d860
8000837c:	015f1093          	slli	ra,t5,0x15
80008380:	00406333          	or	t1,zero,tp
80008384:	1d860217          	auipc	tp,0x1d860
80008388:	fb4ee413          	ori	s0,t4,-76
8000838c:	01a0ea63          	bltu	ra,s10,800083a0 <sub_1_j3+0xb0>
80008390:	03a0ea63          	bltu	ra,s10,800083c4 <sub_1_j3+0xd4>
80008394:	008c8a63          	beq	s9,s0,800083a8 <sub_1_j3+0xb8>
80008398:	20648893          	addi	a7,s1,518
8000839c:	1d860217          	auipc	tp,0x1d860
800083a0:	cc92a0b7          	lui	ra,0xcc92a
800083a4:	01a0ea63          	bltu	ra,s10,800083b8 <sub_1_j3+0xc8>
800083a8:	b35a3893          	sltiu	a7,s4,-1227
800083ac:	03a0e863          	bltu	ra,s10,800083dc <sub_1_j3+0xec>
800083b0:	409a5633          	sra	a2,s4,s1
800083b4:	409a5633          	sra	a2,s4,s1
800083b8:	0033c233          	xor	tp,t2,gp
800083bc:	4cb37c13          	andi	s8,t1,1227
800083c0:	409a5633          	sra	a2,s4,s1
800083c4:	fb4ee413          	ori	s0,t4,-76
800083c8:	015f1093          	slli	ra,t5,0x15
800083cc:	01bef5b3          	and	a1,t4,s11
800083d0:	05a0e463          	bltu	ra,s10,80008418 <sub_1_j3+0x128>
800083d4:	b35a3893          	sltiu	a7,s4,-1227
800083d8:	00ee3233          	sltu	tp,t3,a4
800083dc:	0ff0000f          	fence
800083e0:	b35a3893          	sltiu	a7,s4,-1227
800083e4:	20648893          	addi	a7,s1,518
800083e8:	03457a63          	bgeu	a0,s4,8000841c <sub_1_j3+0x12c>
800083ec:	015f1093          	slli	ra,t5,0x15
800083f0:	4cb37c13          	andi	s8,t1,1227
800083f4:	20648893          	addi	a7,s1,518
800083f8:	1d860217          	auipc	tp,0x1d860
800083fc:	bce1a693          	slti	a3,gp,-1074
80008400:	00406333          	or	t1,zero,tp
80008404:	058d1463          	bne	s10,s8,8000844c <sub_1_j3+0x15c>
80008408:	01a0ec63          	bltu	ra,s10,80008420 <sub_1_j3+0x130>
8000840c:	01d2d863          	bge	t0,t4,8000841c <sub_1_j3+0x12c>
80008410:	038d1063          	bne	s10,s8,80008430 <sub_1_j3+0x140>
80008414:	006410b3          	sll	ra,s0,t1
80008418:	0ff0000f          	fence
8000841c:	0033c233          	xor	tp,t2,gp
80008420:	03457c63          	bgeu	a0,s4,80008458 <sub_1_j3+0x168>
80008424:	015ad993          	srli	s3,s5,0x15
80008428:	40ed8c33          	sub	s8,s11,a4
8000842c:	015f1093          	slli	ra,t5,0x15
80008430:	01a0e263          	bltu	ra,s10,80008434 <sub_1_j3+0x144>
80008434:	0033c233          	xor	tp,t2,gp
80008438:	0000100f          	fence.i
8000843c:	20648893          	addi	a7,s1,518
80008440:	00ee3233          	sltu	tp,t3,a4
80008444:	015f1093          	slli	ra,t5,0x15
80008448:	000706b3          	add	a3,a4,zero
8000844c:	fb4ee413          	ori	s0,t4,-76
80008450:	000706b3          	add	a3,a4,zero
80008454:	0000100f          	fence.i
80008458:	03a0ee63          	bltu	ra,s10,80008494 <sub_1_j3+0x1a4>
8000845c:	5dff4793          	xori	a5,t5,1503
80008460:	1d860217          	auipc	tp,0x1d860
80008464:	5dff4793          	xori	a5,t5,1503
80008468:	40ed8c33          	sub	s8,s11,a4
8000846c:	00ee3233          	sltu	tp,t3,a4
80008470:	409a5633          	sra	a2,s4,s1
80008474:	00000013          	nop
80008478:	20648893          	addi	a7,s1,518
8000847c:	bce1a693          	slti	a3,gp,-1074
80008480:	cc92a0b7          	lui	ra,0xcc92a
80008484:	0000100f          	fence.i
80008488:	bce1a693          	slti	a3,gp,-1074
8000848c:	4111dd93          	srai	s11,gp,0x11
80008490:	01c4dbb3          	srl	s7,s1,t3
80008494:	015f1093          	slli	ra,t5,0x15
80008498:	01d2dc63          	bge	t0,t4,800084b0 <sub_1_j3+0x1c0>
8000849c:	fb4ee413          	ori	s0,t4,-76
800084a0:	01c4dbb3          	srl	s7,s1,t3
800084a4:	00406333          	or	t1,zero,tp
800084a8:	b35a3893          	sltiu	a7,s4,-1227
800084ac:	bce1a693          	slti	a3,gp,-1074
800084b0:	5dff4793          	xori	a5,t5,1503
800084b4:	20648893          	addi	a7,s1,518
800084b8:	1d860217          	auipc	tp,0x1d860
800084bc:	0033c233          	xor	tp,t2,gp
800084c0:	008c8463          	beq	s9,s0,800084c8 <sub_1_j3+0x1d8>
800084c4:	00406333          	or	t1,zero,tp
800084c8:	0ff0000f          	fence
800084cc:	20648893          	addi	a7,s1,518
800084d0:	006410b3          	sll	ra,s0,t1
800084d4:	003b4463          	blt	s6,gp,800084dc <sub_1_j3+0x1ec>
800084d8:	03a0e663          	bltu	ra,s10,80008504 <sub_1_j3+0x214>
800084dc:	01c4dbb3          	srl	s7,s1,t3
800084e0:	05d2d863          	bge	t0,t4,80008530 <sub_1_j3+0x240>
800084e4:	01bef5b3          	and	a1,t4,s11
800084e8:	028c8463          	beq	s9,s0,80008510 <sub_1_j3+0x220>
800084ec:	015f1093          	slli	ra,t5,0x15
800084f0:	003b4c63          	blt	s6,gp,80008508 <sub_1_j3+0x218>
800084f4:	20648893          	addi	a7,s1,518
800084f8:	0000100f          	fence.i
800084fc:	015f1093          	slli	ra,t5,0x15
80008500:	01bef5b3          	and	a1,t4,s11
80008504:	00406333          	or	t1,zero,tp
80008508:	01a0ea63          	bltu	ra,s10,8000851c <sub_1_j3+0x22c>
8000850c:	cc92a0b7          	lui	ra,0xcc92a
80008510:	20648893          	addi	a7,s1,518
80008514:	01bef5b3          	and	a1,t4,s11
80008518:	015f1093          	slli	ra,t5,0x15
8000851c:	006410b3          	sll	ra,s0,t1
80008520:	409a5633          	sra	a2,s4,s1
80008524:	20648893          	addi	a7,s1,518
80008528:	1d860217          	auipc	tp,0x1d860
8000852c:	000706b3          	add	a3,a4,zero
80008530:	40ed8c33          	sub	s8,s11,a4
80008534:	00000013          	nop
80008538:	40ed8c33          	sub	s8,s11,a4
8000853c:	1d860217          	auipc	tp,0x1d860
80008540:	00ee3233          	sltu	tp,t3,a4
80008544:	015f1093          	slli	ra,t5,0x15
80008548:	008c8c63          	beq	s9,s0,80008560 <sub_1_j3+0x270>
8000854c:	058d1863          	bne	s10,s8,8000859c <sub_1_j3+0x2ac>
80008550:	000706b3          	add	a3,a4,zero
80008554:	01c4dbb3          	srl	s7,s1,t3
80008558:	01c4dbb3          	srl	s7,s1,t3
8000855c:	015f1093          	slli	ra,t5,0x15
80008560:	01bef5b3          	and	a1,t4,s11
80008564:	5dff4793          	xori	a5,t5,1503
80008568:	00000013          	nop
8000856c:	0ff0000f          	fence
80008570:	0033c233          	xor	tp,t2,gp
80008574:	01d2da63          	bge	t0,t4,80008588 <sub_1_j3+0x298>
80008578:	409a5633          	sra	a2,s4,s1
8000857c:	03457a63          	bgeu	a0,s4,800085b0 <sub_1_j3+0x2c0>
80008580:	cc92a0b7          	lui	ra,0xcc92a
80008584:	01a0ea63          	bltu	ra,s10,80008598 <sub_1_j3+0x2a8>
80008588:	00406333          	or	t1,zero,tp
8000858c:	4111dd93          	srai	s11,gp,0x11
80008590:	008c8a63          	beq	s9,s0,800085a4 <sub_1_j3+0x2b4>
80008594:	01c4dbb3          	srl	s7,s1,t3
80008598:	015f1093          	slli	ra,t5,0x15
8000859c:	1d860217          	auipc	tp,0x1d860
800085a0:	00cea633          	slt	a2,t4,a2
800085a4:	40ed8c33          	sub	s8,s11,a4
800085a8:	0000100f          	fence.i
800085ac:	00cea633          	slt	a2,t4,a2
800085b0:	0ff0000f          	fence
800085b4:	01457c63          	bgeu	a0,s4,800085cc <sub_1_j3+0x2dc>
800085b8:	01bef5b3          	and	a1,t4,s11
800085bc:	015f1093          	slli	ra,t5,0x15
800085c0:	0ff0000f          	fence
800085c4:	fb4ee413          	ori	s0,t4,-76
800085c8:	fb4ee413          	ori	s0,t4,-76
800085cc:	0ff0000f          	fence
800085d0:	01c4dbb3          	srl	s7,s1,t3
800085d4:	01457a63          	bgeu	a0,s4,800085e8 <sub_1_j3+0x2f8>
800085d8:	00406333          	or	t1,zero,tp
800085dc:	01bef5b3          	and	a1,t4,s11
800085e0:	b35a3893          	sltiu	a7,s4,-1227
800085e4:	00ee3233          	sltu	tp,t3,a4
800085e8:	015ad993          	srli	s3,s5,0x15
800085ec:	0033c233          	xor	tp,t2,gp
800085f0:	cc92a0b7          	lui	ra,0xcc92a
800085f4:	bce1a693          	slti	a3,gp,-1074
800085f8:	0033c233          	xor	tp,t2,gp
800085fc:	038d1e63          	bne	s10,s8,80008638 <sub_1_j3+0x348>
80008600:	01a0e863          	bltu	ra,s10,80008610 <sub_1_j3+0x320>
80008604:	b35a3893          	sltiu	a7,s4,-1227
80008608:	20648893          	addi	a7,s1,518
8000860c:	4cb37c13          	andi	s8,t1,1227
80008610:	4cb37c13          	andi	s8,t1,1227
80008614:	006410b3          	sll	ra,s0,t1
80008618:	4111dd93          	srai	s11,gp,0x11
8000861c:	015ad993          	srli	s3,s5,0x15
80008620:	00ee3233          	sltu	tp,t3,a4
80008624:	0000100f          	fence.i
80008628:	015f1093          	slli	ra,t5,0x15
8000862c:	0000100f          	fence.i
80008630:	fb4ee413          	ori	s0,t4,-76
80008634:	00000013          	nop
80008638:	043b4863          	blt	s6,gp,80008688 <sub_1_j3+0x398>
8000863c:	5dff4793          	xori	a5,t5,1503
80008640:	0000100f          	fence.i
80008644:	20648893          	addi	a7,s1,518
80008648:	0000100f          	fence.i
8000864c:	409a5633          	sra	a2,s4,s1
80008650:	bce1a693          	slti	a3,gp,-1074
80008654:	015ad993          	srli	s3,s5,0x15
80008658:	20648893          	addi	a7,s1,518
8000865c:	1d860217          	auipc	tp,0x1d860
80008660:	00000013          	nop
80008664:	023b4063          	blt	s6,gp,80008684 <sub_1_j3+0x394>
80008668:	006410b3          	sll	ra,s0,t1
8000866c:	cc92a0b7          	lui	ra,0xcc92a
80008670:	bce1a693          	slti	a3,gp,-1074
80008674:	00cea633          	slt	a2,t4,a2
80008678:	0000100f          	fence.i
8000867c:	4111dd93          	srai	s11,gp,0x11
80008680:	028c8863          	beq	s9,s0,800086b0 <sub_1_j3+0x3c0>
80008684:	01d2dc63          	bge	t0,t4,8000869c <sub_1_j3+0x3ac>
80008688:	01457263          	bgeu	a0,s4,8000868c <sub_1_j3+0x39c>
8000868c:	0000100f          	fence.i
80008690:	409a5633          	sra	a2,s4,s1
80008694:	018d1463          	bne	s10,s8,8000869c <sub_1_j3+0x3ac>
80008698:	03457663          	bgeu	a0,s4,800086c4 <sub_1_j3+0x3d4>
8000869c:	00ee3233          	sltu	tp,t3,a4
800086a0:	409a5633          	sra	a2,s4,s1
800086a4:	008c8463          	beq	s9,s0,800086ac <sub_1_j3+0x3bc>
800086a8:	0ff0000f          	fence
800086ac:	0033c233          	xor	tp,t2,gp
800086b0:	00000013          	nop
800086b4:	006410b3          	sll	ra,s0,t1
800086b8:	023b4e63          	blt	s6,gp,800086f4 <sub_1_j3+0x404>
800086bc:	b35a3893          	sltiu	a7,s4,-1227
800086c0:	5dff4793          	xori	a5,t5,1503
800086c4:	40ed8c33          	sub	s8,s11,a4
800086c8:	b35a3893          	sltiu	a7,s4,-1227
800086cc:	01bef5b3          	and	a1,t4,s11
800086d0:	043b4463          	blt	s6,gp,80008718 <sub_1_j3+0x428>
800086d4:	00cea633          	slt	a2,t4,a2
800086d8:	00406333          	or	t1,zero,tp
800086dc:	0033c233          	xor	tp,t2,gp
800086e0:	0033c233          	xor	tp,t2,gp
800086e4:	cc92a0b7          	lui	ra,0xcc92a
800086e8:	0033c233          	xor	tp,t2,gp
800086ec:	006410b3          	sll	ra,s0,t1
800086f0:	01bef5b3          	and	a1,t4,s11
800086f4:	fb4ee413          	ori	s0,t4,-76
800086f8:	018d1a63          	bne	s10,s8,8000870c <sub_1_j3+0x41c>
800086fc:	0000100f          	fence.i
80008700:	00cea633          	slt	a2,t4,a2
80008704:	05a0e463          	bltu	ra,s10,8000874c <sub_1_j3+0x45c>
80008708:	006410b3          	sll	ra,s0,t1
8000870c:	fb4ee413          	ori	s0,t4,-76
80008710:	01a0e863          	bltu	ra,s10,80008720 <sub_1_j3+0x430>
80008714:	01c4dbb3          	srl	s7,s1,t3
80008718:	048c8463          	beq	s9,s0,80008760 <sub_1_j3+0x470>
8000871c:	01bef5b3          	and	a1,t4,s11
80008720:	038d1a63          	bne	s10,s8,80008754 <sub_1_j3+0x464>
80008724:	fb4ee413          	ori	s0,t4,-76
80008728:	1d860217          	auipc	tp,0x1d860
8000872c:	4cb37c13          	andi	s8,t1,1227
80008730:	00406333          	or	t1,zero,tp
80008734:	0ff0000f          	fence
80008738:	40ed8c33          	sub	s8,s11,a4
8000873c:	b35a3893          	sltiu	a7,s4,-1227
80008740:	03a0ec63          	bltu	ra,s10,80008778 <sub_1_j3+0x488>
80008744:	b35a3893          	sltiu	a7,s4,-1227
80008748:	015f1093          	slli	ra,t5,0x15
8000874c:	4cb37c13          	andi	s8,t1,1227
80008750:	015ad993          	srli	s3,s5,0x15
80008754:	03457463          	bgeu	a0,s4,8000877c <sub_1_j3+0x48c>
80008758:	00cea633          	slt	a2,t4,a2
8000875c:	00ee3233          	sltu	tp,t3,a4
80008760:	40ed8c33          	sub	s8,s11,a4
80008764:	b35a3893          	sltiu	a7,s4,-1227
80008768:	00000013          	nop
8000876c:	015ad993          	srli	s3,s5,0x15
80008770:	20648893          	addi	a7,s1,518
80008774:	0000100f          	fence.i
80008778:	006410b3          	sll	ra,s0,t1
8000877c:	5dff4793          	xori	a5,t5,1503
80008780:	008c8263          	beq	s9,s0,80008784 <sub_1_j3+0x494>
80008784:	0ff0000f          	fence
80008788:	cc92a0b7          	lui	ra,0xcc92a
8000878c:	4111dd93          	srai	s11,gp,0x11
80008790:	006410b3          	sll	ra,s0,t1
80008794:	cc92a0b7          	lui	ra,0xcc92a
80008798:	00406333          	or	t1,zero,tp
8000879c:	cc92a0b7          	lui	ra,0xcc92a
800087a0:	0000100f          	fence.i
800087a4:	fb4ee413          	ori	s0,t4,-76
800087a8:	409a5633          	sra	a2,s4,s1
800087ac:	03a0ec63          	bltu	ra,s10,800087e4 <sub_1_j3+0x4f4>
800087b0:	0000100f          	fence.i
800087b4:	01bef5b3          	and	a1,t4,s11
800087b8:	018d1263          	bne	s10,s8,800087bc <sub_1_j3+0x4cc>
800087bc:	4cb37c13          	andi	s8,t1,1227
800087c0:	015f1093          	slli	ra,t5,0x15
800087c4:	01bef5b3          	and	a1,t4,s11
800087c8:	409a5633          	sra	a2,s4,s1
800087cc:	003b4a63          	blt	s6,gp,800087e0 <sub_1_j3+0x4f0>
800087d0:	01457263          	bgeu	a0,s4,800087d4 <sub_1_j3+0x4e4>
800087d4:	015f1093          	slli	ra,t5,0x15
800087d8:	058d1263          	bne	s10,s8,8000881c <sub_1_j4+0x8>
800087dc:	00000013          	nop
800087e0:	01bef5b3          	and	a1,t4,s11
800087e4:	068c8263          	beq	s9,s0,80008848 <sub_1_j4+0x34>
800087e8:	20648893          	addi	a7,s1,518
800087ec:	fb4ee413          	ori	s0,t4,-76
800087f0:	40ed8c33          	sub	s8,s11,a4
800087f4:	00ee3233          	sltu	tp,t3,a4
800087f8:	fb4ee413          	ori	s0,t4,-76
800087fc:	cc92a0b7          	lui	ra,0xcc92a
80008800:	fb4ee413          	ori	s0,t4,-76
80008804:	01c4dbb3          	srl	s7,s1,t3
80008808:	4111dd93          	srai	s11,gp,0x11
8000880c:	fb4ee413          	ori	s0,t4,-76
80008810:	4111dd93          	srai	s11,gp,0x11

80008814 <sub_1_j4>:
80008814:	da4fbfef          	jal	t6,80003db8 <sub_4>
80008818:	bce1a693          	slti	a3,gp,-1074
8000881c:	4111dd93          	srai	s11,gp,0x11
80008820:	4111dd93          	srai	s11,gp,0x11
80008824:	4cb37c13          	andi	s8,t1,1227
80008828:	00cea633          	slt	a2,t4,a2
8000882c:	05457863          	bgeu	a0,s4,8000887c <sub_1_j4+0x68>
80008830:	409a5633          	sra	a2,s4,s1
80008834:	4cb37c13          	andi	s8,t1,1227
80008838:	003b4a63          	blt	s6,gp,8000884c <sub_1_j4+0x38>
8000883c:	015f1093          	slli	ra,t5,0x15
80008840:	01bef5b3          	and	a1,t4,s11
80008844:	006410b3          	sll	ra,s0,t1
80008848:	0ff0000f          	fence
8000884c:	409a5633          	sra	a2,s4,s1
80008850:	00ee3233          	sltu	tp,t3,a4
80008854:	bce1a693          	slti	a3,gp,-1074
80008858:	bce1a693          	slti	a3,gp,-1074
8000885c:	00406333          	or	t1,zero,tp
80008860:	01bef5b3          	and	a1,t4,s11
80008864:	00cea633          	slt	a2,t4,a2
80008868:	01bef5b3          	and	a1,t4,s11
8000886c:	008c8a63          	beq	s9,s0,80008880 <sub_1_j4+0x6c>
80008870:	01c4dbb3          	srl	s7,s1,t3
80008874:	023b4c63          	blt	s6,gp,800088ac <sub_1_j4+0x98>
80008878:	01a0ea63          	bltu	ra,s10,8000888c <sub_1_j4+0x78>
8000887c:	b35a3893          	sltiu	a7,s4,-1227
80008880:	409a5633          	sra	a2,s4,s1
80008884:	409a5633          	sra	a2,s4,s1
80008888:	0ff0000f          	fence
8000888c:	000706b3          	add	a3,a4,zero
80008890:	01c4dbb3          	srl	s7,s1,t3
80008894:	00cea633          	slt	a2,t4,a2
80008898:	006410b3          	sll	ra,s0,t1
8000889c:	00cea633          	slt	a2,t4,a2
800088a0:	409a5633          	sra	a2,s4,s1
800088a4:	01c4dbb3          	srl	s7,s1,t3
800088a8:	00000013          	nop
800088ac:	000706b3          	add	a3,a4,zero
800088b0:	0000100f          	fence.i
800088b4:	015ad993          	srli	s3,s5,0x15
800088b8:	015ad993          	srli	s3,s5,0x15
800088bc:	008c8a63          	beq	s9,s0,800088d0 <sub_1_j4+0xbc>
800088c0:	03a0ee63          	bltu	ra,s10,800088fc <sub_1_j4+0xe8>
800088c4:	409a5633          	sra	a2,s4,s1
800088c8:	01c4dbb3          	srl	s7,s1,t3
800088cc:	0ff0000f          	fence
800088d0:	01c4dbb3          	srl	s7,s1,t3
800088d4:	03a0e463          	bltu	ra,s10,800088fc <sub_1_j4+0xe8>
800088d8:	0000100f          	fence.i
800088dc:	003b4263          	blt	s6,gp,800088e0 <sub_1_j4+0xcc>
800088e0:	cc92a0b7          	lui	ra,0xcc92a
800088e4:	cc92a0b7          	lui	ra,0xcc92a
800088e8:	006410b3          	sll	ra,s0,t1
800088ec:	015ad993          	srli	s3,s5,0x15
800088f0:	015ad993          	srli	s3,s5,0x15
800088f4:	409a5633          	sra	a2,s4,s1
800088f8:	20648893          	addi	a7,s1,518
800088fc:	0000100f          	fence.i
80008900:	00000013          	nop
80008904:	01d2d863          	bge	t0,t4,80008914 <sub_1_j4+0x100>
80008908:	1d860217          	auipc	tp,0x1d860
8000890c:	1d860217          	auipc	tp,0x1d860
80008910:	015f1093          	slli	ra,t5,0x15
80008914:	cc92a0b7          	lui	ra,0xcc92a
80008918:	01bef5b3          	and	a1,t4,s11
8000891c:	043b4863          	blt	s6,gp,8000896c <sub_1_j4+0x158>
80008920:	015f1093          	slli	ra,t5,0x15
80008924:	0ff0000f          	fence
80008928:	006410b3          	sll	ra,s0,t1
8000892c:	0000100f          	fence.i
80008930:	1d860217          	auipc	tp,0x1d860
80008934:	cc92a0b7          	lui	ra,0xcc92a
80008938:	40ed8c33          	sub	s8,s11,a4
8000893c:	003b4c63          	blt	s6,gp,80008954 <sub_1_j4+0x140>
80008940:	015ad993          	srli	s3,s5,0x15
80008944:	5dff4793          	xori	a5,t5,1503
80008948:	bce1a693          	slti	a3,gp,-1074
8000894c:	1d860217          	auipc	tp,0x1d860
80008950:	b35a3893          	sltiu	a7,s4,-1227
80008954:	00cea633          	slt	a2,t4,a2
80008958:	409a5633          	sra	a2,s4,s1
8000895c:	03d2da63          	bge	t0,t4,80008990 <sub_1_j4+0x17c>
80008960:	015f1093          	slli	ra,t5,0x15
80008964:	01457863          	bgeu	a0,s4,80008974 <sub_1_j4+0x160>
80008968:	058d1463          	bne	s10,s8,800089b0 <sub_1_j4+0x19c>
8000896c:	00000013          	nop
80008970:	00000013          	nop
80008974:	20648893          	addi	a7,s1,518
80008978:	00000013          	nop
8000897c:	fb4ee413          	ori	s0,t4,-76
80008980:	0ff0000f          	fence
80008984:	015f1093          	slli	ra,t5,0x15
80008988:	01d2d463          	bge	t0,t4,80008990 <sub_1_j4+0x17c>
8000898c:	20648893          	addi	a7,s1,518
80008990:	01bef5b3          	and	a1,t4,s11
80008994:	b35a3893          	sltiu	a7,s4,-1227
80008998:	05a0e463          	bltu	ra,s10,800089e0 <sub_1_j4+0x1cc>
8000899c:	038d1863          	bne	s10,s8,800089cc <sub_1_j4+0x1b8>
800089a0:	01bef5b3          	and	a1,t4,s11
800089a4:	5dff4793          	xori	a5,t5,1503
800089a8:	01bef5b3          	and	a1,t4,s11
800089ac:	01457463          	bgeu	a0,s4,800089b4 <sub_1_j4+0x1a0>
800089b0:	4111dd93          	srai	s11,gp,0x11
800089b4:	03457063          	bgeu	a0,s4,800089d4 <sub_1_j4+0x1c0>
800089b8:	018d1263          	bne	s10,s8,800089bc <sub_1_j4+0x1a8>
800089bc:	00cea633          	slt	a2,t4,a2
800089c0:	023b4e63          	blt	s6,gp,800089fc <sub_1_j4+0x1e8>
800089c4:	b35a3893          	sltiu	a7,s4,-1227
800089c8:	01c4dbb3          	srl	s7,s1,t3
800089cc:	01bef5b3          	and	a1,t4,s11
800089d0:	cc92a0b7          	lui	ra,0xcc92a
800089d4:	409a5633          	sra	a2,s4,s1
800089d8:	5dff4793          	xori	a5,t5,1503
800089dc:	03457a63          	bgeu	a0,s4,80008a10 <sub_1_j4+0x1fc>
800089e0:	015f1093          	slli	ra,t5,0x15
800089e4:	01d2dc63          	bge	t0,t4,800089fc <sub_1_j4+0x1e8>
800089e8:	bce1a693          	slti	a3,gp,-1074
800089ec:	00000013          	nop
800089f0:	5dff4793          	xori	a5,t5,1503
800089f4:	000706b3          	add	a3,a4,zero
800089f8:	058d1463          	bne	s10,s8,80008a40 <sub_1_j4+0x22c>
800089fc:	01bef5b3          	and	a1,t4,s11
80008a00:	028c8663          	beq	s9,s0,80008a2c <sub_1_j4+0x218>
80008a04:	0033c233          	xor	tp,t2,gp
80008a08:	5dff4793          	xori	a5,t5,1503
80008a0c:	006410b3          	sll	ra,s0,t1
80008a10:	008c8463          	beq	s9,s0,80008a18 <sub_1_j4+0x204>
80008a14:	1d860217          	auipc	tp,0x1d860
80008a18:	1d860217          	auipc	tp,0x1d860
80008a1c:	b35a3893          	sltiu	a7,s4,-1227
80008a20:	03a0e463          	bltu	ra,s10,80008a48 <sub_1_j4+0x234>
80008a24:	409a5633          	sra	a2,s4,s1
80008a28:	409a5633          	sra	a2,s4,s1
80008a2c:	05457863          	bgeu	a0,s4,80008a7c <sub_1_j4+0x268>
80008a30:	028c8c63          	beq	s9,s0,80008a68 <sub_1_j4+0x254>
80008a34:	006410b3          	sll	ra,s0,t1
80008a38:	bce1a693          	slti	a3,gp,-1074
80008a3c:	cc92a0b7          	lui	ra,0xcc92a
80008a40:	015ad993          	srli	s3,s5,0x15
80008a44:	0033c233          	xor	tp,t2,gp
80008a48:	003b4863          	blt	s6,gp,80008a58 <sub_1_j4+0x244>
80008a4c:	000706b3          	add	a3,a4,zero
80008a50:	015ad993          	srli	s3,s5,0x15
80008a54:	b35a3893          	sltiu	a7,s4,-1227
80008a58:	00cea633          	slt	a2,t4,a2
80008a5c:	00ee3233          	sltu	tp,t3,a4
80008a60:	006410b3          	sll	ra,s0,t1
80008a64:	cc92a0b7          	lui	ra,0xcc92a
80008a68:	0000100f          	fence.i
80008a6c:	00000013          	nop
80008a70:	0033c233          	xor	tp,t2,gp
80008a74:	00ee3233          	sltu	tp,t3,a4
80008a78:	01bef5b3          	and	a1,t4,s11
80008a7c:	008c8a63          	beq	s9,s0,80008a90 <sub_1_j4+0x27c>
80008a80:	409a5633          	sra	a2,s4,s1
80008a84:	cc92a0b7          	lui	ra,0xcc92a
80008a88:	03d2da63          	bge	t0,t4,80008abc <sub_1_j4+0x2a8>
80008a8c:	03457663          	bgeu	a0,s4,80008ab8 <sub_1_j4+0x2a4>
80008a90:	409a5633          	sra	a2,s4,s1
80008a94:	006410b3          	sll	ra,s0,t1
80008a98:	0ff0000f          	fence
80008a9c:	05a0e463          	bltu	ra,s10,80008ae4 <sub_1_j4+0x2d0>
80008aa0:	20648893          	addi	a7,s1,518
80008aa4:	00406333          	or	t1,zero,tp
80008aa8:	fb4ee413          	ori	s0,t4,-76
80008aac:	0033c233          	xor	tp,t2,gp
80008ab0:	0000100f          	fence.i
80008ab4:	4111dd93          	srai	s11,gp,0x11
80008ab8:	00ee3233          	sltu	tp,t3,a4
80008abc:	4111dd93          	srai	s11,gp,0x11
80008ac0:	003b4a63          	blt	s6,gp,80008ad4 <sub_1_j4+0x2c0>
80008ac4:	0ff0000f          	fence
80008ac8:	4cb37c13          	andi	s8,t1,1227
80008acc:	40ed8c33          	sub	s8,s11,a4
80008ad0:	00000013          	nop
80008ad4:	fb4ee413          	ori	s0,t4,-76
80008ad8:	015f1093          	slli	ra,t5,0x15
80008adc:	00ee3233          	sltu	tp,t3,a4
80008ae0:	058d1463          	bne	s10,s8,80008b28 <sub_1_j4+0x314>
80008ae4:	01d2d263          	bge	t0,t4,80008ae8 <sub_1_j4+0x2d4>
80008ae8:	40ed8c33          	sub	s8,s11,a4
80008aec:	028c8e63          	beq	s9,s0,80008b28 <sub_1_j4+0x314>
80008af0:	01bef5b3          	and	a1,t4,s11
80008af4:	00cea633          	slt	a2,t4,a2
80008af8:	4111dd93          	srai	s11,gp,0x11
80008afc:	01a0ec63          	bltu	ra,s10,80008b14 <sub_1_j4+0x300>
80008b00:	008c8463          	beq	s9,s0,80008b08 <sub_1_j4+0x2f4>
80008b04:	0033c233          	xor	tp,t2,gp
80008b08:	018d1a63          	bne	s10,s8,80008b1c <sub_1_j4+0x308>
80008b0c:	cc92a0b7          	lui	ra,0xcc92a
80008b10:	4111dd93          	srai	s11,gp,0x11
80008b14:	01bef5b3          	and	a1,t4,s11
80008b18:	015ad993          	srli	s3,s5,0x15
80008b1c:	00ee3233          	sltu	tp,t3,a4
80008b20:	000706b3          	add	a3,a4,zero
80008b24:	00cea633          	slt	a2,t4,a2
80008b28:	015ad993          	srli	s3,s5,0x15
80008b2c:	01c4dbb3          	srl	s7,s1,t3
80008b30:	00cea633          	slt	a2,t4,a2
80008b34:	409a5633          	sra	a2,s4,s1
80008b38:	409a5633          	sra	a2,s4,s1
80008b3c:	008c8863          	beq	s9,s0,80008b4c <sub_1_j4+0x338>
80008b40:	00cea633          	slt	a2,t4,a2
80008b44:	4111dd93          	srai	s11,gp,0x11
80008b48:	00cea633          	slt	a2,t4,a2
80008b4c:	40ed8c33          	sub	s8,s11,a4
80008b50:	00406333          	or	t1,zero,tp
80008b54:	03a0ec63          	bltu	ra,s10,80008b8c <sub_1_j4+0x378>
80008b58:	b35a3893          	sltiu	a7,s4,-1227
80008b5c:	003b4a63          	blt	s6,gp,80008b70 <sub_1_j4+0x35c>
80008b60:	015f1093          	slli	ra,t5,0x15
80008b64:	0000100f          	fence.i
80008b68:	01a0ec63          	bltu	ra,s10,80008b80 <sub_1_j4+0x36c>
80008b6c:	0000100f          	fence.i
80008b70:	03a0ee63          	bltu	ra,s10,80008bac <sub_1_j4+0x398>
80008b74:	01d2da63          	bge	t0,t4,80008b88 <sub_1_j4+0x374>
80008b78:	01c4dbb3          	srl	s7,s1,t3
80008b7c:	00406333          	or	t1,zero,tp
80008b80:	01a0e263          	bltu	ra,s10,80008b84 <sub_1_j4+0x370>
80008b84:	0000100f          	fence.i
80008b88:	05d2d863          	bge	t0,t4,80008bd8 <sub_1_j4+0x3c4>
80008b8c:	000706b3          	add	a3,a4,zero
80008b90:	4111dd93          	srai	s11,gp,0x11
80008b94:	00406333          	or	t1,zero,tp
80008b98:	409a5633          	sra	a2,s4,s1
80008b9c:	5dff4793          	xori	a5,t5,1503
80008ba0:	0033c233          	xor	tp,t2,gp
80008ba4:	03457863          	bgeu	a0,s4,80008bd4 <sub_1_j4+0x3c0>
80008ba8:	028c8063          	beq	s9,s0,80008bc8 <sub_1_j4+0x3b4>
80008bac:	0ff0000f          	fence
80008bb0:	fb4ee413          	ori	s0,t4,-76
80008bb4:	015f1093          	slli	ra,t5,0x15
80008bb8:	409a5633          	sra	a2,s4,s1
80008bbc:	b35a3893          	sltiu	a7,s4,-1227
80008bc0:	048c8463          	beq	s9,s0,80008c08 <sub_1_j4+0x3f4>
80008bc4:	018d1263          	bne	s10,s8,80008bc8 <sub_1_j4+0x3b4>
80008bc8:	00ee3233          	sltu	tp,t3,a4
80008bcc:	00000013          	nop
80008bd0:	01bef5b3          	and	a1,t4,s11
80008bd4:	01bef5b3          	and	a1,t4,s11
80008bd8:	fb4ee413          	ori	s0,t4,-76
80008bdc:	40ed8c33          	sub	s8,s11,a4
80008be0:	038d1a63          	bne	s10,s8,80008c14 <sub_1_j4+0x400>
80008be4:	01a0ec63          	bltu	ra,s10,80008bfc <sub_1_j4+0x3e8>
80008be8:	015ad993          	srli	s3,s5,0x15
80008bec:	01c4dbb3          	srl	s7,s1,t3
80008bf0:	409a5633          	sra	a2,s4,s1
80008bf4:	5dff4793          	xori	a5,t5,1503
80008bf8:	00000013          	nop
80008bfc:	cc92a0b7          	lui	ra,0xcc92a
80008c00:	00000013          	nop
80008c04:	b35a3893          	sltiu	a7,s4,-1227
80008c08:	00406333          	or	t1,zero,tp
80008c0c:	00ee3233          	sltu	tp,t3,a4
80008c10:	40ed8c33          	sub	s8,s11,a4
80008c14:	01d2d263          	bge	t0,t4,80008c18 <sub_1_j4+0x404>
80008c18:	01bef5b3          	and	a1,t4,s11
80008c1c:	5dff4793          	xori	a5,t5,1503
80008c20:	006410b3          	sll	ra,s0,t1
80008c24:	409a5633          	sra	a2,s4,s1
80008c28:	01d2d463          	bge	t0,t4,80008c30 <sub_1_j4+0x41c>
80008c2c:	20648893          	addi	a7,s1,518
80008c30:	00000013          	nop
80008c34:	b35a3893          	sltiu	a7,s4,-1227
80008c38:	bce1a693          	slti	a3,gp,-1074
80008c3c:	01457a63          	bgeu	a0,s4,80008c50 <sub_1_j4+0x43c>
80008c40:	03457a63          	bgeu	a0,s4,80008c74 <sub_1_j4+0x460>
80008c44:	018d1a63          	bne	s10,s8,80008c58 <sub_1_j4+0x444>
80008c48:	20648893          	addi	a7,s1,518
80008c4c:	20648893          	addi	a7,s1,518
80008c50:	000706b3          	add	a3,a4,zero
80008c54:	0000100f          	fence.i
80008c58:	bce1a693          	slti	a3,gp,-1074
80008c5c:	006410b3          	sll	ra,s0,t1
80008c60:	4cb37c13          	andi	s8,t1,1227
80008c64:	b35a3893          	sltiu	a7,s4,-1227
80008c68:	fb4ee413          	ori	s0,t4,-76
80008c6c:	0000100f          	fence.i
80008c70:	00406333          	or	t1,zero,tp
80008c74:	03d2de63          	bge	t0,t4,80008cb0 <sub_1_j4+0x49c>
80008c78:	bce1a693          	slti	a3,gp,-1074
80008c7c:	fb4ee413          	ori	s0,t4,-76
80008c80:	cc92a0b7          	lui	ra,0xcc92a
80008c84:	028c8463          	beq	s9,s0,80008cac <sub_1_j4+0x498>
80008c88:	05a0e863          	bltu	ra,s10,80008cd8 <sub_1_j4+0x4c4>
80008c8c:	cc92a0b7          	lui	ra,0xcc92a
80008c90:	01c4dbb3          	srl	s7,s1,t3
80008c94:	01c4dbb3          	srl	s7,s1,t3
80008c98:	fb4ee413          	ori	s0,t4,-76
80008c9c:	043b4463          	blt	s6,gp,80008ce4 <sub_1_j4+0x4d0>
80008ca0:	03457a63          	bgeu	a0,s4,80008cd4 <sub_1_j4+0x4c0>
80008ca4:	b35a3893          	sltiu	a7,s4,-1227
80008ca8:	01c4dbb3          	srl	s7,s1,t3
80008cac:	20648893          	addi	a7,s1,518
80008cb0:	b35a3893          	sltiu	a7,s4,-1227
80008cb4:	00000013          	nop
80008cb8:	fb4ee413          	ori	s0,t4,-76
80008cbc:	01a0e863          	bltu	ra,s10,80008ccc <sub_1_j4+0x4b8>
80008cc0:	00ee3233          	sltu	tp,t3,a4
80008cc4:	4111dd93          	srai	s11,gp,0x11
80008cc8:	fb4ee413          	ori	s0,t4,-76
80008ccc:	5dff4793          	xori	a5,t5,1503
80008cd0:	4cb37c13          	andi	s8,t1,1227
80008cd4:	006410b3          	sll	ra,s0,t1
80008cd8:	003b4c63          	blt	s6,gp,80008cf0 <sub_1_j4+0x4dc>
80008cdc:	00000013          	nop
80008ce0:	00ee3233          	sltu	tp,t3,a4
80008ce4:	015ad993          	srli	s3,s5,0x15
80008ce8:	00ee3233          	sltu	tp,t3,a4
80008cec:	0ff0000f          	fence
80008cf0:	00cea633          	slt	a2,t4,a2
80008cf4:	5dff4793          	xori	a5,t5,1503
80008cf8:	20648893          	addi	a7,s1,518
80008cfc:	03a0e863          	bltu	ra,s10,80008d2c <sub_1_j4+0x518>
80008d00:	006410b3          	sll	ra,s0,t1
80008d04:	00406333          	or	t1,zero,tp
80008d08:	01bef5b3          	and	a1,t4,s11
80008d0c:	b35a3893          	sltiu	a7,s4,-1227
80008d10:	cc92a0b7          	lui	ra,0xcc92a
80008d14:	000706b3          	add	a3,a4,zero
80008d18:	0ff0000f          	fence
80008d1c:	0ff0000f          	fence
80008d20:	5dff4793          	xori	a5,t5,1503
80008d24:	bce1a693          	slti	a3,gp,-1074
80008d28:	01457c63          	bgeu	a0,s4,80008d40 <sub_1_j4+0x52c>
80008d2c:	1d860217          	auipc	tp,0x1d860
80008d30:	20648893          	addi	a7,s1,518
80008d34:	00ee3233          	sltu	tp,t3,a4
80008d38:	05a0e463          	bltu	ra,s10,80008d80 <sub_1_j4+0x56c>
80008d3c:	01c4dbb3          	srl	s7,s1,t3
80008d40:	028c8c63          	beq	s9,s0,80008d78 <sub_1_j4+0x564>
80008d44:	fb4ee413          	ori	s0,t4,-76
80008d48:	4111dd93          	srai	s11,gp,0x11
80008d4c:	40ed8c33          	sub	s8,s11,a4
80008d50:	01a0ea63          	bltu	ra,s10,80008d64 <sub_1_j4+0x550>
80008d54:	4cb37c13          	andi	s8,t1,1227
80008d58:	4cb37c13          	andi	s8,t1,1227
80008d5c:	05a0e463          	bltu	ra,s10,80008da4 <sub_1_j4+0x590>
80008d60:	01a0e263          	bltu	ra,s10,80008d64 <sub_1_j4+0x550>
80008d64:	01bef5b3          	and	a1,t4,s11
80008d68:	03a0ec63          	bltu	ra,s10,80008da0 <sub_1_j4+0x58c>
80008d6c:	01c4dbb3          	srl	s7,s1,t3
80008d70:	043b4863          	blt	s6,gp,80008dc0 <sub_1_j4+0x5ac>
80008d74:	00cea633          	slt	a2,t4,a2
80008d78:	015f1093          	slli	ra,t5,0x15
80008d7c:	015ad993          	srli	s3,s5,0x15
80008d80:	00ee3233          	sltu	tp,t3,a4
80008d84:	bce1a693          	slti	a3,gp,-1074
80008d88:	5dff4793          	xori	a5,t5,1503
80008d8c:	03d2d663          	bge	t0,t4,80008db8 <sub_1_j4+0x5a4>
80008d90:	00cea633          	slt	a2,t4,a2
80008d94:	003b4263          	blt	s6,gp,80008d98 <sub_1_j4+0x584>
80008d98:	015f1093          	slli	ra,t5,0x15
80008d9c:	4111dd93          	srai	s11,gp,0x11
80008da0:	0ff0000f          	fence
80008da4:	03457063          	bgeu	a0,s4,80008dc4 <sub_1_j4+0x5b0>
80008da8:	01457a63          	bgeu	a0,s4,80008dbc <sub_1_j4+0x5a8>
80008dac:	00cea633          	slt	a2,t4,a2
80008db0:	b35a3893          	sltiu	a7,s4,-1227
80008db4:	015f1093          	slli	ra,t5,0x15
80008db8:	028c8e63          	beq	s9,s0,80008df4 <sub_1_j4+0x5e0>
80008dbc:	015ad993          	srli	s3,s5,0x15
80008dc0:	fb4ee413          	ori	s0,t4,-76
80008dc4:	1d860217          	auipc	tp,0x1d860
80008dc8:	015ad993          	srli	s3,s5,0x15
80008dcc:	cc92a0b7          	lui	ra,0xcc92a
80008dd0:	01a0ec63          	bltu	ra,s10,80008de8 <sub_1_j4+0x5d4>
80008dd4:	000706b3          	add	a3,a4,zero
80008dd8:	00ee3233          	sltu	tp,t3,a4
80008ddc:	fb4ee413          	ori	s0,t4,-76
80008de0:	0033c233          	xor	tp,t2,gp
80008de4:	fb4ee413          	ori	s0,t4,-76
80008de8:	01bef5b3          	and	a1,t4,s11
80008dec:	1d860217          	auipc	tp,0x1d860
80008df0:	00406333          	or	t1,zero,tp
80008df4:	00cea633          	slt	a2,t4,a2
80008df8:	00406333          	or	t1,zero,tp
80008dfc:	00cea633          	slt	a2,t4,a2
80008e00:	003b4463          	blt	s6,gp,80008e08 <sub_1_j4+0x5f4>
80008e04:	20648893          	addi	a7,s1,518
80008e08:	4111dd93          	srai	s11,gp,0x11
80008e0c:	00000013          	nop
80008e10:	015f1093          	slli	ra,t5,0x15
80008e14:	003b4a63          	blt	s6,gp,80008e28 <sub_1_j4+0x614>
80008e18:	01a0e863          	bltu	ra,s10,80008e28 <sub_1_j4+0x614>
80008e1c:	40ed8c33          	sub	s8,s11,a4
80008e20:	00cea633          	slt	a2,t4,a2
80008e24:	003b4863          	blt	s6,gp,80008e34 <sub_1_j4+0x620>
80008e28:	0ff0000f          	fence
80008e2c:	01457463          	bgeu	a0,s4,80008e34 <sub_1_j4+0x620>
80008e30:	4111dd93          	srai	s11,gp,0x11
80008e34:	0033c233          	xor	tp,t2,gp
80008e38:	015f1093          	slli	ra,t5,0x15
80008e3c:	00406333          	or	t1,zero,tp
80008e40:	409a5633          	sra	a2,s4,s1
80008e44:	006410b3          	sll	ra,s0,t1
80008e48:	4cb37c13          	andi	s8,t1,1227
80008e4c:	01c4dbb3          	srl	s7,s1,t3
80008e50:	006410b3          	sll	ra,s0,t1
80008e54:	015ad993          	srli	s3,s5,0x15
80008e58:	05a0e463          	bltu	ra,s10,80008ea0 <sub_1_j4+0x68c>
80008e5c:	05457463          	bgeu	a0,s4,80008ea4 <sub_1_j4+0x690>
80008e60:	bce1a693          	slti	a3,gp,-1074
80008e64:	008c8c63          	beq	s9,s0,80008e7c <sub_1_j4+0x668>
80008e68:	05d2d463          	bge	t0,t4,80008eb0 <sub_1_j4+0x69c>
80008e6c:	4111dd93          	srai	s11,gp,0x11
80008e70:	00cea633          	slt	a2,t4,a2
80008e74:	00cea633          	slt	a2,t4,a2
80008e78:	000706b3          	add	a3,a4,zero
80008e7c:	01457263          	bgeu	a0,s4,80008e80 <sub_1_j4+0x66c>
80008e80:	4cb37c13          	andi	s8,t1,1227
80008e84:	00ee3233          	sltu	tp,t3,a4
80008e88:	01bef5b3          	and	a1,t4,s11
80008e8c:	023b4663          	blt	s6,gp,80008eb8 <sub_1_j4+0x6a4>
80008e90:	409a5633          	sra	a2,s4,s1
80008e94:	00406333          	or	t1,zero,tp
80008e98:	20648893          	addi	a7,s1,518
80008e9c:	b35a3893          	sltiu	a7,s4,-1227
80008ea0:	000706b3          	add	a3,a4,zero
80008ea4:	fb4ee413          	ori	s0,t4,-76
80008ea8:	00cea633          	slt	a2,t4,a2
80008eac:	03d2de63          	bge	t0,t4,80008ee8 <sub_1_j4+0x6d4>
80008eb0:	038d1c63          	bne	s10,s8,80008ee8 <sub_1_j4+0x6d4>
80008eb4:	038d1a63          	bne	s10,s8,80008ee8 <sub_1_j4+0x6d4>
80008eb8:	40ed8c33          	sub	s8,s11,a4
80008ebc:	000706b3          	add	a3,a4,zero
80008ec0:	0ff0000f          	fence
80008ec4:	008c8a63          	beq	s9,s0,80008ed8 <sub_1_j4+0x6c4>
80008ec8:	015ad993          	srli	s3,s5,0x15
80008ecc:	5dff4793          	xori	a5,t5,1503
80008ed0:	006410b3          	sll	ra,s0,t1
80008ed4:	4111dd93          	srai	s11,gp,0x11
80008ed8:	0ff0000f          	fence
80008edc:	40ed8c33          	sub	s8,s11,a4
80008ee0:	cc92a0b7          	lui	ra,0xcc92a
80008ee4:	cc92a0b7          	lui	ra,0xcc92a
80008ee8:	015ad993          	srli	s3,s5,0x15
80008eec:	01a0ea63          	bltu	ra,s10,80008f00 <sub_1_j4+0x6ec>
80008ef0:	006410b3          	sll	ra,s0,t1
80008ef4:	20648893          	addi	a7,s1,518
80008ef8:	0ff0000f          	fence
80008efc:	00cea633          	slt	a2,t4,a2
80008f00:	023b4c63          	blt	s6,gp,80008f38 <sub_1_j4+0x724>
80008f04:	00ee3233          	sltu	tp,t3,a4
80008f08:	fb4ee413          	ori	s0,t4,-76
80008f0c:	01457463          	bgeu	a0,s4,80008f14 <sub_1_j4+0x700>
80008f10:	048c8863          	beq	s9,s0,80008f60 <sub_1_j4+0x74c>
80008f14:	00cea633          	slt	a2,t4,a2
80008f18:	00cea633          	slt	a2,t4,a2
80008f1c:	cc92a0b7          	lui	ra,0xcc92a
80008f20:	00406333          	or	t1,zero,tp
80008f24:	008c8263          	beq	s9,s0,80008f28 <sub_1_j4+0x714>
80008f28:	018d1a63          	bne	s10,s8,80008f3c <sub_1_j4+0x728>
80008f2c:	01a0ea63          	bltu	ra,s10,80008f40 <sub_1_j4+0x72c>
80008f30:	00406333          	or	t1,zero,tp
80008f34:	00000013          	nop
80008f38:	0ff0000f          	fence
80008f3c:	01bef5b3          	and	a1,t4,s11
80008f40:	4cb37c13          	andi	s8,t1,1227
80008f44:	20648893          	addi	a7,s1,518
80008f48:	000706b3          	add	a3,a4,zero
80008f4c:	00ee3233          	sltu	tp,t3,a4
80008f50:	20648893          	addi	a7,s1,518
80008f54:	fb4ee413          	ori	s0,t4,-76
80008f58:	cc92a0b7          	lui	ra,0xcc92a
80008f5c:	01c4dbb3          	srl	s7,s1,t3
80008f60:	00406333          	or	t1,zero,tp
80008f64:	00cea633          	slt	a2,t4,a2
80008f68:	01457863          	bgeu	a0,s4,80008f78 <sub_1_j4+0x764>
80008f6c:	0033c233          	xor	tp,t2,gp
80008f70:	015ad993          	srli	s3,s5,0x15
80008f74:	023b4a63          	blt	s6,gp,80008fa8 <sub_1_j4+0x794>
80008f78:	01bef5b3          	and	a1,t4,s11
80008f7c:	409a5633          	sra	a2,s4,s1
80008f80:	038d1e63          	bne	s10,s8,80008fbc <sub_1_j4+0x7a8>
80008f84:	01457a63          	bgeu	a0,s4,80008f98 <sub_1_j4+0x784>
80008f88:	20648893          	addi	a7,s1,518
80008f8c:	006410b3          	sll	ra,s0,t1
80008f90:	4111dd93          	srai	s11,gp,0x11
80008f94:	00406333          	or	t1,zero,tp
80008f98:	b35a3893          	sltiu	a7,s4,-1227
80008f9c:	00000013          	nop
80008fa0:	4cb37c13          	andi	s8,t1,1227
80008fa4:	015ad993          	srli	s3,s5,0x15
80008fa8:	015ad993          	srli	s3,s5,0x15
80008fac:	006410b3          	sll	ra,s0,t1
80008fb0:	5dff4793          	xori	a5,t5,1503
80008fb4:	043b4863          	blt	s6,gp,80009004 <sub_1_j4+0x7f0>
80008fb8:	1d860217          	auipc	tp,0x1d860
80008fbc:	015ad993          	srli	s3,s5,0x15
80008fc0:	01c4dbb3          	srl	s7,s1,t3
80008fc4:	5dff4793          	xori	a5,t5,1503
80008fc8:	000706b3          	add	a3,a4,zero
80008fcc:	00000013          	nop
80008fd0:	038d1863          	bne	s10,s8,80009000 <sub_1_j4+0x7ec>
80008fd4:	015f1093          	slli	ra,t5,0x15
80008fd8:	4111dd93          	srai	s11,gp,0x11
80008fdc:	0033c233          	xor	tp,t2,gp
80008fe0:	4cb37c13          	andi	s8,t1,1227
80008fe4:	0033c233          	xor	tp,t2,gp
80008fe8:	028c8463          	beq	s9,s0,80009010 <sub_1_j4+0x7fc>
80008fec:	00000013          	nop
80008ff0:	00cea633          	slt	a2,t4,a2
80008ff4:	00000013          	nop
80008ff8:	4cb37c13          	andi	s8,t1,1227
80008ffc:	4cb37c13          	andi	s8,t1,1227
80009000:	4111dd93          	srai	s11,gp,0x11
80009004:	015ad993          	srli	s3,s5,0x15
80009008:	006410b3          	sll	ra,s0,t1
8000900c:	008c8c63          	beq	s9,s0,80009024 <sub_1_j4+0x810>
80009010:	b35a3893          	sltiu	a7,s4,-1227
80009014:	00ee3233          	sltu	tp,t3,a4
80009018:	01c4dbb3          	srl	s7,s1,t3
8000901c:	bce1a693          	slti	a3,gp,-1074
80009020:	fb4ee413          	ori	s0,t4,-76
80009024:	1d860217          	auipc	tp,0x1d860
80009028:	015ad993          	srli	s3,s5,0x15
8000902c:	00ee3233          	sltu	tp,t3,a4
80009030:	40ed8c33          	sub	s8,s11,a4
80009034:	01c4dbb3          	srl	s7,s1,t3
80009038:	409a5633          	sra	a2,s4,s1
8000903c:	409a5633          	sra	a2,s4,s1
80009040:	40ed8c33          	sub	s8,s11,a4
80009044:	bce1a693          	slti	a3,gp,-1074
80009048:	0000100f          	fence.i
8000904c:	bce1a693          	slti	a3,gp,-1074
80009050:	006410b3          	sll	ra,s0,t1
80009054:	4cb37c13          	andi	s8,t1,1227
80009058:	00406333          	or	t1,zero,tp
8000905c:	4111dd93          	srai	s11,gp,0x11
80009060:	b35a3893          	sltiu	a7,s4,-1227
80009064:	20648893          	addi	a7,s1,518
80009068:	0ff0000f          	fence
8000906c:	00406333          	or	t1,zero,tp
80009070:	03457063          	bgeu	a0,s4,80009090 <sub_1_j4+0x87c>
80009074:	cc92a0b7          	lui	ra,0xcc92a
80009078:	00406333          	or	t1,zero,tp
8000907c:	0000100f          	fence.i
80009080:	40ed8c33          	sub	s8,s11,a4
80009084:	01d2dc63          	bge	t0,t4,8000909c <sub_1_j4+0x888>
80009088:	01457263          	bgeu	a0,s4,8000908c <sub_1_j4+0x878>
8000908c:	4cb37c13          	andi	s8,t1,1227
80009090:	015ad993          	srli	s3,s5,0x15
80009094:	5dff4793          	xori	a5,t5,1503
80009098:	00cea633          	slt	a2,t4,a2
8000909c:	0000100f          	fence.i
800090a0:	018d1c63          	bne	s10,s8,800090b8 <sub_1_j4+0x8a4>
800090a4:	03457e63          	bgeu	a0,s4,800090e0 <sub_1_j4+0x8cc>
800090a8:	0000100f          	fence.i
800090ac:	20648893          	addi	a7,s1,518
800090b0:	409a5633          	sra	a2,s4,s1
800090b4:	20648893          	addi	a7,s1,518
800090b8:	40ed8c33          	sub	s8,s11,a4
800090bc:	015ad993          	srli	s3,s5,0x15
800090c0:	00406333          	or	t1,zero,tp
800090c4:	048c8463          	beq	s9,s0,8000910c <sub_1_j4+0x8f8>
800090c8:	01a0e263          	bltu	ra,s10,800090cc <sub_1_j4+0x8b8>
800090cc:	20648893          	addi	a7,s1,518
800090d0:	0033c233          	xor	tp,t2,gp
800090d4:	409a5633          	sra	a2,s4,s1
800090d8:	bce1a693          	slti	a3,gp,-1074
800090dc:	5dff4793          	xori	a5,t5,1503
800090e0:	003b4463          	blt	s6,gp,800090e8 <sub_1_j4+0x8d4>
800090e4:	01d2dc63          	bge	t0,t4,800090fc <sub_1_j4+0x8e8>
800090e8:	01a0ea63          	bltu	ra,s10,800090fc <sub_1_j4+0x8e8>
800090ec:	000706b3          	add	a3,a4,zero
800090f0:	cc92a0b7          	lui	ra,0xcc92a
800090f4:	015ad993          	srli	s3,s5,0x15
800090f8:	018d1463          	bne	s10,s8,80009100 <sub_1_j4+0x8ec>
800090fc:	409a5633          	sra	a2,s4,s1
80009100:	015ad993          	srli	s3,s5,0x15
80009104:	fb4ee413          	ori	s0,t4,-76
80009108:	01457863          	bgeu	a0,s4,80009118 <sub_1_j4+0x904>
8000910c:	40ed8c33          	sub	s8,s11,a4
80009110:	409a5633          	sra	a2,s4,s1
80009114:	008c8263          	beq	s9,s0,80009118 <sub_1_j4+0x904>
80009118:	00406333          	or	t1,zero,tp
8000911c:	20648893          	addi	a7,s1,518
80009120:	0033c233          	xor	tp,t2,gp
80009124:	00ee3233          	sltu	tp,t3,a4
80009128:	bce1a693          	slti	a3,gp,-1074
8000912c:	b35a3893          	sltiu	a7,s4,-1227
80009130:	bce1a693          	slti	a3,gp,-1074
80009134:	015f1093          	slli	ra,t5,0x15
80009138:	20648893          	addi	a7,s1,518
8000913c:	015ad993          	srli	s3,s5,0x15
80009140:	05d2d463          	bge	t0,t4,80009188 <sub_1_j4+0x974>
80009144:	00000013          	nop
80009148:	01c4dbb3          	srl	s7,s1,t3
8000914c:	015f1093          	slli	ra,t5,0x15
80009150:	4111dd93          	srai	s11,gp,0x11
80009154:	01457a63          	bgeu	a0,s4,80009168 <sub_1_j4+0x954>
80009158:	00cea633          	slt	a2,t4,a2
8000915c:	008c8a63          	beq	s9,s0,80009170 <sub_1_j4+0x95c>
80009160:	01bef5b3          	and	a1,t4,s11
80009164:	015f1093          	slli	ra,t5,0x15
80009168:	03d2d463          	bge	t0,t4,80009190 <sub_1_j4+0x97c>
8000916c:	40ed8c33          	sub	s8,s11,a4
80009170:	1d860217          	auipc	tp,0x1d860
80009174:	b35a3893          	sltiu	a7,s4,-1227
80009178:	20648893          	addi	a7,s1,518
8000917c:	01c4dbb3          	srl	s7,s1,t3
80009180:	01c4dbb3          	srl	s7,s1,t3
80009184:	1d860217          	auipc	tp,0x1d860
80009188:	0ff0000f          	fence
8000918c:	4111dd93          	srai	s11,gp,0x11
80009190:	03457a63          	bgeu	a0,s4,800091c4 <sub_1_j4+0x9b0>
80009194:	5dff4793          	xori	a5,t5,1503
80009198:	00ee3233          	sltu	tp,t3,a4
8000919c:	00cea633          	slt	a2,t4,a2
800091a0:	01c4dbb3          	srl	s7,s1,t3
800091a4:	000706b3          	add	a3,a4,zero
800091a8:	0033c233          	xor	tp,t2,gp
800091ac:	03a0e063          	bltu	ra,s10,800091cc <sub_1_j4+0x9b8>
800091b0:	b35a3893          	sltiu	a7,s4,-1227
800091b4:	00cea633          	slt	a2,t4,a2
800091b8:	5dff4793          	xori	a5,t5,1503
800091bc:	03d2d663          	bge	t0,t4,800091e8 <sub_1_j4+0x9d4>
800091c0:	03457a63          	bgeu	a0,s4,800091f4 <sub_1_j4+0x9e0>
800091c4:	006410b3          	sll	ra,s0,t1
800091c8:	40ed8c33          	sub	s8,s11,a4
800091cc:	00ee3233          	sltu	tp,t3,a4
800091d0:	015f1093          	slli	ra,t5,0x15
800091d4:	05457463          	bgeu	a0,s4,8000921c <sub_1_j4+0xa08>
800091d8:	20648893          	addi	a7,s1,518
800091dc:	00cea633          	slt	a2,t4,a2
800091e0:	058d1863          	bne	s10,s8,80009230 <sub_1_j4+0xa1c>
800091e4:	b35a3893          	sltiu	a7,s4,-1227
800091e8:	01c4dbb3          	srl	s7,s1,t3
800091ec:	0000100f          	fence.i
800091f0:	00cea633          	slt	a2,t4,a2
800091f4:	006410b3          	sll	ra,s0,t1
800091f8:	0000100f          	fence.i
800091fc:	4111dd93          	srai	s11,gp,0x11
80009200:	000706b3          	add	a3,a4,zero
80009204:	00000013          	nop
80009208:	015ad993          	srli	s3,s5,0x15
8000920c:	4cb37c13          	andi	s8,t1,1227
80009210:	5dff4793          	xori	a5,t5,1503
80009214:	00000013          	nop
80009218:	fb4ee413          	ori	s0,t4,-76
8000921c:	00ee3233          	sltu	tp,t3,a4
80009220:	0000100f          	fence.i
80009224:	00406333          	or	t1,zero,tp
80009228:	05a0e863          	bltu	ra,s10,80009278 <sub_1_j4+0xa64>
8000922c:	4111dd93          	srai	s11,gp,0x11
80009230:	018d1863          	bne	s10,s8,80009240 <sub_1_j4+0xa2c>
80009234:	4111dd93          	srai	s11,gp,0x11
80009238:	40ed8c33          	sub	s8,s11,a4
8000923c:	fb4ee413          	ori	s0,t4,-76
80009240:	0ff0000f          	fence
80009244:	cc92a0b7          	lui	ra,0xcc92a
80009248:	00ee3233          	sltu	tp,t3,a4
8000924c:	5dff4793          	xori	a5,t5,1503
80009250:	40ed8c33          	sub	s8,s11,a4
80009254:	20648893          	addi	a7,s1,518
80009258:	028c8e63          	beq	s9,s0,80009294 <sub_1_j4+0xa80>
8000925c:	01457263          	bgeu	a0,s4,80009260 <sub_1_j4+0xa4c>
80009260:	038d1863          	bne	s10,s8,80009290 <sub_1_j4+0xa7c>
80009264:	01457c63          	bgeu	a0,s4,8000927c <sub_1_j4+0xa68>
80009268:	01c4dbb3          	srl	s7,s1,t3
8000926c:	cc92a0b7          	lui	ra,0xcc92a
80009270:	b35a3893          	sltiu	a7,s4,-1227
80009274:	cc92a0b7          	lui	ra,0xcc92a
80009278:	01bef5b3          	and	a1,t4,s11
8000927c:	0033c233          	xor	tp,t2,gp
80009280:	01d2da63          	bge	t0,t4,80009294 <sub_1_j4+0xa80>
80009284:	01c4dbb3          	srl	s7,s1,t3
80009288:	03457c63          	bgeu	a0,s4,800092c0 <sub_1_j4+0xaac>
8000928c:	03457c63          	bgeu	a0,s4,800092c4 <sub_1_j4+0xab0>
80009290:	018d1a63          	bne	s10,s8,800092a4 <sub_1_j4+0xa90>
80009294:	409a5633          	sra	a2,s4,s1
80009298:	4cb37c13          	andi	s8,t1,1227
8000929c:	4111dd93          	srai	s11,gp,0x11
800092a0:	cc92a0b7          	lui	ra,0xcc92a
800092a4:	01d2da63          	bge	t0,t4,800092b8 <sub_1_j4+0xaa4>
800092a8:	40ed8c33          	sub	s8,s11,a4
800092ac:	b35a3893          	sltiu	a7,s4,-1227
800092b0:	fb4ee413          	ori	s0,t4,-76
800092b4:	01bef5b3          	and	a1,t4,s11
800092b8:	cc92a0b7          	lui	ra,0xcc92a
800092bc:	006410b3          	sll	ra,s0,t1
800092c0:	1d860217          	auipc	tp,0x1d860
800092c4:	000706b3          	add	a3,a4,zero
800092c8:	0033c233          	xor	tp,t2,gp
800092cc:	004e2f83          	lw	t6,4(t3)
800092d0:	01bef5b3          	and	a1,t4,s11
800092d4:	038e0e13          	addi	t3,t3,56
800092d8:	20648893          	addi	a7,s1,518
800092dc:	015f1093          	slli	ra,t5,0x15
800092e0:	000f8c13          	mv	s8,t6
800092e4:	000c0c67          	jalr	s8,s8

800092e8 <sub_2>:
800092e8:	018d1463          	bne	s10,s8,800092f0 <sub_2_stack_p>
800092ec:	4cb37c13          	andi	s8,t1,1227

800092f0 <sub_2_stack_p>:
800092f0:	fe4e0e13          	addi	t3,t3,-28
800092f4:	00000013          	nop
800092f8:	01bef5b3          	and	a1,t4,s11
800092fc:	01fe2223          	sw	t6,4(t3)
80009300:	bce1a693          	slti	a3,gp,-1074
80009304:	0ff0000f          	fence
80009308:	0000100f          	fence.i
8000930c:	01bef5b3          	and	a1,t4,s11
80009310:	00cea633          	slt	a2,t4,a2
80009314:	028c8463          	beq	s9,s0,8000933c <sub_2_stack_p+0x4c>
80009318:	fb4ee413          	ori	s0,t4,-76
8000931c:	003b4463          	blt	s6,gp,80009324 <sub_2_stack_p+0x34>
80009320:	4111dd93          	srai	s11,gp,0x11
80009324:	0000100f          	fence.i
80009328:	b35a3893          	sltiu	a7,s4,-1227
8000932c:	4cb37c13          	andi	s8,t1,1227
80009330:	01c4dbb3          	srl	s7,s1,t3
80009334:	1d860217          	auipc	tp,0x1d860
80009338:	00ee3233          	sltu	tp,t3,a4
8000933c:	40ed8c33          	sub	s8,s11,a4
80009340:	40ed8c33          	sub	s8,s11,a4
80009344:	1d860217          	auipc	tp,0x1d860
80009348:	038d1e63          	bne	s10,s8,80009384 <sub_2_stack_p+0x94>
8000934c:	006410b3          	sll	ra,s0,t1
80009350:	00cea633          	slt	a2,t4,a2
80009354:	20648893          	addi	a7,s1,518
80009358:	006410b3          	sll	ra,s0,t1
8000935c:	023b4a63          	blt	s6,gp,80009390 <sub_2_stack_p+0xa0>
80009360:	5dff4793          	xori	a5,t5,1503
80009364:	01d2de63          	bge	t0,t4,80009380 <sub_2_stack_p+0x90>
80009368:	023b4863          	blt	s6,gp,80009398 <sub_2_stack_p+0xa8>
8000936c:	006410b3          	sll	ra,s0,t1
80009370:	015ad993          	srli	s3,s5,0x15
80009374:	fb4ee413          	ori	s0,t4,-76
80009378:	40ed8c33          	sub	s8,s11,a4
8000937c:	006410b3          	sll	ra,s0,t1
80009380:	043b4063          	blt	s6,gp,800093c0 <sub_2_stack_p+0xd0>
80009384:	bce1a693          	slti	a3,gp,-1074
80009388:	05457263          	bgeu	a0,s4,800093cc <sub_2_stack_p+0xdc>
8000938c:	0033c233          	xor	tp,t2,gp
80009390:	1d860217          	auipc	tp,0x1d860
80009394:	05457463          	bgeu	a0,s4,800093dc <sub_2_stack_p+0xec>
80009398:	1d860217          	auipc	tp,0x1d860
8000939c:	fb4ee413          	ori	s0,t4,-76
800093a0:	003b4463          	blt	s6,gp,800093a8 <sub_2_stack_p+0xb8>
800093a4:	000706b3          	add	a3,a4,zero
800093a8:	00406333          	or	t1,zero,tp
800093ac:	043b4663          	blt	s6,gp,800093f8 <sub_2_stack_p+0x108>
800093b0:	0ff0000f          	fence
800093b4:	00406333          	or	t1,zero,tp
800093b8:	05457463          	bgeu	a0,s4,80009400 <sub_2_stack_p+0x110>
800093bc:	05a0e663          	bltu	ra,s10,80009408 <sub_2_stack_p+0x118>
800093c0:	0033c233          	xor	tp,t2,gp
800093c4:	b35a3893          	sltiu	a7,s4,-1227
800093c8:	fb4ee413          	ori	s0,t4,-76
800093cc:	05457263          	bgeu	a0,s4,80009410 <sub_2_stack_p+0x120>
800093d0:	00cea633          	slt	a2,t4,a2
800093d4:	015f1093          	slli	ra,t5,0x15
800093d8:	00ee3233          	sltu	tp,t3,a4
800093dc:	409a5633          	sra	a2,s4,s1
800093e0:	0000100f          	fence.i
800093e4:	4111dd93          	srai	s11,gp,0x11
800093e8:	000706b3          	add	a3,a4,zero
800093ec:	015f1093          	slli	ra,t5,0x15
800093f0:	01c4dbb3          	srl	s7,s1,t3
800093f4:	01c4dbb3          	srl	s7,s1,t3
800093f8:	1d860217          	auipc	tp,0x1d860
800093fc:	40ed8c33          	sub	s8,s11,a4
80009400:	048c8863          	beq	s9,s0,80009450 <sub_2_stack_p+0x160>
80009404:	409a5633          	sra	a2,s4,s1
80009408:	fb4ee413          	ori	s0,t4,-76
8000940c:	0ff0000f          	fence
80009410:	4111dd93          	srai	s11,gp,0x11
80009414:	003b4863          	blt	s6,gp,80009424 <sub_2_stack_p+0x134>
80009418:	00000013          	nop
8000941c:	01c4dbb3          	srl	s7,s1,t3
80009420:	5dff4793          	xori	a5,t5,1503
80009424:	015ad993          	srli	s3,s5,0x15
80009428:	01bef5b3          	and	a1,t4,s11
8000942c:	00406333          	or	t1,zero,tp
80009430:	00cea633          	slt	a2,t4,a2
80009434:	bce1a693          	slti	a3,gp,-1074
80009438:	000706b3          	add	a3,a4,zero
8000943c:	bce1a693          	slti	a3,gp,-1074
80009440:	015ad993          	srli	s3,s5,0x15
80009444:	0ff0000f          	fence
80009448:	4111dd93          	srai	s11,gp,0x11
8000944c:	038d1063          	bne	s10,s8,8000946c <sub_2_stack_p+0x17c>
80009450:	cc92a0b7          	lui	ra,0xcc92a
80009454:	0ff0000f          	fence
80009458:	000706b3          	add	a3,a4,zero
8000945c:	00ee3233          	sltu	tp,t3,a4
80009460:	1d860217          	auipc	tp,0x1d860
80009464:	015ad993          	srli	s3,s5,0x15
80009468:	bce1a693          	slti	a3,gp,-1074
8000946c:	018d1e63          	bne	s10,s8,80009488 <sub_2_stack_p+0x198>
80009470:	4111dd93          	srai	s11,gp,0x11
80009474:	006410b3          	sll	ra,s0,t1
80009478:	40ed8c33          	sub	s8,s11,a4
8000947c:	01457463          	bgeu	a0,s4,80009484 <sub_2_stack_p+0x194>
80009480:	003b4a63          	blt	s6,gp,80009494 <sub_2_stack_p+0x1a4>
80009484:	05457663          	bgeu	a0,s4,800094d0 <sub_2_stack_p+0x1e0>
80009488:	0033c233          	xor	tp,t2,gp
8000948c:	00cea633          	slt	a2,t4,a2
80009490:	006410b3          	sll	ra,s0,t1
80009494:	bce1a693          	slti	a3,gp,-1074
80009498:	03457463          	bgeu	a0,s4,800094c0 <sub_2_stack_p+0x1d0>
8000949c:	03457863          	bgeu	a0,s4,800094cc <sub_2_stack_p+0x1dc>
800094a0:	00ee3233          	sltu	tp,t3,a4
800094a4:	fb4ee413          	ori	s0,t4,-76
800094a8:	0033c233          	xor	tp,t2,gp
800094ac:	01457a63          	bgeu	a0,s4,800094c0 <sub_2_stack_p+0x1d0>
800094b0:	00cea633          	slt	a2,t4,a2
800094b4:	000706b3          	add	a3,a4,zero
800094b8:	20648893          	addi	a7,s1,518
800094bc:	006410b3          	sll	ra,s0,t1
800094c0:	0033c233          	xor	tp,t2,gp
800094c4:	4cb37c13          	andi	s8,t1,1227
800094c8:	fb4ee413          	ori	s0,t4,-76
800094cc:	00cea633          	slt	a2,t4,a2
800094d0:	00406333          	or	t1,zero,tp
800094d4:	00ee3233          	sltu	tp,t3,a4
800094d8:	00000013          	nop
800094dc:	043b4063          	blt	s6,gp,8000951c <sub_2_stack_p+0x22c>
800094e0:	006410b3          	sll	ra,s0,t1
800094e4:	015ad993          	srli	s3,s5,0x15
800094e8:	409a5633          	sra	a2,s4,s1
800094ec:	4111dd93          	srai	s11,gp,0x11
800094f0:	038d1063          	bne	s10,s8,80009510 <sub_2_stack_p+0x220>
800094f4:	05d2d463          	bge	t0,t4,8000953c <sub_2_stack_p+0x24c>
800094f8:	bce1a693          	slti	a3,gp,-1074
800094fc:	cc92a0b7          	lui	ra,0xcc92a
80009500:	0033c233          	xor	tp,t2,gp
80009504:	1d860217          	auipc	tp,0x1d860
80009508:	0000100f          	fence.i
8000950c:	0ff0000f          	fence
80009510:	00000013          	nop
80009514:	00406333          	or	t1,zero,tp
80009518:	cc92a0b7          	lui	ra,0xcc92a
8000951c:	00cea633          	slt	a2,t4,a2
80009520:	00000013          	nop
80009524:	40ed8c33          	sub	s8,s11,a4
80009528:	028c8663          	beq	s9,s0,80009554 <sub_2_stack_p+0x264>
8000952c:	20648893          	addi	a7,s1,518
80009530:	bce1a693          	slti	a3,gp,-1074
80009534:	40ed8c33          	sub	s8,s11,a4
80009538:	fb4ee413          	ori	s0,t4,-76
8000953c:	5dff4793          	xori	a5,t5,1503
80009540:	000706b3          	add	a3,a4,zero
80009544:	fb4ee413          	ori	s0,t4,-76
80009548:	0ff0000f          	fence
8000954c:	5dff4793          	xori	a5,t5,1503
80009550:	00406333          	or	t1,zero,tp
80009554:	4111dd93          	srai	s11,gp,0x11
80009558:	01bef5b3          	and	a1,t4,s11
8000955c:	05d2d263          	bge	t0,t4,800095a0 <sub_2_stack_p+0x2b0>
80009560:	4cb37c13          	andi	s8,t1,1227
80009564:	fb4ee413          	ori	s0,t4,-76
80009568:	1d860217          	auipc	tp,0x1d860
8000956c:	409a5633          	sra	a2,s4,s1
80009570:	01c4dbb3          	srl	s7,s1,t3
80009574:	20648893          	addi	a7,s1,518
80009578:	01c4dbb3          	srl	s7,s1,t3
8000957c:	00cea633          	slt	a2,t4,a2
80009580:	000706b3          	add	a3,a4,zero
80009584:	05d2d463          	bge	t0,t4,800095cc <sub_2_stack_p+0x2dc>
80009588:	018d1e63          	bne	s10,s8,800095a4 <sub_2_stack_p+0x2b4>
8000958c:	0033c233          	xor	tp,t2,gp
80009590:	00000013          	nop
80009594:	0ff0000f          	fence
80009598:	03d2da63          	bge	t0,t4,800095cc <sub_2_stack_p+0x2dc>
8000959c:	00cea633          	slt	a2,t4,a2
800095a0:	0ff0000f          	fence
800095a4:	015ad993          	srli	s3,s5,0x15
800095a8:	00cea633          	slt	a2,t4,a2
800095ac:	1d860217          	auipc	tp,0x1d860
800095b0:	4cb37c13          	andi	s8,t1,1227
800095b4:	b35a3893          	sltiu	a7,s4,-1227
800095b8:	01bef5b3          	and	a1,t4,s11
800095bc:	b35a3893          	sltiu	a7,s4,-1227
800095c0:	00406333          	or	t1,zero,tp
800095c4:	cc92a0b7          	lui	ra,0xcc92a
800095c8:	015f1093          	slli	ra,t5,0x15
800095cc:	5dff4793          	xori	a5,t5,1503
800095d0:	028c8463          	beq	s9,s0,800095f8 <sub_2_stack_p+0x308>
800095d4:	058d1263          	bne	s10,s8,80009618 <sub_2_stack_p+0x328>
800095d8:	05a0e063          	bltu	ra,s10,80009618 <sub_2_stack_p+0x328>
800095dc:	0000100f          	fence.i
800095e0:	015f1093          	slli	ra,t5,0x15
800095e4:	000706b3          	add	a3,a4,zero
800095e8:	048c8663          	beq	s9,s0,80009634 <sub_2_stack_p+0x344>
800095ec:	4111dd93          	srai	s11,gp,0x11
800095f0:	20648893          	addi	a7,s1,518
800095f4:	40ed8c33          	sub	s8,s11,a4
800095f8:	00cea633          	slt	a2,t4,a2
800095fc:	4cb37c13          	andi	s8,t1,1227
80009600:	0000100f          	fence.i
80009604:	05a0e263          	bltu	ra,s10,80009648 <sub_2_stack_p+0x358>
80009608:	00406333          	or	t1,zero,tp
8000960c:	018d1a63          	bne	s10,s8,80009620 <sub_2_stack_p+0x330>
80009610:	038d1663          	bne	s10,s8,8000963c <sub_2_stack_p+0x34c>
80009614:	05d2d663          	bge	t0,t4,80009660 <sub_2_stack_p+0x370>
80009618:	01bef5b3          	and	a1,t4,s11
8000961c:	00000013          	nop
80009620:	4cb37c13          	andi	s8,t1,1227
80009624:	00000013          	nop
80009628:	20648893          	addi	a7,s1,518
8000962c:	cc92a0b7          	lui	ra,0xcc92a
80009630:	0033c233          	xor	tp,t2,gp
80009634:	01c4dbb3          	srl	s7,s1,t3
80009638:	20648893          	addi	a7,s1,518
8000963c:	05d2d463          	bge	t0,t4,80009684 <sub_2_stack_p+0x394>
80009640:	000706b3          	add	a3,a4,zero
80009644:	043b4463          	blt	s6,gp,8000968c <sub_2_stack_p+0x39c>
80009648:	015ad993          	srli	s3,s5,0x15
8000964c:	0000100f          	fence.i
80009650:	00000013          	nop
80009654:	00cea633          	slt	a2,t4,a2
80009658:	018d1463          	bne	s10,s8,80009660 <sub_2_stack_p+0x370>
8000965c:	00406333          	or	t1,zero,tp
80009660:	0033c233          	xor	tp,t2,gp
80009664:	03a0e463          	bltu	ra,s10,8000968c <sub_2_stack_p+0x39c>
80009668:	018d1463          	bne	s10,s8,80009670 <sub_2_stack_p+0x380>
8000966c:	023b4e63          	blt	s6,gp,800096a8 <sub_2_stack_p+0x3b8>
80009670:	00ee3233          	sltu	tp,t3,a4
80009674:	cc92a0b7          	lui	ra,0xcc92a
80009678:	1d860217          	auipc	tp,0x1d860
8000967c:	05a0e463          	bltu	ra,s10,800096c4 <sub_2_stack_p+0x3d4>
80009680:	fb4ee413          	ori	s0,t4,-76
80009684:	40ed8c33          	sub	s8,s11,a4
80009688:	4cb37c13          	andi	s8,t1,1227
8000968c:	bce1a693          	slti	a3,gp,-1074
80009690:	40ed8c33          	sub	s8,s11,a4
80009694:	bce1a693          	slti	a3,gp,-1074
80009698:	cc92a0b7          	lui	ra,0xcc92a
8000969c:	4cb37c13          	andi	s8,t1,1227
800096a0:	00cea633          	slt	a2,t4,a2
800096a4:	015f1093          	slli	ra,t5,0x15
800096a8:	fb4ee413          	ori	s0,t4,-76
800096ac:	cc92a0b7          	lui	ra,0xcc92a
800096b0:	bce1a693          	slti	a3,gp,-1074
800096b4:	40ed8c33          	sub	s8,s11,a4
800096b8:	cc92a0b7          	lui	ra,0xcc92a
800096bc:	00ee3233          	sltu	tp,t3,a4
800096c0:	00000013          	nop
800096c4:	015ad993          	srli	s3,s5,0x15
800096c8:	023b4063          	blt	s6,gp,800096e8 <sub_2_stack_p+0x3f8>
800096cc:	cc92a0b7          	lui	ra,0xcc92a
800096d0:	00000013          	nop
800096d4:	4111dd93          	srai	s11,gp,0x11
800096d8:	40ed8c33          	sub	s8,s11,a4
800096dc:	000706b3          	add	a3,a4,zero
800096e0:	05a0e663          	bltu	ra,s10,8000972c <sub_2_stack_p+0x43c>
800096e4:	bce1a693          	slti	a3,gp,-1074
800096e8:	409a5633          	sra	a2,s4,s1
800096ec:	5dff4793          	xori	a5,t5,1503
800096f0:	05a0e463          	bltu	ra,s10,80009738 <sub_2_stack_p+0x448>
800096f4:	b35a3893          	sltiu	a7,s4,-1227
800096f8:	0ff0000f          	fence
800096fc:	01a0e463          	bltu	ra,s10,80009704 <sub_2_stack_p+0x414>
80009700:	015ad993          	srli	s3,s5,0x15
80009704:	05d2d063          	bge	t0,t4,80009744 <sub_2_stack_p+0x454>
80009708:	03d2d863          	bge	t0,t4,80009738 <sub_2_stack_p+0x448>
8000970c:	cc92a0b7          	lui	ra,0xcc92a
80009710:	015ad993          	srli	s3,s5,0x15
80009714:	0033c233          	xor	tp,t2,gp
80009718:	5dff4793          	xori	a5,t5,1503
8000971c:	0000100f          	fence.i
80009720:	00ee3233          	sltu	tp,t3,a4
80009724:	0ff0000f          	fence
80009728:	00cea633          	slt	a2,t4,a2
8000972c:	fb4ee413          	ori	s0,t4,-76
80009730:	cc92a0b7          	lui	ra,0xcc92a
80009734:	20648893          	addi	a7,s1,518
80009738:	20648893          	addi	a7,s1,518
8000973c:	fb4ee413          	ori	s0,t4,-76
80009740:	01c4dbb3          	srl	s7,s1,t3
80009744:	003b4e63          	blt	s6,gp,80009760 <sub_2_stack_p+0x470>
80009748:	40ed8c33          	sub	s8,s11,a4
8000974c:	03a0e063          	bltu	ra,s10,8000976c <sub_2_stack_p+0x47c>
80009750:	03a0e863          	bltu	ra,s10,80009780 <sub_2_stack_p+0x490>
80009754:	01457a63          	bgeu	a0,s4,80009768 <sub_2_stack_p+0x478>
80009758:	00406333          	or	t1,zero,tp
8000975c:	05457263          	bgeu	a0,s4,800097a0 <sub_2_stack_p+0x4b0>
80009760:	00cea633          	slt	a2,t4,a2
80009764:	0033c233          	xor	tp,t2,gp
80009768:	006410b3          	sll	ra,s0,t1
8000976c:	4cb37c13          	andi	s8,t1,1227
80009770:	01bef5b3          	and	a1,t4,s11
80009774:	015ad993          	srli	s3,s5,0x15
80009778:	00cea633          	slt	a2,t4,a2
8000977c:	409a5633          	sra	a2,s4,s1
80009780:	015ad993          	srli	s3,s5,0x15
80009784:	015ad993          	srli	s3,s5,0x15
80009788:	4111dd93          	srai	s11,gp,0x11
8000978c:	05d2d863          	bge	t0,t4,800097dc <sub_2_stack_p+0x4ec>
80009790:	01457863          	bgeu	a0,s4,800097a0 <sub_2_stack_p+0x4b0>
80009794:	0033c233          	xor	tp,t2,gp
80009798:	048c8263          	beq	s9,s0,800097dc <sub_2_stack_p+0x4ec>
8000979c:	006410b3          	sll	ra,s0,t1
800097a0:	40ed8c33          	sub	s8,s11,a4
800097a4:	00ee3233          	sltu	tp,t3,a4
800097a8:	1d860217          	auipc	tp,0x1d860
800097ac:	4111dd93          	srai	s11,gp,0x11
800097b0:	018d1a63          	bne	s10,s8,800097c4 <sub_2_stack_p+0x4d4>
800097b4:	4111dd93          	srai	s11,gp,0x11
800097b8:	0000100f          	fence.i
800097bc:	05457463          	bgeu	a0,s4,80009804 <sub_2_stack_p+0x514>
800097c0:	0ff0000f          	fence
800097c4:	015f1093          	slli	ra,t5,0x15
800097c8:	008c8863          	beq	s9,s0,800097d8 <sub_2_stack_p+0x4e8>
800097cc:	006410b3          	sll	ra,s0,t1
800097d0:	038d1063          	bne	s10,s8,800097f0 <sub_2_stack_p+0x500>
800097d4:	058d1063          	bne	s10,s8,80009814 <sub_2_stack_p+0x524>
800097d8:	01d2de63          	bge	t0,t4,800097f4 <sub_2_stack_p+0x504>
800097dc:	01c4dbb3          	srl	s7,s1,t3
800097e0:	038d1463          	bne	s10,s8,80009808 <sub_2_stack_p+0x518>
800097e4:	bce1a693          	slti	a3,gp,-1074
800097e8:	00406333          	or	t1,zero,tp
800097ec:	0ff0000f          	fence
800097f0:	00ee3233          	sltu	tp,t3,a4
800097f4:	409a5633          	sra	a2,s4,s1
800097f8:	000706b3          	add	a3,a4,zero
800097fc:	006410b3          	sll	ra,s0,t1
80009800:	0000100f          	fence.i
80009804:	01a0e463          	bltu	ra,s10,8000980c <sub_2_stack_p+0x51c>
80009808:	028c8063          	beq	s9,s0,80009828 <sub_2_stack_p+0x538>
8000980c:	0000100f          	fence.i
80009810:	00000013          	nop
80009814:	40ed8c33          	sub	s8,s11,a4
80009818:	409a5633          	sra	a2,s4,s1
8000981c:	40ed8c33          	sub	s8,s11,a4
80009820:	0033c233          	xor	tp,t2,gp
80009824:	409a5633          	sra	a2,s4,s1
80009828:	038d1e63          	bne	s10,s8,80009864 <sub_2_stack_p+0x574>
8000982c:	1d860217          	auipc	tp,0x1d860
80009830:	01c4dbb3          	srl	s7,s1,t3
80009834:	0ff0000f          	fence
80009838:	4cb37c13          	andi	s8,t1,1227
8000983c:	006410b3          	sll	ra,s0,t1
80009840:	20648893          	addi	a7,s1,518
80009844:	40ed8c33          	sub	s8,s11,a4
80009848:	4cb37c13          	andi	s8,t1,1227
8000984c:	038d1a63          	bne	s10,s8,80009880 <sub_2_stack_p+0x590>
80009850:	1d860217          	auipc	tp,0x1d860
80009854:	4111dd93          	srai	s11,gp,0x11
80009858:	fb4ee413          	ori	s0,t4,-76
8000985c:	00cea633          	slt	a2,t4,a2
80009860:	20648893          	addi	a7,s1,518
80009864:	fb4ee413          	ori	s0,t4,-76
80009868:	015ad993          	srli	s3,s5,0x15
8000986c:	cc92a0b7          	lui	ra,0xcc92a
80009870:	bce1a693          	slti	a3,gp,-1074
80009874:	0000100f          	fence.i
80009878:	048c8863          	beq	s9,s0,800098c8 <sub_2_stack_p+0x5d8>
8000987c:	bce1a693          	slti	a3,gp,-1074
80009880:	fb4ee413          	ori	s0,t4,-76
80009884:	1d860217          	auipc	tp,0x1d860
80009888:	b35a3893          	sltiu	a7,s4,-1227
8000988c:	bce1a693          	slti	a3,gp,-1074
80009890:	4111dd93          	srai	s11,gp,0x11
80009894:	5dff4793          	xori	a5,t5,1503
80009898:	00406333          	or	t1,zero,tp
8000989c:	fb4ee413          	ori	s0,t4,-76
800098a0:	006410b3          	sll	ra,s0,t1
800098a4:	015ad993          	srli	s3,s5,0x15
800098a8:	0033c233          	xor	tp,t2,gp
800098ac:	023b4663          	blt	s6,gp,800098d8 <sub_2_stack_p+0x5e8>
800098b0:	00ee3233          	sltu	tp,t3,a4
800098b4:	006410b3          	sll	ra,s0,t1
800098b8:	409a5633          	sra	a2,s4,s1
800098bc:	015f1093          	slli	ra,t5,0x15
800098c0:	40ed8c33          	sub	s8,s11,a4
800098c4:	058d1463          	bne	s10,s8,8000990c <sub_2_stack_p+0x61c>
800098c8:	00406333          	or	t1,zero,tp
800098cc:	0000100f          	fence.i
800098d0:	4111dd93          	srai	s11,gp,0x11
800098d4:	003b4a63          	blt	s6,gp,800098e8 <sub_2_stack_p+0x5f8>
800098d8:	048c8263          	beq	s9,s0,8000991c <sub_2_stack_p+0x62c>
800098dc:	b35a3893          	sltiu	a7,s4,-1227
800098e0:	003b4e63          	blt	s6,gp,800098fc <sub_2_stack_p+0x60c>
800098e4:	03a0e463          	bltu	ra,s10,8000990c <sub_2_stack_p+0x61c>
800098e8:	00ee3233          	sltu	tp,t3,a4
800098ec:	20648893          	addi	a7,s1,518
800098f0:	043b4663          	blt	s6,gp,8000993c <sub_2_stack_p+0x64c>
800098f4:	006410b3          	sll	ra,s0,t1
800098f8:	01c4dbb3          	srl	s7,s1,t3
800098fc:	006410b3          	sll	ra,s0,t1
80009900:	015f1093          	slli	ra,t5,0x15
80009904:	4111dd93          	srai	s11,gp,0x11
80009908:	000706b3          	add	a3,a4,zero
8000990c:	008c8463          	beq	s9,s0,80009914 <sub_2_stack_p+0x624>
80009910:	20648893          	addi	a7,s1,518
80009914:	05457663          	bgeu	a0,s4,80009960 <sub_2_stack_p+0x670>
80009918:	0000100f          	fence.i
8000991c:	5dff4793          	xori	a5,t5,1503
80009920:	b35a3893          	sltiu	a7,s4,-1227
80009924:	006410b3          	sll	ra,s0,t1
80009928:	023b4863          	blt	s6,gp,80009958 <sub_2_stack_p+0x668>
8000992c:	000706b3          	add	a3,a4,zero
80009930:	fb4ee413          	ori	s0,t4,-76
80009934:	4cb37c13          	andi	s8,t1,1227
80009938:	015f1093          	slli	ra,t5,0x15
8000993c:	015ad993          	srli	s3,s5,0x15
80009940:	1d860217          	auipc	tp,0x1d860
80009944:	00ee3233          	sltu	tp,t3,a4
80009948:	5dff4793          	xori	a5,t5,1503
8000994c:	058d1463          	bne	s10,s8,80009994 <sub_2_stack_p+0x6a4>
80009950:	0ff0000f          	fence
80009954:	40ed8c33          	sub	s8,s11,a4
80009958:	00406333          	or	t1,zero,tp
8000995c:	bce1a693          	slti	a3,gp,-1074
80009960:	0ff0000f          	fence
80009964:	008c8463          	beq	s9,s0,8000996c <sub_2_stack_p+0x67c>
80009968:	0033c233          	xor	tp,t2,gp
8000996c:	0000100f          	fence.i
80009970:	00406333          	or	t1,zero,tp
80009974:	03d2d863          	bge	t0,t4,800099a4 <sub_2_stack_p+0x6b4>
80009978:	00ee3233          	sltu	tp,t3,a4
8000997c:	015ad993          	srli	s3,s5,0x15
80009980:	00cea633          	slt	a2,t4,a2
80009984:	006410b3          	sll	ra,s0,t1
80009988:	fb4ee413          	ori	s0,t4,-76
8000998c:	cc92a0b7          	lui	ra,0xcc92a
80009990:	05a0e063          	bltu	ra,s10,800099d0 <sub_2_stack_p+0x6e0>
80009994:	048c8663          	beq	s9,s0,800099e0 <sub_2_stack_p+0x6f0>
80009998:	40ed8c33          	sub	s8,s11,a4
8000999c:	0000100f          	fence.i
800099a0:	bce1a693          	slti	a3,gp,-1074
800099a4:	40ed8c33          	sub	s8,s11,a4
800099a8:	1d860217          	auipc	tp,0x1d860
800099ac:	1d860217          	auipc	tp,0x1d860
800099b0:	000706b3          	add	a3,a4,zero
800099b4:	0000100f          	fence.i
800099b8:	5dff4793          	xori	a5,t5,1503
800099bc:	4111dd93          	srai	s11,gp,0x11
800099c0:	006410b3          	sll	ra,s0,t1
800099c4:	01bef5b3          	and	a1,t4,s11
800099c8:	40ed8c33          	sub	s8,s11,a4
800099cc:	006410b3          	sll	ra,s0,t1
800099d0:	4111dd93          	srai	s11,gp,0x11
800099d4:	00ee3233          	sltu	tp,t3,a4
800099d8:	05a0e263          	bltu	ra,s10,80009a1c <sub_2_stack_p+0x72c>
800099dc:	00ee3233          	sltu	tp,t3,a4
800099e0:	01bef5b3          	and	a1,t4,s11
800099e4:	006410b3          	sll	ra,s0,t1
800099e8:	40ed8c33          	sub	s8,s11,a4
800099ec:	fb4ee413          	ori	s0,t4,-76
800099f0:	5dff4793          	xori	a5,t5,1503
800099f4:	0000100f          	fence.i
800099f8:	00ee3233          	sltu	tp,t3,a4
800099fc:	0ff0000f          	fence
80009a00:	00cea633          	slt	a2,t4,a2
80009a04:	fb4ee413          	ori	s0,t4,-76
80009a08:	4111dd93          	srai	s11,gp,0x11
80009a0c:	fb4ee413          	ori	s0,t4,-76
80009a10:	043b4463          	blt	s6,gp,80009a58 <sub_2_stack_p+0x768>
80009a14:	00406333          	or	t1,zero,tp
80009a18:	00000013          	nop
80009a1c:	015ad993          	srli	s3,s5,0x15
80009a20:	006410b3          	sll	ra,s0,t1
80009a24:	00ee3233          	sltu	tp,t3,a4
80009a28:	00cea633          	slt	a2,t4,a2
80009a2c:	00406333          	or	t1,zero,tp
80009a30:	4111dd93          	srai	s11,gp,0x11
80009a34:	bce1a693          	slti	a3,gp,-1074
80009a38:	023b4a63          	blt	s6,gp,80009a6c <sub_2_stack_p+0x77c>
80009a3c:	bce1a693          	slti	a3,gp,-1074
80009a40:	5dff4793          	xori	a5,t5,1503
80009a44:	bce1a693          	slti	a3,gp,-1074
80009a48:	0033c233          	xor	tp,t2,gp
80009a4c:	4cb37c13          	andi	s8,t1,1227
80009a50:	015ad993          	srli	s3,s5,0x15
80009a54:	006410b3          	sll	ra,s0,t1
80009a58:	20648893          	addi	a7,s1,518
80009a5c:	003b4463          	blt	s6,gp,80009a64 <sub_2_stack_p+0x774>
80009a60:	00406333          	or	t1,zero,tp
80009a64:	4111dd93          	srai	s11,gp,0x11
80009a68:	bce1a693          	slti	a3,gp,-1074
80009a6c:	4cb37c13          	andi	s8,t1,1227
80009a70:	00406333          	or	t1,zero,tp
80009a74:	00000013          	nop
80009a78:	0033c233          	xor	tp,t2,gp
80009a7c:	000706b3          	add	a3,a4,zero
80009a80:	01a0ee63          	bltu	ra,s10,80009a9c <sub_2_stack_p+0x7ac>
80009a84:	20648893          	addi	a7,s1,518
80009a88:	000706b3          	add	a3,a4,zero
80009a8c:	00406333          	or	t1,zero,tp
80009a90:	00406333          	or	t1,zero,tp
80009a94:	fb4ee413          	ori	s0,t4,-76
80009a98:	00ee3233          	sltu	tp,t3,a4
80009a9c:	000706b3          	add	a3,a4,zero
80009aa0:	4111dd93          	srai	s11,gp,0x11
80009aa4:	cc92a0b7          	lui	ra,0xcc92a
80009aa8:	cc92a0b7          	lui	ra,0xcc92a
80009aac:	20648893          	addi	a7,s1,518
80009ab0:	015f1093          	slli	ra,t5,0x15
80009ab4:	00000013          	nop
80009ab8:	018d1463          	bne	s10,s8,80009ac0 <sub_2_stack_p+0x7d0>
80009abc:	01c4dbb3          	srl	s7,s1,t3
80009ac0:	4cb37c13          	andi	s8,t1,1227
80009ac4:	1d860217          	auipc	tp,0x1d860
80009ac8:	01d2da63          	bge	t0,t4,80009adc <sub_2_stack_p+0x7ec>
80009acc:	00000013          	nop
80009ad0:	00406333          	or	t1,zero,tp
80009ad4:	5dff4793          	xori	a5,t5,1503
80009ad8:	01c4dbb3          	srl	s7,s1,t3
80009adc:	05d2d663          	bge	t0,t4,80009b28 <sub_2_stack_p+0x838>
80009ae0:	03d2d463          	bge	t0,t4,80009b08 <sub_2_stack_p+0x818>
80009ae4:	008c8e63          	beq	s9,s0,80009b00 <sub_2_stack_p+0x810>
80009ae8:	038d1663          	bne	s10,s8,80009b14 <sub_2_stack_p+0x824>
80009aec:	fb4ee413          	ori	s0,t4,-76
80009af0:	038d1863          	bne	s10,s8,80009b20 <sub_2_stack_p+0x830>
80009af4:	006410b3          	sll	ra,s0,t1
80009af8:	fb4ee413          	ori	s0,t4,-76
80009afc:	b35a3893          	sltiu	a7,s4,-1227
80009b00:	bce1a693          	slti	a3,gp,-1074
80009b04:	4111dd93          	srai	s11,gp,0x11
80009b08:	028c8e63          	beq	s9,s0,80009b44 <sub_2_stack_p+0x854>
80009b0c:	00000013          	nop
80009b10:	409a5633          	sra	a2,s4,s1
80009b14:	0ff0000f          	fence
80009b18:	0033c233          	xor	tp,t2,gp
80009b1c:	fb4ee413          	ori	s0,t4,-76
80009b20:	409a5633          	sra	a2,s4,s1
80009b24:	0000100f          	fence.i
80009b28:	00ee3233          	sltu	tp,t3,a4
80009b2c:	01c4dbb3          	srl	s7,s1,t3
80009b30:	fb4ee413          	ori	s0,t4,-76
80009b34:	20648893          	addi	a7,s1,518
80009b38:	015ad993          	srli	s3,s5,0x15
80009b3c:	00cea633          	slt	a2,t4,a2
80009b40:	409a5633          	sra	a2,s4,s1
80009b44:	000706b3          	add	a3,a4,zero
80009b48:	00406333          	or	t1,zero,tp
80009b4c:	20648893          	addi	a7,s1,518
80009b50:	05457463          	bgeu	a0,s4,80009b98 <sub_2_stack_p+0x8a8>
80009b54:	5dff4793          	xori	a5,t5,1503
80009b58:	006410b3          	sll	ra,s0,t1
80009b5c:	03a0e063          	bltu	ra,s10,80009b7c <sub_2_stack_p+0x88c>
80009b60:	000706b3          	add	a3,a4,zero
80009b64:	40ed8c33          	sub	s8,s11,a4
80009b68:	20648893          	addi	a7,s1,518
80009b6c:	058d1263          	bne	s10,s8,80009bb0 <sub_2_stack_p+0x8c0>
80009b70:	0033c233          	xor	tp,t2,gp
80009b74:	1d860217          	auipc	tp,0x1d860
80009b78:	4cb37c13          	andi	s8,t1,1227
80009b7c:	409a5633          	sra	a2,s4,s1
80009b80:	008c8463          	beq	s9,s0,80009b88 <sub_2_stack_p+0x898>
80009b84:	4111dd93          	srai	s11,gp,0x11
80009b88:	058d1463          	bne	s10,s8,80009bd0 <sub_2_stack_p+0x8e0>
80009b8c:	40ed8c33          	sub	s8,s11,a4
80009b90:	01c4dbb3          	srl	s7,s1,t3
80009b94:	409a5633          	sra	a2,s4,s1
80009b98:	01c4dbb3          	srl	s7,s1,t3
80009b9c:	20648893          	addi	a7,s1,518
80009ba0:	4cb37c13          	andi	s8,t1,1227
80009ba4:	015f1093          	slli	ra,t5,0x15
80009ba8:	015f1093          	slli	ra,t5,0x15
80009bac:	00cea633          	slt	a2,t4,a2
80009bb0:	409a5633          	sra	a2,s4,s1
80009bb4:	b35a3893          	sltiu	a7,s4,-1227
80009bb8:	1d860217          	auipc	tp,0x1d860
80009bbc:	015ad993          	srli	s3,s5,0x15
80009bc0:	03457863          	bgeu	a0,s4,80009bf0 <sub_2_stack_p+0x900>
80009bc4:	409a5633          	sra	a2,s4,s1
80009bc8:	40ed8c33          	sub	s8,s11,a4
80009bcc:	01bef5b3          	and	a1,t4,s11
80009bd0:	5dff4793          	xori	a5,t5,1503
80009bd4:	5dff4793          	xori	a5,t5,1503
80009bd8:	0ff0000f          	fence
80009bdc:	20648893          	addi	a7,s1,518
80009be0:	058d1263          	bne	s10,s8,80009c24 <sub_2_stack_p+0x934>
80009be4:	043b4263          	blt	s6,gp,80009c28 <sub_2_stack_p+0x938>
80009be8:	00cea633          	slt	a2,t4,a2
80009bec:	00406333          	or	t1,zero,tp
80009bf0:	008c8863          	beq	s9,s0,80009c00 <sub_2_stack_p+0x910>
80009bf4:	00406333          	or	t1,zero,tp
80009bf8:	01c4dbb3          	srl	s7,s1,t3
80009bfc:	000706b3          	add	a3,a4,zero
80009c00:	01bef5b3          	and	a1,t4,s11
80009c04:	01d2da63          	bge	t0,t4,80009c18 <sub_2_stack_p+0x928>
80009c08:	40ed8c33          	sub	s8,s11,a4
80009c0c:	cc92a0b7          	lui	ra,0xcc92a
80009c10:	0033c233          	xor	tp,t2,gp
80009c14:	5dff4793          	xori	a5,t5,1503
80009c18:	01c4dbb3          	srl	s7,s1,t3
80009c1c:	cc92a0b7          	lui	ra,0xcc92a
80009c20:	00000013          	nop
80009c24:	015f1093          	slli	ra,t5,0x15
80009c28:	043b4663          	blt	s6,gp,80009c74 <sub_2_stack_p+0x984>
80009c2c:	05457063          	bgeu	a0,s4,80009c6c <sub_2_stack_p+0x97c>
80009c30:	1d860217          	auipc	tp,0x1d860
80009c34:	4111dd93          	srai	s11,gp,0x11
80009c38:	0033c233          	xor	tp,t2,gp
80009c3c:	01bef5b3          	and	a1,t4,s11
80009c40:	015ad993          	srli	s3,s5,0x15
80009c44:	b35a3893          	sltiu	a7,s4,-1227
80009c48:	006410b3          	sll	ra,s0,t1
80009c4c:	0ff0000f          	fence
80009c50:	03d2d463          	bge	t0,t4,80009c78 <sub_2_stack_p+0x988>
80009c54:	00ee3233          	sltu	tp,t3,a4
80009c58:	015f1093          	slli	ra,t5,0x15
80009c5c:	4111dd93          	srai	s11,gp,0x11
80009c60:	fb4ee413          	ori	s0,t4,-76
80009c64:	1d860217          	auipc	tp,0x1d860
80009c68:	01c4dbb3          	srl	s7,s1,t3
80009c6c:	0033c233          	xor	tp,t2,gp
80009c70:	bce1a693          	slti	a3,gp,-1074
80009c74:	40ed8c33          	sub	s8,s11,a4
80009c78:	058d1663          	bne	s10,s8,80009cc4 <sub_2_stack_p+0x9d4>
80009c7c:	4111dd93          	srai	s11,gp,0x11
80009c80:	015f1093          	slli	ra,t5,0x15
80009c84:	1d860217          	auipc	tp,0x1d860
80009c88:	0000100f          	fence.i
80009c8c:	048c8463          	beq	s9,s0,80009cd4 <sub_2_stack_p+0x9e4>
80009c90:	0033c233          	xor	tp,t2,gp
80009c94:	5dff4793          	xori	a5,t5,1503
80009c98:	043b4463          	blt	s6,gp,80009ce0 <sub_2_stack_p+0x9f0>
80009c9c:	b35a3893          	sltiu	a7,s4,-1227
80009ca0:	00406333          	or	t1,zero,tp
80009ca4:	0000100f          	fence.i
80009ca8:	00000013          	nop
80009cac:	006410b3          	sll	ra,s0,t1
80009cb0:	006410b3          	sll	ra,s0,t1
80009cb4:	023b4063          	blt	s6,gp,80009cd4 <sub_2_stack_p+0x9e4>
80009cb8:	006410b3          	sll	ra,s0,t1
80009cbc:	5dff4793          	xori	a5,t5,1503
80009cc0:	0033c233          	xor	tp,t2,gp
80009cc4:	058d1063          	bne	s10,s8,80009d04 <sub_2_stack_p+0xa14>
80009cc8:	006410b3          	sll	ra,s0,t1
80009ccc:	4111dd93          	srai	s11,gp,0x11
80009cd0:	4cb37c13          	andi	s8,t1,1227
80009cd4:	000706b3          	add	a3,a4,zero
80009cd8:	01bef5b3          	and	a1,t4,s11
80009cdc:	40ed8c33          	sub	s8,s11,a4
80009ce0:	409a5633          	sra	a2,s4,s1
80009ce4:	05457863          	bgeu	a0,s4,80009d34 <sub_2_stack_p+0xa44>
80009ce8:	409a5633          	sra	a2,s4,s1
80009cec:	01457e63          	bgeu	a0,s4,80009d08 <sub_2_stack_p+0xa18>
80009cf0:	015ad993          	srli	s3,s5,0x15
80009cf4:	5dff4793          	xori	a5,t5,1503
80009cf8:	01d2da63          	bge	t0,t4,80009d0c <sub_2_stack_p+0xa1c>
80009cfc:	01c4dbb3          	srl	s7,s1,t3
80009d00:	01c4dbb3          	srl	s7,s1,t3
80009d04:	000706b3          	add	a3,a4,zero
80009d08:	006410b3          	sll	ra,s0,t1
80009d0c:	01bef5b3          	and	a1,t4,s11
80009d10:	00000013          	nop
80009d14:	bce1a693          	slti	a3,gp,-1074
80009d18:	058d1463          	bne	s10,s8,80009d60 <sub_2_stack_p+0xa70>
80009d1c:	03457663          	bgeu	a0,s4,80009d48 <sub_2_stack_p+0xa58>
80009d20:	0033c233          	xor	tp,t2,gp
80009d24:	1d860217          	auipc	tp,0x1d860
80009d28:	409a5633          	sra	a2,s4,s1
80009d2c:	1d860217          	auipc	tp,0x1d860
80009d30:	00ee3233          	sltu	tp,t3,a4
80009d34:	01c4dbb3          	srl	s7,s1,t3
80009d38:	015ad993          	srli	s3,s5,0x15
80009d3c:	1d860217          	auipc	tp,0x1d860
80009d40:	b35a3893          	sltiu	a7,s4,-1227
80009d44:	00406333          	or	t1,zero,tp
80009d48:	000706b3          	add	a3,a4,zero
80009d4c:	fb4ee413          	ori	s0,t4,-76
80009d50:	40ed8c33          	sub	s8,s11,a4
80009d54:	023b4463          	blt	s6,gp,80009d7c <sub_2_stack_p+0xa8c>
80009d58:	028c8863          	beq	s9,s0,80009d88 <sub_2_stack_p+0xa98>
80009d5c:	40ed8c33          	sub	s8,s11,a4
80009d60:	015f1093          	slli	ra,t5,0x15
80009d64:	00000013          	nop
80009d68:	0000100f          	fence.i
80009d6c:	048c8663          	beq	s9,s0,80009db8 <sub_2_stack_p+0xac8>
80009d70:	05457263          	bgeu	a0,s4,80009db4 <sub_2_stack_p+0xac4>
80009d74:	1d860217          	auipc	tp,0x1d860
80009d78:	048c8663          	beq	s9,s0,80009dc4 <sub_2_stack_p+0xad4>
80009d7c:	00000013          	nop
80009d80:	bce1a693          	slti	a3,gp,-1074
80009d84:	006410b3          	sll	ra,s0,t1
80009d88:	006410b3          	sll	ra,s0,t1
80009d8c:	40ed8c33          	sub	s8,s11,a4
80009d90:	01d2d863          	bge	t0,t4,80009da0 <sub_2_stack_p+0xab0>
80009d94:	0000100f          	fence.i
80009d98:	00406333          	or	t1,zero,tp
80009d9c:	1d860217          	auipc	tp,0x1d860
80009da0:	015f1093          	slli	ra,t5,0x15
80009da4:	00406333          	or	t1,zero,tp
80009da8:	fb4ee413          	ori	s0,t4,-76
80009dac:	006410b3          	sll	ra,s0,t1
80009db0:	00ee3233          	sltu	tp,t3,a4
80009db4:	00cea633          	slt	a2,t4,a2
80009db8:	4cb37c13          	andi	s8,t1,1227
80009dbc:	0033c233          	xor	tp,t2,gp
80009dc0:	00ee3233          	sltu	tp,t3,a4
80009dc4:	4cb37c13          	andi	s8,t1,1227
80009dc8:	409a5633          	sra	a2,s4,s1
80009dcc:	fb4ee413          	ori	s0,t4,-76
80009dd0:	0ff0000f          	fence
80009dd4:	006410b3          	sll	ra,s0,t1
80009dd8:	b35a3893          	sltiu	a7,s4,-1227
80009ddc:	0033c233          	xor	tp,t2,gp
80009de0:	00000013          	nop
80009de4:	1d860217          	auipc	tp,0x1d860
80009de8:	00406333          	or	t1,zero,tp
80009dec:	015f1093          	slli	ra,t5,0x15
80009df0:	00000013          	nop
80009df4:	006410b3          	sll	ra,s0,t1
80009df8:	00406333          	or	t1,zero,tp
80009dfc:	0000100f          	fence.i
80009e00:	00ee3233          	sltu	tp,t3,a4
80009e04:	00cea633          	slt	a2,t4,a2
80009e08:	05a0e863          	bltu	ra,s10,80009e58 <sub_2_stack_p+0xb68>
80009e0c:	05a0e263          	bltu	ra,s10,80009e50 <sub_2_stack_p+0xb60>
80009e10:	05a0e463          	bltu	ra,s10,80009e58 <sub_2_stack_p+0xb68>
80009e14:	0ff0000f          	fence
80009e18:	01bef5b3          	and	a1,t4,s11
80009e1c:	008c8a63          	beq	s9,s0,80009e30 <sub_2_stack_p+0xb40>
80009e20:	048c8463          	beq	s9,s0,80009e68 <sub_2_stack_p+0xb78>
80009e24:	00ee3233          	sltu	tp,t3,a4
80009e28:	015f1093          	slli	ra,t5,0x15
80009e2c:	1d860217          	auipc	tp,0x1d860
80009e30:	00ee3233          	sltu	tp,t3,a4
80009e34:	03457063          	bgeu	a0,s4,80009e54 <sub_2_stack_p+0xb64>
80009e38:	bce1a693          	slti	a3,gp,-1074
80009e3c:	000706b3          	add	a3,a4,zero
80009e40:	043b4063          	blt	s6,gp,80009e80 <sub_2_stack_p+0xb90>
80009e44:	000706b3          	add	a3,a4,zero
80009e48:	00ee3233          	sltu	tp,t3,a4
80009e4c:	01d2d463          	bge	t0,t4,80009e54 <sub_2_stack_p+0xb64>
80009e50:	4111dd93          	srai	s11,gp,0x11
80009e54:	015ad993          	srli	s3,s5,0x15
80009e58:	b35a3893          	sltiu	a7,s4,-1227
80009e5c:	03d2d463          	bge	t0,t4,80009e84 <sub_2_stack_p+0xb94>
80009e60:	01a0ee63          	bltu	ra,s10,80009e7c <sub_2_stack_p+0xb8c>
80009e64:	00ee3233          	sltu	tp,t3,a4
80009e68:	409a5633          	sra	a2,s4,s1
80009e6c:	015f1093          	slli	ra,t5,0x15
80009e70:	01c4dbb3          	srl	s7,s1,t3
80009e74:	0033c233          	xor	tp,t2,gp
80009e78:	fb4ee413          	ori	s0,t4,-76
80009e7c:	01c4dbb3          	srl	s7,s1,t3
80009e80:	00ee3233          	sltu	tp,t3,a4
80009e84:	00000013          	nop
80009e88:	00000013          	nop
80009e8c:	006410b3          	sll	ra,s0,t1
80009e90:	409a5633          	sra	a2,s4,s1
80009e94:	fb4ee413          	ori	s0,t4,-76
80009e98:	00cea633          	slt	a2,t4,a2
80009e9c:	0ff0000f          	fence
80009ea0:	03457a63          	bgeu	a0,s4,80009ed4 <sub_2_stack_p+0xbe4>
80009ea4:	00cea633          	slt	a2,t4,a2
80009ea8:	4111dd93          	srai	s11,gp,0x11
80009eac:	40ed8c33          	sub	s8,s11,a4
80009eb0:	000706b3          	add	a3,a4,zero
80009eb4:	00406333          	or	t1,zero,tp
80009eb8:	000706b3          	add	a3,a4,zero
80009ebc:	03a0e863          	bltu	ra,s10,80009eec <sub_2_stack_p+0xbfc>
80009ec0:	048c8663          	beq	s9,s0,80009f0c <sub_2_stack_p+0xc1c>
80009ec4:	cc92a0b7          	lui	ra,0xcc92a
80009ec8:	bce1a693          	slti	a3,gp,-1074
80009ecc:	cc92a0b7          	lui	ra,0xcc92a
80009ed0:	20648893          	addi	a7,s1,518
80009ed4:	01d2d463          	bge	t0,t4,80009edc <sub_2_stack_p+0xbec>
80009ed8:	015f1093          	slli	ra,t5,0x15
80009edc:	20648893          	addi	a7,s1,518
80009ee0:	b35a3893          	sltiu	a7,s4,-1227
80009ee4:	5dff4793          	xori	a5,t5,1503
80009ee8:	0000100f          	fence.i
80009eec:	00406333          	or	t1,zero,tp
80009ef0:	01a0e463          	bltu	ra,s10,80009ef8 <sub_2_stack_p+0xc08>
80009ef4:	0000100f          	fence.i
80009ef8:	0000100f          	fence.i
80009efc:	0ff0000f          	fence
80009f00:	006410b3          	sll	ra,s0,t1
80009f04:	0ff0000f          	fence
80009f08:	0033c233          	xor	tp,t2,gp
80009f0c:	4111dd93          	srai	s11,gp,0x11
80009f10:	cc92a0b7          	lui	ra,0xcc92a
80009f14:	cc92a0b7          	lui	ra,0xcc92a
80009f18:	fb4ee413          	ori	s0,t4,-76
80009f1c:	028c8e63          	beq	s9,s0,80009f58 <sub_2_stack_p+0xc68>
80009f20:	006410b3          	sll	ra,s0,t1
80009f24:	cc92a0b7          	lui	ra,0xcc92a
80009f28:	01bef5b3          	and	a1,t4,s11
80009f2c:	01bef5b3          	and	a1,t4,s11
80009f30:	b35a3893          	sltiu	a7,s4,-1227
80009f34:	bce1a693          	slti	a3,gp,-1074
80009f38:	1d860217          	auipc	tp,0x1d860
80009f3c:	cc92a0b7          	lui	ra,0xcc92a
80009f40:	0ff0000f          	fence
80009f44:	4cb37c13          	andi	s8,t1,1227
80009f48:	05a0e263          	bltu	ra,s10,80009f8c <sub_2_stack_p+0xc9c>
80009f4c:	1d860217          	auipc	tp,0x1d860
80009f50:	00406333          	or	t1,zero,tp
80009f54:	00ee3233          	sltu	tp,t3,a4
80009f58:	00406333          	or	t1,zero,tp
80009f5c:	4cb37c13          	andi	s8,t1,1227
80009f60:	03d2d063          	bge	t0,t4,80009f80 <sub_2_stack_p+0xc90>
80009f64:	4111dd93          	srai	s11,gp,0x11
80009f68:	5dff4793          	xori	a5,t5,1503
80009f6c:	05a0e063          	bltu	ra,s10,80009fac <sub_2_stack_p+0xcbc>
80009f70:	0000100f          	fence.i
80009f74:	4111dd93          	srai	s11,gp,0x11
80009f78:	bce1a693          	slti	a3,gp,-1074
80009f7c:	048c8463          	beq	s9,s0,80009fc4 <sub_2_stack_p+0xcd4>
80009f80:	0ff0000f          	fence
80009f84:	4111dd93          	srai	s11,gp,0x11
80009f88:	bce1a693          	slti	a3,gp,-1074
80009f8c:	5dff4793          	xori	a5,t5,1503
80009f90:	4cb37c13          	andi	s8,t1,1227
80009f94:	03a0e863          	bltu	ra,s10,80009fc4 <sub_2_stack_p+0xcd4>
80009f98:	00406333          	or	t1,zero,tp
80009f9c:	000706b3          	add	a3,a4,zero
80009fa0:	05d2d063          	bge	t0,t4,80009fe0 <sub_2_stack_p+0xcf0>
80009fa4:	cc92a0b7          	lui	ra,0xcc92a
80009fa8:	20648893          	addi	a7,s1,518
80009fac:	fb4ee413          	ori	s0,t4,-76
80009fb0:	01c4dbb3          	srl	s7,s1,t3
80009fb4:	00406333          	or	t1,zero,tp
80009fb8:	015f1093          	slli	ra,t5,0x15
80009fbc:	1d860217          	auipc	tp,0x1d860
80009fc0:	1d860217          	auipc	tp,0x1d860
80009fc4:	20648893          	addi	a7,s1,518
80009fc8:	03a0e063          	bltu	ra,s10,80009fe8 <sub_2_stack_p+0xcf8>
80009fcc:	1d860217          	auipc	tp,0x1d860
80009fd0:	bce1a693          	slti	a3,gp,-1074
80009fd4:	00406333          	or	t1,zero,tp
80009fd8:	01bef5b3          	and	a1,t4,s11
80009fdc:	00406333          	or	t1,zero,tp
80009fe0:	4111dd93          	srai	s11,gp,0x11
80009fe4:	0000100f          	fence.i
80009fe8:	fb4ee413          	ori	s0,t4,-76
80009fec:	004e2f83          	lw	t6,4(t3)
80009ff0:	fb4ee413          	ori	s0,t4,-76
80009ff4:	015ad993          	srli	s3,s5,0x15
80009ff8:	01ce0e13          	addi	t3,t3,28
80009ffc:	0ff0000f          	fence
8000a000:	000f8993          	mv	s3,t6
8000a004:	000989e7          	jalr	s3,s3

8000a008 <write_tohost>:
8000a008:	00008f17          	auipc	t5,0x8
8000a00c:	fe3f2c23          	sw	gp,-8(t5) # 80012000 <tohost>

8000a010 <_exit>:
8000a010:	ff9ff06f          	j	8000a008 <write_tohost>

8000a014 <instr_end>:
8000a014:	00000013          	nop

8000a018 <umode_program>:
8000a018:	0ff0000f          	fence
8000a01c:	0000100f          	fence.i
8000a020:	cc92a0b7          	lui	ra,0xcc92a
8000a024:	008c8a63          	beq	s9,s0,8000a038 <umode_program_stack_p>
8000a028:	01bef5b3          	and	a1,t4,s11
8000a02c:	015f1093          	slli	ra,t5,0x15
8000a030:	00406333          	or	t1,zero,tp
8000a034:	b35a3893          	sltiu	a7,s4,-1227

8000a038 <umode_program_stack_p>:
8000a038:	fc8e0e13          	addi	t3,t3,-56
8000a03c:	40ed8c33          	sub	s8,s11,a4
8000a040:	01fe2223          	sw	t6,4(t3)
8000a044:	fb4ee413          	ori	s0,t4,-76
8000a048:	20648893          	addi	a7,s1,518
8000a04c:	20648893          	addi	a7,s1,518
8000a050:	0000100f          	fence.i
8000a054:	00cea633          	slt	a2,t4,a2
8000a058:	01c4dbb3          	srl	s7,s1,t3
8000a05c:	cc92a0b7          	lui	ra,0xcc92a
8000a060:	0033c233          	xor	tp,t2,gp
8000a064:	00cea633          	slt	a2,t4,a2
8000a068:	00406333          	or	t1,zero,tp
8000a06c:	058d1063          	bne	s10,s8,8000a0ac <umode_program_stack_p+0x74>
8000a070:	00406333          	or	t1,zero,tp
8000a074:	00ee3233          	sltu	tp,t3,a4
8000a078:	bce1a693          	slti	a3,gp,-1074
8000a07c:	00406333          	or	t1,zero,tp
8000a080:	01bef5b3          	and	a1,t4,s11
8000a084:	008c8463          	beq	s9,s0,8000a08c <umode_program_stack_p+0x54>
8000a088:	015ad993          	srli	s3,s5,0x15
8000a08c:	20648893          	addi	a7,s1,518
8000a090:	4cb37c13          	andi	s8,t1,1227
8000a094:	0033c233          	xor	tp,t2,gp
8000a098:	015ad993          	srli	s3,s5,0x15
8000a09c:	00ee3233          	sltu	tp,t3,a4
8000a0a0:	bce1a693          	slti	a3,gp,-1074
8000a0a4:	015f1093          	slli	ra,t5,0x15
8000a0a8:	00cea633          	slt	a2,t4,a2
8000a0ac:	20648893          	addi	a7,s1,518
8000a0b0:	4cb37c13          	andi	s8,t1,1227
8000a0b4:	01d2da63          	bge	t0,t4,8000a0c8 <umode_program_stack_p+0x90>
8000a0b8:	5dff4793          	xori	a5,t5,1503
8000a0bc:	0ff0000f          	fence
8000a0c0:	01457a63          	bgeu	a0,s4,8000a0d4 <umode_program_stack_p+0x9c>
8000a0c4:	01bef5b3          	and	a1,t4,s11
8000a0c8:	01bef5b3          	and	a1,t4,s11
8000a0cc:	000706b3          	add	a3,a4,zero
8000a0d0:	00406333          	or	t1,zero,tp
8000a0d4:	000706b3          	add	a3,a4,zero
8000a0d8:	0000100f          	fence.i
8000a0dc:	cc92a0b7          	lui	ra,0xcc92a
8000a0e0:	0033c233          	xor	tp,t2,gp
8000a0e4:	00cea633          	slt	a2,t4,a2
8000a0e8:	03a0e463          	bltu	ra,s10,8000a110 <umode_program_stack_p+0xd8>
8000a0ec:	01c4dbb3          	srl	s7,s1,t3
8000a0f0:	05d2d863          	bge	t0,t4,8000a140 <umode_program_stack_p+0x108>
8000a0f4:	5dff4793          	xori	a5,t5,1503
8000a0f8:	bce1a693          	slti	a3,gp,-1074
8000a0fc:	4111dd93          	srai	s11,gp,0x11
8000a100:	4111dd93          	srai	s11,gp,0x11
8000a104:	038d1663          	bne	s10,s8,8000a130 <umode_program_stack_p+0xf8>
8000a108:	b35a3893          	sltiu	a7,s4,-1227
8000a10c:	1d860217          	auipc	tp,0x1d860
8000a110:	05457063          	bgeu	a0,s4,8000a150 <umode_program_stack_p+0x118>
8000a114:	cc92a0b7          	lui	ra,0xcc92a
8000a118:	00406333          	or	t1,zero,tp
8000a11c:	0033c233          	xor	tp,t2,gp
8000a120:	00406333          	or	t1,zero,tp
8000a124:	20648893          	addi	a7,s1,518
8000a128:	409a5633          	sra	a2,s4,s1
8000a12c:	bce1a693          	slti	a3,gp,-1074
8000a130:	b35a3893          	sltiu	a7,s4,-1227
8000a134:	5dff4793          	xori	a5,t5,1503
8000a138:	015ad993          	srli	s3,s5,0x15
8000a13c:	1d860217          	auipc	tp,0x1d860
8000a140:	00406333          	or	t1,zero,tp
8000a144:	4cb37c13          	andi	s8,t1,1227
8000a148:	01c4dbb3          	srl	s7,s1,t3
8000a14c:	0033c233          	xor	tp,t2,gp
8000a150:	03d2d063          	bge	t0,t4,8000a170 <umode_program_stack_p+0x138>
8000a154:	01457663          	bgeu	a0,s4,8000a160 <umode_program_stack_p+0x128>
8000a158:	018d1863          	bne	s10,s8,8000a168 <umode_program_stack_p+0x130>
8000a15c:	cc92a0b7          	lui	ra,0xcc92a
8000a160:	00000013          	nop
8000a164:	01c4dbb3          	srl	s7,s1,t3
8000a168:	05457063          	bgeu	a0,s4,8000a1a8 <umode_program_stack_p+0x170>
8000a16c:	20648893          	addi	a7,s1,518
8000a170:	409a5633          	sra	a2,s4,s1
8000a174:	01c4dbb3          	srl	s7,s1,t3
8000a178:	40ed8c33          	sub	s8,s11,a4
8000a17c:	40ed8c33          	sub	s8,s11,a4
8000a180:	015f1093          	slli	ra,t5,0x15
8000a184:	00406333          	or	t1,zero,tp
8000a188:	01c4dbb3          	srl	s7,s1,t3
8000a18c:	409a5633          	sra	a2,s4,s1
8000a190:	b35a3893          	sltiu	a7,s4,-1227
8000a194:	023b4a63          	blt	s6,gp,8000a1c8 <umode_program_stack_p+0x190>
8000a198:	bce1a693          	slti	a3,gp,-1074
8000a19c:	018d1663          	bne	s10,s8,8000a1a8 <umode_program_stack_p+0x170>
8000a1a0:	fb4ee413          	ori	s0,t4,-76
8000a1a4:	03457463          	bgeu	a0,s4,8000a1cc <umode_program_stack_p+0x194>
8000a1a8:	01bef5b3          	and	a1,t4,s11
8000a1ac:	1d860217          	auipc	tp,0x1d860
8000a1b0:	01d2d663          	bge	t0,t4,8000a1bc <umode_program_stack_p+0x184>
8000a1b4:	028c8c63          	beq	s9,s0,8000a1ec <umode_program_stack_p+0x1b4>
8000a1b8:	03d2d663          	bge	t0,t4,8000a1e4 <umode_program_stack_p+0x1ac>
8000a1bc:	01457863          	bgeu	a0,s4,8000a1cc <umode_program_stack_p+0x194>
8000a1c0:	409a5633          	sra	a2,s4,s1
8000a1c4:	023b4663          	blt	s6,gp,8000a1f0 <umode_program_stack_p+0x1b8>
8000a1c8:	00406333          	or	t1,zero,tp
8000a1cc:	cc92a0b7          	lui	ra,0xcc92a
8000a1d0:	1d860217          	auipc	tp,0x1d860
8000a1d4:	40ed8c33          	sub	s8,s11,a4
8000a1d8:	5dff4793          	xori	a5,t5,1503
8000a1dc:	20648893          	addi	a7,s1,518
8000a1e0:	20648893          	addi	a7,s1,518
8000a1e4:	00406333          	or	t1,zero,tp
8000a1e8:	00cea633          	slt	a2,t4,a2
8000a1ec:	00406333          	or	t1,zero,tp
8000a1f0:	01d2de63          	bge	t0,t4,8000a20c <umode_program_stack_p+0x1d4>
8000a1f4:	015ad993          	srli	s3,s5,0x15
8000a1f8:	4cb37c13          	andi	s8,t1,1227
8000a1fc:	409a5633          	sra	a2,s4,s1
8000a200:	03d2d263          	bge	t0,t4,8000a224 <umode_program_stack_p+0x1ec>
8000a204:	00cea633          	slt	a2,t4,a2
8000a208:	1d860217          	auipc	tp,0x1d860
8000a20c:	40ed8c33          	sub	s8,s11,a4
8000a210:	0ff0000f          	fence
8000a214:	00ee3233          	sltu	tp,t3,a4
8000a218:	00cea633          	slt	a2,t4,a2
8000a21c:	4111dd93          	srai	s11,gp,0x11
8000a220:	cc92a0b7          	lui	ra,0xcc92a
8000a224:	00000013          	nop
8000a228:	bce1a693          	slti	a3,gp,-1074
8000a22c:	0000100f          	fence.i
8000a230:	01bef5b3          	and	a1,t4,s11
8000a234:	1d860217          	auipc	tp,0x1d860
8000a238:	00cea633          	slt	a2,t4,a2
8000a23c:	5dff4793          	xori	a5,t5,1503
8000a240:	4cb37c13          	andi	s8,t1,1227
8000a244:	b35a3893          	sltiu	a7,s4,-1227
8000a248:	0ff0000f          	fence
8000a24c:	5dff4793          	xori	a5,t5,1503
8000a250:	015ad993          	srli	s3,s5,0x15
8000a254:	00cea633          	slt	a2,t4,a2
8000a258:	0000100f          	fence.i
8000a25c:	006410b3          	sll	ra,s0,t1
8000a260:	00cea633          	slt	a2,t4,a2
8000a264:	40ed8c33          	sub	s8,s11,a4
8000a268:	bce1a693          	slti	a3,gp,-1074
8000a26c:	018d1863          	bne	s10,s8,8000a27c <umode_program_stack_p+0x244>
8000a270:	01bef5b3          	and	a1,t4,s11
8000a274:	409a5633          	sra	a2,s4,s1
8000a278:	cc92a0b7          	lui	ra,0xcc92a
8000a27c:	038d1263          	bne	s10,s8,8000a2a0 <umode_program_stack_p+0x268>
8000a280:	01457863          	bgeu	a0,s4,8000a290 <umode_program_stack_p+0x258>
8000a284:	1d860217          	auipc	tp,0x1d860
8000a288:	01457c63          	bgeu	a0,s4,8000a2a0 <umode_program_stack_p+0x268>
8000a28c:	b35a3893          	sltiu	a7,s4,-1227
8000a290:	006410b3          	sll	ra,s0,t1
8000a294:	003b4463          	blt	s6,gp,8000a29c <umode_program_stack_p+0x264>
8000a298:	0ff0000f          	fence
8000a29c:	4cb37c13          	andi	s8,t1,1227
8000a2a0:	006410b3          	sll	ra,s0,t1
8000a2a4:	b35a3893          	sltiu	a7,s4,-1227
8000a2a8:	05a0e863          	bltu	ra,s10,8000a2f8 <umode_program_stack_p+0x2c0>
8000a2ac:	00000013          	nop
8000a2b0:	40ed8c33          	sub	s8,s11,a4
8000a2b4:	000706b3          	add	a3,a4,zero
8000a2b8:	bce1a693          	slti	a3,gp,-1074
8000a2bc:	00406333          	or	t1,zero,tp
8000a2c0:	01a0ee63          	bltu	ra,s10,8000a2dc <umode_program_stack_p+0x2a4>
8000a2c4:	05457463          	bgeu	a0,s4,8000a30c <umode_program_stack_p+0x2d4>
8000a2c8:	00000013          	nop
8000a2cc:	008c8663          	beq	s9,s0,8000a2d8 <umode_program_stack_p+0x2a0>
8000a2d0:	5dff4793          	xori	a5,t5,1503
8000a2d4:	4cb37c13          	andi	s8,t1,1227
8000a2d8:	028c8663          	beq	s9,s0,8000a304 <umode_program_stack_p+0x2cc>
8000a2dc:	01c4dbb3          	srl	s7,s1,t3
8000a2e0:	05457063          	bgeu	a0,s4,8000a320 <umode_program_stack_p+0x2e8>
8000a2e4:	4cb37c13          	andi	s8,t1,1227
8000a2e8:	015f1093          	slli	ra,t5,0x15
8000a2ec:	5dff4793          	xori	a5,t5,1503
8000a2f0:	20648893          	addi	a7,s1,518
8000a2f4:	b35a3893          	sltiu	a7,s4,-1227
8000a2f8:	0ff0000f          	fence
8000a2fc:	01d2d863          	bge	t0,t4,8000a30c <umode_program_stack_p+0x2d4>
8000a300:	006410b3          	sll	ra,s0,t1
8000a304:	023b4663          	blt	s6,gp,8000a330 <umode_program_stack_p+0x2f8>
8000a308:	015ad993          	srli	s3,s5,0x15
8000a30c:	01c4dbb3          	srl	s7,s1,t3
8000a310:	003b4863          	blt	s6,gp,8000a320 <umode_program_stack_p+0x2e8>
8000a314:	20648893          	addi	a7,s1,518
8000a318:	028c8c63          	beq	s9,s0,8000a350 <umode_program_stack_p+0x318>
8000a31c:	4cb37c13          	andi	s8,t1,1227
8000a320:	023b4063          	blt	s6,gp,8000a340 <umode_program_stack_p+0x308>
8000a324:	01d2d863          	bge	t0,t4,8000a334 <umode_program_stack_p+0x2fc>
8000a328:	409a5633          	sra	a2,s4,s1
8000a32c:	0033c233          	xor	tp,t2,gp
8000a330:	0000100f          	fence.i
8000a334:	bce1a693          	slti	a3,gp,-1074
8000a338:	023b4263          	blt	s6,gp,8000a35c <umode_program_stack_p+0x324>
8000a33c:	01457e63          	bgeu	a0,s4,8000a358 <umode_program_stack_p+0x320>
8000a340:	015ad993          	srli	s3,s5,0x15
8000a344:	bce1a693          	slti	a3,gp,-1074
8000a348:	01c4dbb3          	srl	s7,s1,t3
8000a34c:	0ff0000f          	fence
8000a350:	20648893          	addi	a7,s1,518
8000a354:	00406333          	or	t1,zero,tp
8000a358:	006410b3          	sll	ra,s0,t1
8000a35c:	043b4463          	blt	s6,gp,8000a3a4 <umode_program_stack_p+0x36c>
8000a360:	000706b3          	add	a3,a4,zero
8000a364:	0000100f          	fence.i
8000a368:	03457463          	bgeu	a0,s4,8000a390 <umode_program_stack_p+0x358>
8000a36c:	015ad993          	srli	s3,s5,0x15
8000a370:	1d860217          	auipc	tp,0x1d860
8000a374:	cc92a0b7          	lui	ra,0xcc92a
8000a378:	20648893          	addi	a7,s1,518
8000a37c:	20648893          	addi	a7,s1,518
8000a380:	bce1a693          	slti	a3,gp,-1074
8000a384:	048c8063          	beq	s9,s0,8000a3c4 <umode_program_stack_p+0x38c>
8000a388:	4cb37c13          	andi	s8,t1,1227
8000a38c:	028c8663          	beq	s9,s0,8000a3b8 <umode_program_stack_p+0x380>
8000a390:	003b4863          	blt	s6,gp,8000a3a0 <umode_program_stack_p+0x368>
8000a394:	00cea633          	slt	a2,t4,a2
8000a398:	cc92a0b7          	lui	ra,0xcc92a
8000a39c:	01bef5b3          	and	a1,t4,s11
8000a3a0:	018d1a63          	bne	s10,s8,8000a3b4 <umode_program_stack_p+0x37c>
8000a3a4:	0033c233          	xor	tp,t2,gp
8000a3a8:	00406333          	or	t1,zero,tp
8000a3ac:	4cb37c13          	andi	s8,t1,1227
8000a3b0:	0ff0000f          	fence
8000a3b4:	b35a3893          	sltiu	a7,s4,-1227
8000a3b8:	4cb37c13          	andi	s8,t1,1227
8000a3bc:	01457463          	bgeu	a0,s4,8000a3c4 <umode_program_stack_p+0x38c>
8000a3c0:	bce1a693          	slti	a3,gp,-1074
8000a3c4:	4cb37c13          	andi	s8,t1,1227
8000a3c8:	00406333          	or	t1,zero,tp
8000a3cc:	03457463          	bgeu	a0,s4,8000a3f4 <umode_program_stack_p+0x3bc>
8000a3d0:	1d860217          	auipc	tp,0x1d860
8000a3d4:	0000100f          	fence.i
8000a3d8:	0033c233          	xor	tp,t2,gp
8000a3dc:	000706b3          	add	a3,a4,zero
8000a3e0:	015f1093          	slli	ra,t5,0x15
8000a3e4:	00406333          	or	t1,zero,tp
8000a3e8:	01c4dbb3          	srl	s7,s1,t3
8000a3ec:	0033c233          	xor	tp,t2,gp
8000a3f0:	1d860217          	auipc	tp,0x1d860
8000a3f4:	01a0ea63          	bltu	ra,s10,8000a408 <umode_program_stack_p+0x3d0>
8000a3f8:	20648893          	addi	a7,s1,518
8000a3fc:	018d1e63          	bne	s10,s8,8000a418 <umode_program_stack_p+0x3e0>
8000a400:	40ed8c33          	sub	s8,s11,a4
8000a404:	bce1a693          	slti	a3,gp,-1074
8000a408:	00ee3233          	sltu	tp,t3,a4
8000a40c:	cc92a0b7          	lui	ra,0xcc92a
8000a410:	00000013          	nop
8000a414:	0000100f          	fence.i
8000a418:	0ff0000f          	fence
8000a41c:	048c8863          	beq	s9,s0,8000a46c <umode_program_stack_p+0x434>
8000a420:	409a5633          	sra	a2,s4,s1
8000a424:	01d2d663          	bge	t0,t4,8000a430 <umode_program_stack_p+0x3f8>
8000a428:	015f1093          	slli	ra,t5,0x15
8000a42c:	0000100f          	fence.i
8000a430:	1d860217          	auipc	tp,0x1d860
8000a434:	015ad993          	srli	s3,s5,0x15
8000a438:	00406333          	or	t1,zero,tp
8000a43c:	01c4dbb3          	srl	s7,s1,t3
8000a440:	03457a63          	bgeu	a0,s4,8000a474 <umode_program_stack_p+0x43c>
8000a444:	0ff0000f          	fence
8000a448:	00406333          	or	t1,zero,tp
8000a44c:	cc92a0b7          	lui	ra,0xcc92a
8000a450:	0ff0000f          	fence
8000a454:	00cea633          	slt	a2,t4,a2
8000a458:	0000100f          	fence.i
8000a45c:	0ff0000f          	fence
8000a460:	0ff0000f          	fence
8000a464:	006410b3          	sll	ra,s0,t1
8000a468:	043b4863          	blt	s6,gp,8000a4b8 <umode_program_stack_p+0x480>
8000a46c:	cc92a0b7          	lui	ra,0xcc92a
8000a470:	0033c233          	xor	tp,t2,gp
8000a474:	0033c233          	xor	tp,t2,gp
8000a478:	00ee3233          	sltu	tp,t3,a4
8000a47c:	00ee3233          	sltu	tp,t3,a4
8000a480:	01a0ec63          	bltu	ra,s10,8000a498 <umode_program_stack_p+0x460>
8000a484:	0033c233          	xor	tp,t2,gp
8000a488:	01bef5b3          	and	a1,t4,s11
8000a48c:	1d860217          	auipc	tp,0x1d860
8000a490:	01bef5b3          	and	a1,t4,s11
8000a494:	0000100f          	fence.i
8000a498:	bce1a693          	slti	a3,gp,-1074
8000a49c:	4111dd93          	srai	s11,gp,0x11
8000a4a0:	00cea633          	slt	a2,t4,a2
8000a4a4:	015f1093          	slli	ra,t5,0x15
8000a4a8:	023b4263          	blt	s6,gp,8000a4cc <umode_program_stack_p+0x494>
8000a4ac:	20648893          	addi	a7,s1,518
8000a4b0:	015f1093          	slli	ra,t5,0x15
8000a4b4:	0000100f          	fence.i
8000a4b8:	40ed8c33          	sub	s8,s11,a4
8000a4bc:	0033c233          	xor	tp,t2,gp
8000a4c0:	048c8063          	beq	s9,s0,8000a500 <umode_program_stack_p+0x4c8>
8000a4c4:	0000100f          	fence.i
8000a4c8:	4111dd93          	srai	s11,gp,0x11
8000a4cc:	015f1093          	slli	ra,t5,0x15
8000a4d0:	01457463          	bgeu	a0,s4,8000a4d8 <umode_program_stack_p+0x4a0>
8000a4d4:	20648893          	addi	a7,s1,518
8000a4d8:	20648893          	addi	a7,s1,518
8000a4dc:	0033c233          	xor	tp,t2,gp
8000a4e0:	00cea633          	slt	a2,t4,a2
8000a4e4:	b35a3893          	sltiu	a7,s4,-1227
8000a4e8:	4111dd93          	srai	s11,gp,0x11
8000a4ec:	0033c233          	xor	tp,t2,gp
8000a4f0:	00cea633          	slt	a2,t4,a2
8000a4f4:	008c8663          	beq	s9,s0,8000a500 <umode_program_stack_p+0x4c8>
8000a4f8:	00cea633          	slt	a2,t4,a2
8000a4fc:	bce1a693          	slti	a3,gp,-1074
8000a500:	1d860217          	auipc	tp,0x1d860
8000a504:	bce1a693          	slti	a3,gp,-1074
8000a508:	1d860217          	auipc	tp,0x1d860
8000a50c:	20648893          	addi	a7,s1,518
8000a510:	00ee3233          	sltu	tp,t3,a4
8000a514:	01bef5b3          	and	a1,t4,s11
8000a518:	01457663          	bgeu	a0,s4,8000a524 <umode_program_stack_p+0x4ec>
8000a51c:	bce1a693          	slti	a3,gp,-1074
8000a520:	4cb37c13          	andi	s8,t1,1227
8000a524:	00406333          	or	t1,zero,tp
8000a528:	015f1093          	slli	ra,t5,0x15
8000a52c:	006410b3          	sll	ra,s0,t1
8000a530:	03a0e263          	bltu	ra,s10,8000a554 <umode_program_stack_p+0x51c>
8000a534:	5dff4793          	xori	a5,t5,1503
8000a538:	409a5633          	sra	a2,s4,s1
8000a53c:	0033c233          	xor	tp,t2,gp
8000a540:	0ff0000f          	fence
8000a544:	20648893          	addi	a7,s1,518
8000a548:	015ad993          	srli	s3,s5,0x15
8000a54c:	0000100f          	fence.i
8000a550:	409a5633          	sra	a2,s4,s1
8000a554:	bce1a693          	slti	a3,gp,-1074
8000a558:	bce1a693          	slti	a3,gp,-1074
8000a55c:	00000013          	nop
8000a560:	03457663          	bgeu	a0,s4,8000a58c <umode_program_stack_p+0x554>
8000a564:	409a5633          	sra	a2,s4,s1
8000a568:	40ed8c33          	sub	s8,s11,a4
8000a56c:	003b4863          	blt	s6,gp,8000a57c <umode_program_stack_p+0x544>
8000a570:	015ad993          	srli	s3,s5,0x15
8000a574:	015ad993          	srli	s3,s5,0x15
8000a578:	00cea633          	slt	a2,t4,a2
8000a57c:	00cea633          	slt	a2,t4,a2
8000a580:	05d2d863          	bge	t0,t4,8000a5d0 <umode_program_stack_p+0x598>
8000a584:	4cb37c13          	andi	s8,t1,1227
8000a588:	023b4a63          	blt	s6,gp,8000a5bc <umode_program_stack_p+0x584>
8000a58c:	bce1a693          	slti	a3,gp,-1074
8000a590:	01c4dbb3          	srl	s7,s1,t3
8000a594:	01a0e863          	bltu	ra,s10,8000a5a4 <umode_program_stack_p+0x56c>
8000a598:	01bef5b3          	and	a1,t4,s11
8000a59c:	b35a3893          	sltiu	a7,s4,-1227
8000a5a0:	0033c233          	xor	tp,t2,gp
8000a5a4:	0033c233          	xor	tp,t2,gp
8000a5a8:	20648893          	addi	a7,s1,518
8000a5ac:	40ed8c33          	sub	s8,s11,a4
8000a5b0:	03457063          	bgeu	a0,s4,8000a5d0 <umode_program_stack_p+0x598>
8000a5b4:	40ed8c33          	sub	s8,s11,a4
8000a5b8:	fb4ee413          	ori	s0,t4,-76
8000a5bc:	038d1c63          	bne	s10,s8,8000a5f4 <umode_program_stack_p+0x5bc>
8000a5c0:	003b4e63          	blt	s6,gp,8000a5dc <umode_program_stack_p+0x5a4>
8000a5c4:	00ee3233          	sltu	tp,t3,a4
8000a5c8:	0033c233          	xor	tp,t2,gp
8000a5cc:	058d1063          	bne	s10,s8,8000a60c <umode_program_stack_p+0x5d4>
8000a5d0:	00ee3233          	sltu	tp,t3,a4
8000a5d4:	b35a3893          	sltiu	a7,s4,-1227
8000a5d8:	4cb37c13          	andi	s8,t1,1227
8000a5dc:	4111dd93          	srai	s11,gp,0x11
8000a5e0:	409a5633          	sra	a2,s4,s1
8000a5e4:	01a0e463          	bltu	ra,s10,8000a5ec <umode_program_stack_p+0x5b4>
8000a5e8:	01c4dbb3          	srl	s7,s1,t3
8000a5ec:	bce1a693          	slti	a3,gp,-1074
8000a5f0:	409a5633          	sra	a2,s4,s1
8000a5f4:	0033c233          	xor	tp,t2,gp
8000a5f8:	4cb37c13          	andi	s8,t1,1227
8000a5fc:	00406333          	or	t1,zero,tp
8000a600:	fb4ee413          	ori	s0,t4,-76
8000a604:	cc92a0b7          	lui	ra,0xcc92a
8000a608:	01457c63          	bgeu	a0,s4,8000a620 <umode_program_stack_p+0x5e8>
8000a60c:	00000013          	nop
8000a610:	409a5633          	sra	a2,s4,s1
8000a614:	00cea633          	slt	a2,t4,a2
8000a618:	0ff0000f          	fence
8000a61c:	015ad993          	srli	s3,s5,0x15
8000a620:	000706b3          	add	a3,a4,zero
8000a624:	409a5633          	sra	a2,s4,s1
8000a628:	00ee3233          	sltu	tp,t3,a4
8000a62c:	01d2da63          	bge	t0,t4,8000a640 <umode_program_stack_p+0x608>
8000a630:	00000013          	nop
8000a634:	015f1093          	slli	ra,t5,0x15
8000a638:	006410b3          	sll	ra,s0,t1
8000a63c:	03a0e463          	bltu	ra,s10,8000a664 <umode_program_stack_p+0x62c>
8000a640:	b35a3893          	sltiu	a7,s4,-1227
8000a644:	409a5633          	sra	a2,s4,s1
8000a648:	03a0e663          	bltu	ra,s10,8000a674 <umode_program_stack_p+0x63c>
8000a64c:	cc92a0b7          	lui	ra,0xcc92a
8000a650:	0033c233          	xor	tp,t2,gp
8000a654:	4111dd93          	srai	s11,gp,0x11
8000a658:	00406333          	or	t1,zero,tp
8000a65c:	5dff4793          	xori	a5,t5,1503
8000a660:	cc92a0b7          	lui	ra,0xcc92a
8000a664:	006410b3          	sll	ra,s0,t1
8000a668:	01a0ea63          	bltu	ra,s10,8000a67c <umode_program_stack_p+0x644>
8000a66c:	006410b3          	sll	ra,s0,t1
8000a670:	40ed8c33          	sub	s8,s11,a4
8000a674:	01bef5b3          	and	a1,t4,s11
8000a678:	000706b3          	add	a3,a4,zero
8000a67c:	409a5633          	sra	a2,s4,s1
8000a680:	fb4ee413          	ori	s0,t4,-76
8000a684:	cc92a0b7          	lui	ra,0xcc92a
8000a688:	004e2f83          	lw	t6,4(t3)
8000a68c:	5dff4793          	xori	a5,t5,1503
8000a690:	01bef5b3          	and	a1,t4,s11
8000a694:	fb4ee413          	ori	s0,t4,-76
8000a698:	00000013          	nop
8000a69c:	015f1093          	slli	ra,t5,0x15
8000a6a0:	038e0e13          	addi	t3,t3,56
8000a6a4:	0ff0000f          	fence
8000a6a8:	20648893          	addi	a7,s1,518
8000a6ac:	b35a3893          	sltiu	a7,s4,-1227
8000a6b0:	bce1a693          	slti	a3,gp,-1074
8000a6b4:	000f8993          	mv	s3,t6
8000a6b8:	000989e7          	jalr	s3,s3

8000a6bc <smode_program>:
8000a6bc:	01c4dbb3          	srl	s7,s1,t3
8000a6c0:	5dff4793          	xori	a5,t5,1503
8000a6c4:	fb4ee413          	ori	s0,t4,-76
8000a6c8:	01a0e663          	bltu	ra,s10,8000a6d4 <smode_program_stack_p>
8000a6cc:	5dff4793          	xori	a5,t5,1503
8000a6d0:	0033c233          	xor	tp,t2,gp

8000a6d4 <smode_program_stack_p>:
8000a6d4:	fd0e0e13          	addi	t3,t3,-48
8000a6d8:	20648893          	addi	a7,s1,518
8000a6dc:	cc92a0b7          	lui	ra,0xcc92a
8000a6e0:	4111dd93          	srai	s11,gp,0x11
8000a6e4:	0000100f          	fence.i
8000a6e8:	01fe2223          	sw	t6,4(t3)
8000a6ec:	000706b3          	add	a3,a4,zero
8000a6f0:	015ad993          	srli	s3,s5,0x15
8000a6f4:	05d2d663          	bge	t0,t4,8000a740 <smode_program_stack_p+0x6c>
8000a6f8:	4111dd93          	srai	s11,gp,0x11
8000a6fc:	00000013          	nop
8000a700:	cc92a0b7          	lui	ra,0xcc92a
8000a704:	fb4ee413          	ori	s0,t4,-76
8000a708:	023b4063          	blt	s6,gp,8000a728 <smode_program_stack_p+0x54>
8000a70c:	03a0ee63          	bltu	ra,s10,8000a748 <smode_program_stack_p+0x74>
8000a710:	bce1a693          	slti	a3,gp,-1074
8000a714:	20648893          	addi	a7,s1,518
8000a718:	015ad993          	srli	s3,s5,0x15
8000a71c:	015ad993          	srli	s3,s5,0x15
8000a720:	b35a3893          	sltiu	a7,s4,-1227
8000a724:	0ff0000f          	fence
8000a728:	01bef5b3          	and	a1,t4,s11
8000a72c:	b35a3893          	sltiu	a7,s4,-1227
8000a730:	5dff4793          	xori	a5,t5,1503
8000a734:	0000100f          	fence.i
8000a738:	cc92a0b7          	lui	ra,0xcc92a
8000a73c:	015f1093          	slli	ra,t5,0x15
8000a740:	bce1a693          	slti	a3,gp,-1074
8000a744:	1d860217          	auipc	tp,0x1d860
8000a748:	05d2d063          	bge	t0,t4,8000a788 <smode_program_stack_p+0xb4>
8000a74c:	05457663          	bgeu	a0,s4,8000a798 <smode_program_stack_p+0xc4>
8000a750:	fb4ee413          	ori	s0,t4,-76
8000a754:	0ff0000f          	fence
8000a758:	015f1093          	slli	ra,t5,0x15
8000a75c:	4111dd93          	srai	s11,gp,0x11
8000a760:	1d860217          	auipc	tp,0x1d860
8000a764:	bce1a693          	slti	a3,gp,-1074
8000a768:	015f1093          	slli	ra,t5,0x15
8000a76c:	000706b3          	add	a3,a4,zero
8000a770:	4111dd93          	srai	s11,gp,0x11
8000a774:	023b4063          	blt	s6,gp,8000a794 <smode_program_stack_p+0xc0>
8000a778:	023b4463          	blt	s6,gp,8000a7a0 <smode_program_stack_p+0xcc>
8000a77c:	0033c233          	xor	tp,t2,gp
8000a780:	00000013          	nop
8000a784:	006410b3          	sll	ra,s0,t1
8000a788:	01c4dbb3          	srl	s7,s1,t3
8000a78c:	4111dd93          	srai	s11,gp,0x11
8000a790:	01457263          	bgeu	a0,s4,8000a794 <smode_program_stack_p+0xc0>
8000a794:	01bef5b3          	and	a1,t4,s11
8000a798:	409a5633          	sra	a2,s4,s1
8000a79c:	03d2d463          	bge	t0,t4,8000a7c4 <smode_program_stack_p+0xf0>
8000a7a0:	0033c233          	xor	tp,t2,gp
8000a7a4:	01bef5b3          	and	a1,t4,s11
8000a7a8:	000706b3          	add	a3,a4,zero
8000a7ac:	5dff4793          	xori	a5,t5,1503
8000a7b0:	015ad993          	srli	s3,s5,0x15
8000a7b4:	01bef5b3          	and	a1,t4,s11
8000a7b8:	015ad993          	srli	s3,s5,0x15
8000a7bc:	048c8863          	beq	s9,s0,8000a80c <smode_program_stack_p+0x138>
8000a7c0:	00406333          	or	t1,zero,tp
8000a7c4:	0000100f          	fence.i
8000a7c8:	20648893          	addi	a7,s1,518
8000a7cc:	409a5633          	sra	a2,s4,s1
8000a7d0:	4cb37c13          	andi	s8,t1,1227
8000a7d4:	05d2d463          	bge	t0,t4,8000a81c <smode_program_stack_p+0x148>
8000a7d8:	015f1093          	slli	ra,t5,0x15
8000a7dc:	018d1863          	bne	s10,s8,8000a7ec <smode_program_stack_p+0x118>
8000a7e0:	4111dd93          	srai	s11,gp,0x11
8000a7e4:	01bef5b3          	and	a1,t4,s11
8000a7e8:	038d1e63          	bne	s10,s8,8000a824 <smode_program_stack_p+0x150>
8000a7ec:	0ff0000f          	fence
8000a7f0:	fb4ee413          	ori	s0,t4,-76
8000a7f4:	05457263          	bgeu	a0,s4,8000a838 <smode_program_stack_p+0x164>
8000a7f8:	4111dd93          	srai	s11,gp,0x11
8000a7fc:	00406333          	or	t1,zero,tp
8000a800:	0000100f          	fence.i
8000a804:	5dff4793          	xori	a5,t5,1503
8000a808:	00000013          	nop
8000a80c:	fb4ee413          	ori	s0,t4,-76
8000a810:	03d2da63          	bge	t0,t4,8000a844 <smode_program_stack_p+0x170>
8000a814:	015f1093          	slli	ra,t5,0x15
8000a818:	0033c233          	xor	tp,t2,gp
8000a81c:	bce1a693          	slti	a3,gp,-1074
8000a820:	006410b3          	sll	ra,s0,t1
8000a824:	00ee3233          	sltu	tp,t3,a4
8000a828:	00000013          	nop
8000a82c:	409a5633          	sra	a2,s4,s1
8000a830:	00cea633          	slt	a2,t4,a2
8000a834:	006410b3          	sll	ra,s0,t1
8000a838:	409a5633          	sra	a2,s4,s1
8000a83c:	006410b3          	sll	ra,s0,t1
8000a840:	4cb37c13          	andi	s8,t1,1227
8000a844:	043b4263          	blt	s6,gp,8000a888 <smode_program_stack_p+0x1b4>
8000a848:	00cea633          	slt	a2,t4,a2
8000a84c:	01457663          	bgeu	a0,s4,8000a858 <smode_program_stack_p+0x184>
8000a850:	5dff4793          	xori	a5,t5,1503
8000a854:	fb4ee413          	ori	s0,t4,-76
8000a858:	006410b3          	sll	ra,s0,t1
8000a85c:	00ee3233          	sltu	tp,t3,a4
8000a860:	01c4dbb3          	srl	s7,s1,t3
8000a864:	1d860217          	auipc	tp,0x1d860
8000a868:	20648893          	addi	a7,s1,518
8000a86c:	4111dd93          	srai	s11,gp,0x11
8000a870:	0ff0000f          	fence
8000a874:	00000013          	nop
8000a878:	015f1093          	slli	ra,t5,0x15
8000a87c:	20648893          	addi	a7,s1,518
8000a880:	000706b3          	add	a3,a4,zero
8000a884:	00cea633          	slt	a2,t4,a2
8000a888:	003b4c63          	blt	s6,gp,8000a8a0 <smode_program_stack_p+0x1cc>
8000a88c:	048c8263          	beq	s9,s0,8000a8d0 <smode_program_stack_p+0x1fc>
8000a890:	cc92a0b7          	lui	ra,0xcc92a
8000a894:	0000100f          	fence.i
8000a898:	000706b3          	add	a3,a4,zero
8000a89c:	00ee3233          	sltu	tp,t3,a4
8000a8a0:	03d2d663          	bge	t0,t4,8000a8cc <smode_program_stack_p+0x1f8>
8000a8a4:	006410b3          	sll	ra,s0,t1
8000a8a8:	1d860217          	auipc	tp,0x1d860
8000a8ac:	4cb37c13          	andi	s8,t1,1227
8000a8b0:	b35a3893          	sltiu	a7,s4,-1227
8000a8b4:	03a0e663          	bltu	ra,s10,8000a8e0 <smode_program_stack_p+0x20c>
8000a8b8:	038d1863          	bne	s10,s8,8000a8e8 <smode_program_stack_p+0x214>
8000a8bc:	5dff4793          	xori	a5,t5,1503
8000a8c0:	01457a63          	bgeu	a0,s4,8000a8d4 <smode_program_stack_p+0x200>
8000a8c4:	05d2d463          	bge	t0,t4,8000a90c <smode_program_stack_p+0x238>
8000a8c8:	015f1093          	slli	ra,t5,0x15
8000a8cc:	1d860217          	auipc	tp,0x1d860
8000a8d0:	4cb37c13          	andi	s8,t1,1227
8000a8d4:	015ad993          	srli	s3,s5,0x15
8000a8d8:	20648893          	addi	a7,s1,518
8000a8dc:	20648893          	addi	a7,s1,518
8000a8e0:	0000100f          	fence.i
8000a8e4:	01457c63          	bgeu	a0,s4,8000a8fc <smode_program_stack_p+0x228>
8000a8e8:	40ed8c33          	sub	s8,s11,a4
8000a8ec:	006410b3          	sll	ra,s0,t1
8000a8f0:	000706b3          	add	a3,a4,zero
8000a8f4:	4111dd93          	srai	s11,gp,0x11
8000a8f8:	20648893          	addi	a7,s1,518
8000a8fc:	000706b3          	add	a3,a4,zero
8000a900:	01c4dbb3          	srl	s7,s1,t3
8000a904:	0ff0000f          	fence
8000a908:	00406333          	or	t1,zero,tp
8000a90c:	00ee3233          	sltu	tp,t3,a4
8000a910:	bce1a693          	slti	a3,gp,-1074
8000a914:	015ad993          	srli	s3,s5,0x15
8000a918:	409a5633          	sra	a2,s4,s1
8000a91c:	4cb37c13          	andi	s8,t1,1227
8000a920:	05d2d063          	bge	t0,t4,8000a960 <smode_program_stack_p+0x28c>
8000a924:	003b4263          	blt	s6,gp,8000a928 <smode_program_stack_p+0x254>
8000a928:	cc92a0b7          	lui	ra,0xcc92a
8000a92c:	5dff4793          	xori	a5,t5,1503
8000a930:	01457a63          	bgeu	a0,s4,8000a944 <smode_program_stack_p+0x270>
8000a934:	018d1a63          	bne	s10,s8,8000a948 <smode_program_stack_p+0x274>
8000a938:	b35a3893          	sltiu	a7,s4,-1227
8000a93c:	1d860217          	auipc	tp,0x1d860
8000a940:	00000013          	nop
8000a944:	40ed8c33          	sub	s8,s11,a4
8000a948:	01bef5b3          	and	a1,t4,s11
8000a94c:	0033c233          	xor	tp,t2,gp
8000a950:	00406333          	or	t1,zero,tp
8000a954:	00cea633          	slt	a2,t4,a2
8000a958:	01bef5b3          	and	a1,t4,s11
8000a95c:	015ad993          	srli	s3,s5,0x15
8000a960:	015ad993          	srli	s3,s5,0x15
8000a964:	01bef5b3          	and	a1,t4,s11
8000a968:	008c8663          	beq	s9,s0,8000a974 <smode_program_stack_p+0x2a0>
8000a96c:	1d860217          	auipc	tp,0x1d860
8000a970:	4111dd93          	srai	s11,gp,0x11
8000a974:	bce1a693          	slti	a3,gp,-1074
8000a978:	000706b3          	add	a3,a4,zero
8000a97c:	5dff4793          	xori	a5,t5,1503
8000a980:	0033c233          	xor	tp,t2,gp
8000a984:	b35a3893          	sltiu	a7,s4,-1227
8000a988:	058d1463          	bne	s10,s8,8000a9d0 <smode_program_stack_p+0x2fc>
8000a98c:	01c4dbb3          	srl	s7,s1,t3
8000a990:	0033c233          	xor	tp,t2,gp
8000a994:	5dff4793          	xori	a5,t5,1503
8000a998:	5dff4793          	xori	a5,t5,1503
8000a99c:	01c4dbb3          	srl	s7,s1,t3
8000a9a0:	0000100f          	fence.i
8000a9a4:	1d860217          	auipc	tp,0x1d860
8000a9a8:	038d1a63          	bne	s10,s8,8000a9dc <smode_program_stack_p+0x308>
8000a9ac:	000706b3          	add	a3,a4,zero
8000a9b0:	4cb37c13          	andi	s8,t1,1227
8000a9b4:	000706b3          	add	a3,a4,zero
8000a9b8:	03d2de63          	bge	t0,t4,8000a9f4 <smode_program_stack_p+0x320>
8000a9bc:	fb4ee413          	ori	s0,t4,-76
8000a9c0:	00406333          	or	t1,zero,tp
8000a9c4:	bce1a693          	slti	a3,gp,-1074
8000a9c8:	0000100f          	fence.i
8000a9cc:	00cea633          	slt	a2,t4,a2
8000a9d0:	20648893          	addi	a7,s1,518
8000a9d4:	023b4663          	blt	s6,gp,8000aa00 <smode_program_stack_p+0x32c>
8000a9d8:	03a0e463          	bltu	ra,s10,8000aa00 <smode_program_stack_p+0x32c>
8000a9dc:	01c4dbb3          	srl	s7,s1,t3
8000a9e0:	4111dd93          	srai	s11,gp,0x11
8000a9e4:	000706b3          	add	a3,a4,zero
8000a9e8:	b35a3893          	sltiu	a7,s4,-1227
8000a9ec:	000706b3          	add	a3,a4,zero
8000a9f0:	409a5633          	sra	a2,s4,s1
8000a9f4:	015ad993          	srli	s3,s5,0x15
8000a9f8:	00406333          	or	t1,zero,tp
8000a9fc:	00ee3233          	sltu	tp,t3,a4
8000aa00:	b35a3893          	sltiu	a7,s4,-1227
8000aa04:	fb4ee413          	ori	s0,t4,-76
8000aa08:	00ee3233          	sltu	tp,t3,a4
8000aa0c:	05457263          	bgeu	a0,s4,8000aa50 <smode_program_stack_p+0x37c>
8000aa10:	00000013          	nop
8000aa14:	409a5633          	sra	a2,s4,s1
8000aa18:	000706b3          	add	a3,a4,zero
8000aa1c:	fb4ee413          	ori	s0,t4,-76
8000aa20:	00ee3233          	sltu	tp,t3,a4
8000aa24:	0ff0000f          	fence
8000aa28:	bce1a693          	slti	a3,gp,-1074
8000aa2c:	023b4e63          	blt	s6,gp,8000aa68 <smode_program_stack_p+0x394>
8000aa30:	006410b3          	sll	ra,s0,t1
8000aa34:	0000100f          	fence.i
8000aa38:	5dff4793          	xori	a5,t5,1503
8000aa3c:	00000013          	nop
8000aa40:	4111dd93          	srai	s11,gp,0x11
8000aa44:	cc92a0b7          	lui	ra,0xcc92a
8000aa48:	409a5633          	sra	a2,s4,s1
8000aa4c:	b35a3893          	sltiu	a7,s4,-1227
8000aa50:	409a5633          	sra	a2,s4,s1
8000aa54:	048c8063          	beq	s9,s0,8000aa94 <smode_program_stack_p+0x3c0>
8000aa58:	4111dd93          	srai	s11,gp,0x11
8000aa5c:	01c4dbb3          	srl	s7,s1,t3
8000aa60:	00ee3233          	sltu	tp,t3,a4
8000aa64:	5dff4793          	xori	a5,t5,1503
8000aa68:	058d1863          	bne	s10,s8,8000aab8 <smode_program_stack_p+0x3e4>
8000aa6c:	40ed8c33          	sub	s8,s11,a4
8000aa70:	5dff4793          	xori	a5,t5,1503
8000aa74:	4111dd93          	srai	s11,gp,0x11
8000aa78:	05457663          	bgeu	a0,s4,8000aac4 <smode_program_stack_p+0x3f0>
8000aa7c:	00406333          	or	t1,zero,tp
8000aa80:	015f1093          	slli	ra,t5,0x15
8000aa84:	0ff0000f          	fence
8000aa88:	000706b3          	add	a3,a4,zero
8000aa8c:	cc92a0b7          	lui	ra,0xcc92a
8000aa90:	003b4c63          	blt	s6,gp,8000aaa8 <smode_program_stack_p+0x3d4>
8000aa94:	01c4dbb3          	srl	s7,s1,t3
8000aa98:	008c8663          	beq	s9,s0,8000aaa4 <smode_program_stack_p+0x3d0>
8000aa9c:	1d860217          	auipc	tp,0x1d860
8000aaa0:	015f1093          	slli	ra,t5,0x15
8000aaa4:	008c8863          	beq	s9,s0,8000aab4 <smode_program_stack_p+0x3e0>
8000aaa8:	03d2d463          	bge	t0,t4,8000aad0 <smode_program_stack_p+0x3fc>
8000aaac:	fb4ee413          	ori	s0,t4,-76
8000aab0:	409a5633          	sra	a2,s4,s1
8000aab4:	01d2d663          	bge	t0,t4,8000aac0 <smode_program_stack_p+0x3ec>
8000aab8:	409a5633          	sra	a2,s4,s1
8000aabc:	015ad993          	srli	s3,s5,0x15
8000aac0:	01457263          	bgeu	a0,s4,8000aac4 <smode_program_stack_p+0x3f0>
8000aac4:	1d860217          	auipc	tp,0x1d860
8000aac8:	015ad993          	srli	s3,s5,0x15
8000aacc:	409a5633          	sra	a2,s4,s1
8000aad0:	00ee3233          	sltu	tp,t3,a4
8000aad4:	5dff4793          	xori	a5,t5,1503
8000aad8:	00406333          	or	t1,zero,tp
8000aadc:	40ed8c33          	sub	s8,s11,a4
8000aae0:	028c8063          	beq	s9,s0,8000ab00 <smode_program_stack_p+0x42c>
8000aae4:	40ed8c33          	sub	s8,s11,a4
8000aae8:	4cb37c13          	andi	s8,t1,1227
8000aaec:	cc92a0b7          	lui	ra,0xcc92a
8000aaf0:	cc92a0b7          	lui	ra,0xcc92a
8000aaf4:	05d2d663          	bge	t0,t4,8000ab40 <smode_program_stack_p+0x46c>
8000aaf8:	05457063          	bgeu	a0,s4,8000ab38 <smode_program_stack_p+0x464>
8000aafc:	cc92a0b7          	lui	ra,0xcc92a
8000ab00:	01a0ea63          	bltu	ra,s10,8000ab14 <smode_program_stack_p+0x440>
8000ab04:	20648893          	addi	a7,s1,518
8000ab08:	fb4ee413          	ori	s0,t4,-76
8000ab0c:	006410b3          	sll	ra,s0,t1
8000ab10:	003b4a63          	blt	s6,gp,8000ab24 <smode_program_stack_p+0x450>
8000ab14:	0ff0000f          	fence
8000ab18:	03457863          	bgeu	a0,s4,8000ab48 <smode_program_stack_p+0x474>
8000ab1c:	03d2d063          	bge	t0,t4,8000ab3c <smode_program_stack_p+0x468>
8000ab20:	006410b3          	sll	ra,s0,t1
8000ab24:	01bef5b3          	and	a1,t4,s11
8000ab28:	1d860217          	auipc	tp,0x1d860
8000ab2c:	0033c233          	xor	tp,t2,gp
8000ab30:	015f1093          	slli	ra,t5,0x15
8000ab34:	cc92a0b7          	lui	ra,0xcc92a
8000ab38:	b35a3893          	sltiu	a7,s4,-1227
8000ab3c:	006410b3          	sll	ra,s0,t1
8000ab40:	cc92a0b7          	lui	ra,0xcc92a
8000ab44:	fb4ee413          	ori	s0,t4,-76
8000ab48:	01bef5b3          	and	a1,t4,s11
8000ab4c:	1d860217          	auipc	tp,0x1d860
8000ab50:	000706b3          	add	a3,a4,zero
8000ab54:	00406333          	or	t1,zero,tp
8000ab58:	409a5633          	sra	a2,s4,s1
8000ab5c:	00000013          	nop
8000ab60:	bce1a693          	slti	a3,gp,-1074
8000ab64:	40ed8c33          	sub	s8,s11,a4
8000ab68:	409a5633          	sra	a2,s4,s1
8000ab6c:	01d2dc63          	bge	t0,t4,8000ab84 <smode_program_stack_p+0x4b0>
8000ab70:	bce1a693          	slti	a3,gp,-1074
8000ab74:	0000100f          	fence.i
8000ab78:	023b4663          	blt	s6,gp,8000aba4 <smode_program_stack_p+0x4d0>
8000ab7c:	00000013          	nop
8000ab80:	bce1a693          	slti	a3,gp,-1074
8000ab84:	01c4dbb3          	srl	s7,s1,t3
8000ab88:	cc92a0b7          	lui	ra,0xcc92a
8000ab8c:	20648893          	addi	a7,s1,518
8000ab90:	409a5633          	sra	a2,s4,s1
8000ab94:	5dff4793          	xori	a5,t5,1503
8000ab98:	1d860217          	auipc	tp,0x1d860
8000ab9c:	015ad993          	srli	s3,s5,0x15
8000aba0:	0ff0000f          	fence
8000aba4:	01d2d263          	bge	t0,t4,8000aba8 <smode_program_stack_p+0x4d4>
8000aba8:	00cea633          	slt	a2,t4,a2
8000abac:	4cb37c13          	andi	s8,t1,1227
8000abb0:	4111dd93          	srai	s11,gp,0x11
8000abb4:	00cea633          	slt	a2,t4,a2
8000abb8:	048c8463          	beq	s9,s0,8000ac00 <smode_program_stack_p+0x52c>
8000abbc:	015f1093          	slli	ra,t5,0x15
8000abc0:	00406333          	or	t1,zero,tp
8000abc4:	40ed8c33          	sub	s8,s11,a4
8000abc8:	05d2d263          	bge	t0,t4,8000ac0c <smode_program_stack_p+0x538>
8000abcc:	409a5633          	sra	a2,s4,s1
8000abd0:	00406333          	or	t1,zero,tp
8000abd4:	4111dd93          	srai	s11,gp,0x11
8000abd8:	0000100f          	fence.i
8000abdc:	cc92a0b7          	lui	ra,0xcc92a
8000abe0:	05d2d263          	bge	t0,t4,8000ac24 <smode_program_stack_p+0x550>
8000abe4:	003b4a63          	blt	s6,gp,8000abf8 <smode_program_stack_p+0x524>
8000abe8:	00000013          	nop
8000abec:	fb4ee413          	ori	s0,t4,-76
8000abf0:	01c4dbb3          	srl	s7,s1,t3
8000abf4:	01c4dbb3          	srl	s7,s1,t3
8000abf8:	01c4dbb3          	srl	s7,s1,t3
8000abfc:	01bef5b3          	and	a1,t4,s11
8000ac00:	0ff0000f          	fence
8000ac04:	006410b3          	sll	ra,s0,t1
8000ac08:	00cea633          	slt	a2,t4,a2
8000ac0c:	01bef5b3          	and	a1,t4,s11
8000ac10:	00ee3233          	sltu	tp,t3,a4
8000ac14:	fb4ee413          	ori	s0,t4,-76
8000ac18:	018d1c63          	bne	s10,s8,8000ac30 <smode_program_stack_p+0x55c>
8000ac1c:	015f1093          	slli	ra,t5,0x15
8000ac20:	0033c233          	xor	tp,t2,gp
8000ac24:	00406333          	or	t1,zero,tp
8000ac28:	03a0e663          	bltu	ra,s10,8000ac54 <smode_program_stack_p+0x580>
8000ac2c:	05a0e263          	bltu	ra,s10,8000ac70 <smode_program_stack_p+0x59c>
8000ac30:	0000100f          	fence.i
8000ac34:	20648893          	addi	a7,s1,518
8000ac38:	003b4263          	blt	s6,gp,8000ac3c <smode_program_stack_p+0x568>
8000ac3c:	0033c233          	xor	tp,t2,gp
8000ac40:	015f1093          	slli	ra,t5,0x15
8000ac44:	038d1e63          	bne	s10,s8,8000ac80 <smode_program_stack_p+0x5ac>
8000ac48:	028c8463          	beq	s9,s0,8000ac70 <smode_program_stack_p+0x59c>
8000ac4c:	0ff0000f          	fence
8000ac50:	01bef5b3          	and	a1,t4,s11
8000ac54:	008c8a63          	beq	s9,s0,8000ac68 <smode_program_stack_p+0x594>
8000ac58:	4111dd93          	srai	s11,gp,0x11
8000ac5c:	05d2d263          	bge	t0,t4,8000aca0 <smode_program_stack_p+0x5cc>
8000ac60:	cc92a0b7          	lui	ra,0xcc92a
8000ac64:	00406333          	or	t1,zero,tp
8000ac68:	0ff0000f          	fence
8000ac6c:	01bef5b3          	and	a1,t4,s11
8000ac70:	03a0ee63          	bltu	ra,s10,8000acac <smode_program_stack_p+0x5d8>
8000ac74:	1d860217          	auipc	tp,0x1d860
8000ac78:	0ff0000f          	fence
8000ac7c:	00000013          	nop
8000ac80:	0033c233          	xor	tp,t2,gp
8000ac84:	058d1463          	bne	s10,s8,8000accc <smode_program_stack_p+0x5f8>
8000ac88:	b35a3893          	sltiu	a7,s4,-1227
8000ac8c:	5dff4793          	xori	a5,t5,1503
8000ac90:	0ff0000f          	fence
8000ac94:	0000100f          	fence.i
8000ac98:	fb4ee413          	ori	s0,t4,-76
8000ac9c:	01c4dbb3          	srl	s7,s1,t3
8000aca0:	1d860217          	auipc	tp,0x1d860
8000aca4:	015f1093          	slli	ra,t5,0x15
8000aca8:	018d1263          	bne	s10,s8,8000acac <smode_program_stack_p+0x5d8>
8000acac:	000706b3          	add	a3,a4,zero
8000acb0:	028c8a63          	beq	s9,s0,8000ace4 <smode_program_stack_p+0x610>
8000acb4:	015f1093          	slli	ra,t5,0x15
8000acb8:	0ff0000f          	fence
8000acbc:	038d1663          	bne	s10,s8,8000ace8 <smode_program_stack_p+0x614>
8000acc0:	03a0e063          	bltu	ra,s10,8000ace0 <smode_program_stack_p+0x60c>
8000acc4:	b35a3893          	sltiu	a7,s4,-1227
8000acc8:	0033c233          	xor	tp,t2,gp
8000accc:	cc92a0b7          	lui	ra,0xcc92a
8000acd0:	fb4ee413          	ori	s0,t4,-76
8000acd4:	0000100f          	fence.i
8000acd8:	1d860217          	auipc	tp,0x1d860
8000acdc:	006410b3          	sll	ra,s0,t1
8000ace0:	01d2d663          	bge	t0,t4,8000acec <smode_program_stack_p+0x618>
8000ace4:	006410b3          	sll	ra,s0,t1
8000ace8:	058d1063          	bne	s10,s8,8000ad28 <smode_program_stack_p+0x654>
8000acec:	0000100f          	fence.i
8000acf0:	409a5633          	sra	a2,s4,s1
8000acf4:	0000100f          	fence.i
8000acf8:	01bef5b3          	and	a1,t4,s11
8000acfc:	1d860217          	auipc	tp,0x1d860
8000ad00:	fb4ee413          	ori	s0,t4,-76
8000ad04:	20648893          	addi	a7,s1,518
8000ad08:	023b4263          	blt	s6,gp,8000ad2c <smode_program_stack_p+0x658>
8000ad0c:	0000100f          	fence.i
8000ad10:	015ad993          	srli	s3,s5,0x15
8000ad14:	20648893          	addi	a7,s1,518
8000ad18:	1d860217          	auipc	tp,0x1d860
8000ad1c:	fb4ee413          	ori	s0,t4,-76
8000ad20:	20648893          	addi	a7,s1,518
8000ad24:	000706b3          	add	a3,a4,zero
8000ad28:	cc92a0b7          	lui	ra,0xcc92a
8000ad2c:	0ff0000f          	fence
8000ad30:	004e2f83          	lw	t6,4(t3)
8000ad34:	fb4ee413          	ori	s0,t4,-76
8000ad38:	409a5633          	sra	a2,s4,s1
8000ad3c:	4111dd93          	srai	s11,gp,0x11
8000ad40:	030e0e13          	addi	t3,t3,48
8000ad44:	4cb37c13          	andi	s8,t1,1227
8000ad48:	4cb37c13          	andi	s8,t1,1227
8000ad4c:	0ff0000f          	fence
8000ad50:	00000013          	nop
8000ad54:	001f8593          	addi	a1,t6,1
8000ad58:	000585e7          	jalr	a1,a1 # 80000000 <_end+0xfffd1180>

8000ad5c <smode_lsu_program>:
8000ad5c:	fc8e0e13          	addi	t3,t3,-56
8000ad60:	bce1a693          	slti	a3,gp,-1074
8000ad64:	00cea633          	slt	a2,t4,a2
8000ad68:	01c4dbb3          	srl	s7,s1,t3
8000ad6c:	015f1093          	slli	ra,t5,0x15
8000ad70:	01fe2223          	sw	t6,4(t3)
8000ad74:	00000013          	nop
8000ad78:	0000100f          	fence.i
8000ad7c:	b35a3893          	sltiu	a7,s4,-1227
8000ad80:	05457063          	bgeu	a0,s4,8000adc0 <smode_lsu_program+0x64>
8000ad84:	01d2da63          	bge	t0,t4,8000ad98 <smode_lsu_program+0x3c>
8000ad88:	0ff0000f          	fence
8000ad8c:	028c8063          	beq	s9,s0,8000adac <smode_lsu_program+0x50>
8000ad90:	015f1093          	slli	ra,t5,0x15
8000ad94:	cc92a0b7          	lui	ra,0xcc92a
8000ad98:	003b4463          	blt	s6,gp,8000ada0 <smode_lsu_program+0x44>
8000ad9c:	015f1093          	slli	ra,t5,0x15
8000ada0:	fb4ee413          	ori	s0,t4,-76
8000ada4:	03d2d863          	bge	t0,t4,8000add4 <smode_lsu_program+0x78>
8000ada8:	409a5633          	sra	a2,s4,s1
8000adac:	4111dd93          	srai	s11,gp,0x11
8000adb0:	015f1093          	slli	ra,t5,0x15
8000adb4:	00406333          	or	t1,zero,tp
8000adb8:	01bef5b3          	and	a1,t4,s11
8000adbc:	043b4263          	blt	s6,gp,8000ae00 <smode_lsu_program+0xa4>
8000adc0:	01c4dbb3          	srl	s7,s1,t3
8000adc4:	01bef5b3          	and	a1,t4,s11
8000adc8:	cc92a0b7          	lui	ra,0xcc92a
8000adcc:	00000013          	nop
8000add0:	00406333          	or	t1,zero,tp
8000add4:	bce1a693          	slti	a3,gp,-1074
8000add8:	1d860217          	auipc	tp,0x1d860
8000addc:	b35a3893          	sltiu	a7,s4,-1227
8000ade0:	038d1a63          	bne	s10,s8,8000ae14 <smode_lsu_program+0xb8>
8000ade4:	00406333          	or	t1,zero,tp
8000ade8:	409a5633          	sra	a2,s4,s1
8000adec:	006410b3          	sll	ra,s0,t1
8000adf0:	03457463          	bgeu	a0,s4,8000ae18 <smode_lsu_program+0xbc>
8000adf4:	01d2da63          	bge	t0,t4,8000ae08 <smode_lsu_program+0xac>
8000adf8:	01bef5b3          	and	a1,t4,s11
8000adfc:	20648893          	addi	a7,s1,518
8000ae00:	006410b3          	sll	ra,s0,t1
8000ae04:	4cb37c13          	andi	s8,t1,1227
8000ae08:	003b4863          	blt	s6,gp,8000ae18 <smode_lsu_program+0xbc>
8000ae0c:	01bef5b3          	and	a1,t4,s11
8000ae10:	40ed8c33          	sub	s8,s11,a4
8000ae14:	0ff0000f          	fence
8000ae18:	4cb37c13          	andi	s8,t1,1227
8000ae1c:	20648893          	addi	a7,s1,518
8000ae20:	05457263          	bgeu	a0,s4,8000ae64 <smode_lsu_program+0x108>
8000ae24:	015f1093          	slli	ra,t5,0x15
8000ae28:	b35a3893          	sltiu	a7,s4,-1227
8000ae2c:	0000100f          	fence.i
8000ae30:	043b4263          	blt	s6,gp,8000ae74 <smode_lsu_program+0x118>
8000ae34:	018d1663          	bne	s10,s8,8000ae40 <smode_lsu_program+0xe4>
8000ae38:	00406333          	or	t1,zero,tp
8000ae3c:	409a5633          	sra	a2,s4,s1
8000ae40:	4111dd93          	srai	s11,gp,0x11
8000ae44:	000706b3          	add	a3,a4,zero
8000ae48:	0033c233          	xor	tp,t2,gp
8000ae4c:	409a5633          	sra	a2,s4,s1
8000ae50:	00cea633          	slt	a2,t4,a2
8000ae54:	0000100f          	fence.i
8000ae58:	20648893          	addi	a7,s1,518
8000ae5c:	0033c233          	xor	tp,t2,gp
8000ae60:	5dff4793          	xori	a5,t5,1503
8000ae64:	409a5633          	sra	a2,s4,s1
8000ae68:	01bef5b3          	and	a1,t4,s11
8000ae6c:	20648893          	addi	a7,s1,518
8000ae70:	1d860217          	auipc	tp,0x1d860
8000ae74:	008c8a63          	beq	s9,s0,8000ae88 <smode_lsu_program+0x12c>
8000ae78:	bce1a693          	slti	a3,gp,-1074
8000ae7c:	0ff0000f          	fence
8000ae80:	20648893          	addi	a7,s1,518
8000ae84:	01bef5b3          	and	a1,t4,s11
8000ae88:	0000100f          	fence.i
8000ae8c:	4111dd93          	srai	s11,gp,0x11
8000ae90:	00ee3233          	sltu	tp,t3,a4
8000ae94:	40ed8c33          	sub	s8,s11,a4
8000ae98:	40ed8c33          	sub	s8,s11,a4
8000ae9c:	20648893          	addi	a7,s1,518
8000aea0:	4cb37c13          	andi	s8,t1,1227
8000aea4:	015f1093          	slli	ra,t5,0x15
8000aea8:	058d1663          	bne	s10,s8,8000aef4 <smode_lsu_program+0x198>
8000aeac:	000706b3          	add	a3,a4,zero
8000aeb0:	01bef5b3          	and	a1,t4,s11
8000aeb4:	5dff4793          	xori	a5,t5,1503
8000aeb8:	b35a3893          	sltiu	a7,s4,-1227
8000aebc:	00ee3233          	sltu	tp,t3,a4
8000aec0:	0033c233          	xor	tp,t2,gp
8000aec4:	03d2d063          	bge	t0,t4,8000aee4 <smode_lsu_program+0x188>
8000aec8:	00000013          	nop
8000aecc:	0033c233          	xor	tp,t2,gp
8000aed0:	bce1a693          	slti	a3,gp,-1074
8000aed4:	fb4ee413          	ori	s0,t4,-76
8000aed8:	000706b3          	add	a3,a4,zero
8000aedc:	5dff4793          	xori	a5,t5,1503
8000aee0:	20648893          	addi	a7,s1,518
8000aee4:	006410b3          	sll	ra,s0,t1
8000aee8:	01bef5b3          	and	a1,t4,s11
8000aeec:	0000100f          	fence.i
8000aef0:	00406333          	or	t1,zero,tp
8000aef4:	015ad993          	srli	s3,s5,0x15
8000aef8:	000706b3          	add	a3,a4,zero
8000aefc:	0000100f          	fence.i
8000af00:	0033c233          	xor	tp,t2,gp
8000af04:	20648893          	addi	a7,s1,518
8000af08:	1d860217          	auipc	tp,0x1d860
8000af0c:	015f1093          	slli	ra,t5,0x15
8000af10:	5dff4793          	xori	a5,t5,1503
8000af14:	01c4dbb3          	srl	s7,s1,t3
8000af18:	00406333          	or	t1,zero,tp
8000af1c:	015ad993          	srli	s3,s5,0x15
8000af20:	0033c233          	xor	tp,t2,gp
8000af24:	4cb37c13          	andi	s8,t1,1227
8000af28:	bce1a693          	slti	a3,gp,-1074
8000af2c:	0033c233          	xor	tp,t2,gp
8000af30:	0000100f          	fence.i
8000af34:	20648893          	addi	a7,s1,518
8000af38:	4111dd93          	srai	s11,gp,0x11
8000af3c:	01bef5b3          	and	a1,t4,s11
8000af40:	4111dd93          	srai	s11,gp,0x11
8000af44:	20648893          	addi	a7,s1,518
8000af48:	00cea633          	slt	a2,t4,a2
8000af4c:	01a0ec63          	bltu	ra,s10,8000af64 <smode_lsu_program+0x208>
8000af50:	fb4ee413          	ori	s0,t4,-76
8000af54:	006410b3          	sll	ra,s0,t1
8000af58:	b35a3893          	sltiu	a7,s4,-1227
8000af5c:	01bef5b3          	and	a1,t4,s11
8000af60:	409a5633          	sra	a2,s4,s1
8000af64:	00cea633          	slt	a2,t4,a2
8000af68:	4cb37c13          	andi	s8,t1,1227
8000af6c:	006410b3          	sll	ra,s0,t1
8000af70:	1d860217          	auipc	tp,0x1d860
8000af74:	4111dd93          	srai	s11,gp,0x11
8000af78:	038d1663          	bne	s10,s8,8000afa4 <smode_lsu_program+0x248>
8000af7c:	058d1863          	bne	s10,s8,8000afcc <smode_lsu_program+0x270>
8000af80:	01c4dbb3          	srl	s7,s1,t3
8000af84:	00ee3233          	sltu	tp,t3,a4
8000af88:	01a0ee63          	bltu	ra,s10,8000afa4 <smode_lsu_program+0x248>
8000af8c:	03d2d063          	bge	t0,t4,8000afac <smode_lsu_program+0x250>
8000af90:	01bef5b3          	and	a1,t4,s11
8000af94:	4cb37c13          	andi	s8,t1,1227
8000af98:	409a5633          	sra	a2,s4,s1
8000af9c:	40ed8c33          	sub	s8,s11,a4
8000afa0:	4cb37c13          	andi	s8,t1,1227
8000afa4:	b35a3893          	sltiu	a7,s4,-1227
8000afa8:	0000100f          	fence.i
8000afac:	fb4ee413          	ori	s0,t4,-76
8000afb0:	5dff4793          	xori	a5,t5,1503
8000afb4:	4111dd93          	srai	s11,gp,0x11
8000afb8:	05a0e063          	bltu	ra,s10,8000aff8 <smode_lsu_program+0x29c>
8000afbc:	fb4ee413          	ori	s0,t4,-76
8000afc0:	00cea633          	slt	a2,t4,a2
8000afc4:	1d860217          	auipc	tp,0x1d860
8000afc8:	028c8063          	beq	s9,s0,8000afe8 <smode_lsu_program+0x28c>
8000afcc:	015ad993          	srli	s3,s5,0x15
8000afd0:	20648893          	addi	a7,s1,518
8000afd4:	5dff4793          	xori	a5,t5,1503
8000afd8:	5dff4793          	xori	a5,t5,1503
8000afdc:	01d2d263          	bge	t0,t4,8000afe0 <smode_lsu_program+0x284>
8000afe0:	000706b3          	add	a3,a4,zero
8000afe4:	03d2de63          	bge	t0,t4,8000b020 <smode_lsu_program+0x2c4>
8000afe8:	015ad993          	srli	s3,s5,0x15
8000afec:	4cb37c13          	andi	s8,t1,1227
8000aff0:	bce1a693          	slti	a3,gp,-1074
8000aff4:	008c8463          	beq	s9,s0,8000affc <smode_lsu_program+0x2a0>
8000aff8:	018d1863          	bne	s10,s8,8000b008 <smode_lsu_program+0x2ac>
8000affc:	000706b3          	add	a3,a4,zero
8000b000:	0ff0000f          	fence
8000b004:	03a0ea63          	bltu	ra,s10,8000b038 <smode_lsu_program+0x2dc>
8000b008:	006410b3          	sll	ra,s0,t1
8000b00c:	0033c233          	xor	tp,t2,gp
8000b010:	00cea633          	slt	a2,t4,a2
8000b014:	028c8463          	beq	s9,s0,8000b03c <smode_lsu_program+0x2e0>
8000b018:	01bef5b3          	and	a1,t4,s11
8000b01c:	006410b3          	sll	ra,s0,t1
8000b020:	01bef5b3          	and	a1,t4,s11
8000b024:	015ad993          	srli	s3,s5,0x15
8000b028:	01d2d663          	bge	t0,t4,8000b034 <smode_lsu_program+0x2d8>
8000b02c:	000706b3          	add	a3,a4,zero
8000b030:	015ad993          	srli	s3,s5,0x15
8000b034:	03457e63          	bgeu	a0,s4,8000b070 <smode_lsu_program+0x314>
8000b038:	1d860217          	auipc	tp,0x1d860
8000b03c:	fb4ee413          	ori	s0,t4,-76
8000b040:	20648893          	addi	a7,s1,518
8000b044:	b35a3893          	sltiu	a7,s4,-1227
8000b048:	01457863          	bgeu	a0,s4,8000b058 <smode_lsu_program+0x2fc>
8000b04c:	015f1093          	slli	ra,t5,0x15
8000b050:	015ad993          	srli	s3,s5,0x15
8000b054:	409a5633          	sra	a2,s4,s1
8000b058:	40ed8c33          	sub	s8,s11,a4
8000b05c:	05a0e063          	bltu	ra,s10,8000b09c <smode_lsu_program+0x340>
8000b060:	00000013          	nop
8000b064:	015ad993          	srli	s3,s5,0x15
8000b068:	00cea633          	slt	a2,t4,a2
8000b06c:	038d1063          	bne	s10,s8,8000b08c <smode_lsu_program+0x330>
8000b070:	5dff4793          	xori	a5,t5,1503
8000b074:	20648893          	addi	a7,s1,518
8000b078:	b35a3893          	sltiu	a7,s4,-1227
8000b07c:	008c8863          	beq	s9,s0,8000b08c <smode_lsu_program+0x330>
8000b080:	1d860217          	auipc	tp,0x1d860
8000b084:	00406333          	or	t1,zero,tp
8000b088:	01a0ea63          	bltu	ra,s10,8000b09c <smode_lsu_program+0x340>
8000b08c:	5dff4793          	xori	a5,t5,1503
8000b090:	03d2d463          	bge	t0,t4,8000b0b8 <smode_lsu_program+0x35c>
8000b094:	003b4a63          	blt	s6,gp,8000b0a8 <smode_lsu_program+0x34c>
8000b098:	00cea633          	slt	a2,t4,a2
8000b09c:	409a5633          	sra	a2,s4,s1
8000b0a0:	00000013          	nop
8000b0a4:	038d1063          	bne	s10,s8,8000b0c4 <smode_lsu_program+0x368>
8000b0a8:	40ed8c33          	sub	s8,s11,a4
8000b0ac:	000706b3          	add	a3,a4,zero
8000b0b0:	40ed8c33          	sub	s8,s11,a4
8000b0b4:	5dff4793          	xori	a5,t5,1503
8000b0b8:	20648893          	addi	a7,s1,518
8000b0bc:	015ad993          	srli	s3,s5,0x15
8000b0c0:	b35a3893          	sltiu	a7,s4,-1227
8000b0c4:	40ed8c33          	sub	s8,s11,a4
8000b0c8:	4cb37c13          	andi	s8,t1,1227
8000b0cc:	5dff4793          	xori	a5,t5,1503
8000b0d0:	00ee3233          	sltu	tp,t3,a4
8000b0d4:	0ff0000f          	fence
8000b0d8:	038d1063          	bne	s10,s8,8000b0f8 <smode_lsu_program+0x39c>
8000b0dc:	409a5633          	sra	a2,s4,s1
8000b0e0:	023b4663          	blt	s6,gp,8000b10c <smode_lsu_program+0x3b0>
8000b0e4:	5dff4793          	xori	a5,t5,1503
8000b0e8:	bce1a693          	slti	a3,gp,-1074
8000b0ec:	00000013          	nop
8000b0f0:	cc92a0b7          	lui	ra,0xcc92a
8000b0f4:	01a0ea63          	bltu	ra,s10,8000b108 <smode_lsu_program+0x3ac>
8000b0f8:	01bef5b3          	and	a1,t4,s11
8000b0fc:	0000100f          	fence.i
8000b100:	00cea633          	slt	a2,t4,a2
8000b104:	5dff4793          	xori	a5,t5,1503
8000b108:	058d1663          	bne	s10,s8,8000b154 <smode_lsu_program+0x3f8>
8000b10c:	bce1a693          	slti	a3,gp,-1074
8000b110:	000706b3          	add	a3,a4,zero
8000b114:	00406333          	or	t1,zero,tp
8000b118:	bce1a693          	slti	a3,gp,-1074
8000b11c:	4cb37c13          	andi	s8,t1,1227
8000b120:	0033c233          	xor	tp,t2,gp
8000b124:	00ee3233          	sltu	tp,t3,a4
8000b128:	0033c233          	xor	tp,t2,gp
8000b12c:	01d2de63          	bge	t0,t4,8000b148 <smode_lsu_program+0x3ec>
8000b130:	1d860217          	auipc	tp,0x1d860
8000b134:	01c4dbb3          	srl	s7,s1,t3
8000b138:	01c4dbb3          	srl	s7,s1,t3
8000b13c:	20648893          	addi	a7,s1,518
8000b140:	5dff4793          	xori	a5,t5,1503
8000b144:	cc92a0b7          	lui	ra,0xcc92a
8000b148:	bce1a693          	slti	a3,gp,-1074
8000b14c:	cc92a0b7          	lui	ra,0xcc92a
8000b150:	00cea633          	slt	a2,t4,a2
8000b154:	00ee3233          	sltu	tp,t3,a4
8000b158:	058d1263          	bne	s10,s8,8000b19c <smode_lsu_program+0x440>
8000b15c:	01a0ec63          	bltu	ra,s10,8000b174 <smode_lsu_program+0x418>
8000b160:	00ee3233          	sltu	tp,t3,a4
8000b164:	409a5633          	sra	a2,s4,s1
8000b168:	1d860217          	auipc	tp,0x1d860
8000b16c:	20648893          	addi	a7,s1,518
8000b170:	000706b3          	add	a3,a4,zero
8000b174:	00ee3233          	sltu	tp,t3,a4
8000b178:	bce1a693          	slti	a3,gp,-1074
8000b17c:	018d1663          	bne	s10,s8,8000b188 <smode_lsu_program+0x42c>
8000b180:	0033c233          	xor	tp,t2,gp
8000b184:	01bef5b3          	and	a1,t4,s11
8000b188:	01d2d263          	bge	t0,t4,8000b18c <smode_lsu_program+0x430>
8000b18c:	028c8a63          	beq	s9,s0,8000b1c0 <smode_lsu_program+0x464>
8000b190:	01c4dbb3          	srl	s7,s1,t3
8000b194:	bce1a693          	slti	a3,gp,-1074
8000b198:	bce1a693          	slti	a3,gp,-1074
8000b19c:	03d2d063          	bge	t0,t4,8000b1bc <smode_lsu_program+0x460>
8000b1a0:	00ee3233          	sltu	tp,t3,a4
8000b1a4:	0ff0000f          	fence
8000b1a8:	0ff0000f          	fence
8000b1ac:	40ed8c33          	sub	s8,s11,a4
8000b1b0:	03a0e463          	bltu	ra,s10,8000b1d8 <smode_lsu_program+0x47c>
8000b1b4:	000706b3          	add	a3,a4,zero
8000b1b8:	048c8263          	beq	s9,s0,8000b1fc <smode_lsu_program+0x4a0>
8000b1bc:	20648893          	addi	a7,s1,518
8000b1c0:	0000100f          	fence.i
8000b1c4:	00406333          	or	t1,zero,tp
8000b1c8:	0033c233          	xor	tp,t2,gp
8000b1cc:	006410b3          	sll	ra,s0,t1
8000b1d0:	b35a3893          	sltiu	a7,s4,-1227
8000b1d4:	409a5633          	sra	a2,s4,s1
8000b1d8:	01a0e463          	bltu	ra,s10,8000b1e0 <smode_lsu_program+0x484>
8000b1dc:	05d2d063          	bge	t0,t4,8000b21c <smode_lsu_program+0x4c0>
8000b1e0:	000706b3          	add	a3,a4,zero
8000b1e4:	00cea633          	slt	a2,t4,a2
8000b1e8:	00ee3233          	sltu	tp,t3,a4
8000b1ec:	01bef5b3          	and	a1,t4,s11
8000b1f0:	006410b3          	sll	ra,s0,t1
8000b1f4:	00ee3233          	sltu	tp,t3,a4
8000b1f8:	b35a3893          	sltiu	a7,s4,-1227
8000b1fc:	00ee3233          	sltu	tp,t3,a4
8000b200:	015ad993          	srli	s3,s5,0x15
8000b204:	409a5633          	sra	a2,s4,s1
8000b208:	015f1093          	slli	ra,t5,0x15
8000b20c:	fb4ee413          	ori	s0,t4,-76
8000b210:	cc92a0b7          	lui	ra,0xcc92a
8000b214:	01d2d663          	bge	t0,t4,8000b220 <smode_lsu_program+0x4c4>
8000b218:	0000100f          	fence.i
8000b21c:	05d2d263          	bge	t0,t4,8000b260 <smode_lsu_program+0x504>
8000b220:	1d860217          	auipc	tp,0x1d860
8000b224:	00406333          	or	t1,zero,tp
8000b228:	00ee3233          	sltu	tp,t3,a4
8000b22c:	5dff4793          	xori	a5,t5,1503
8000b230:	0033c233          	xor	tp,t2,gp
8000b234:	0ff0000f          	fence
8000b238:	20648893          	addi	a7,s1,518
8000b23c:	028c8a63          	beq	s9,s0,8000b270 <smode_lsu_program+0x514>
8000b240:	006410b3          	sll	ra,s0,t1
8000b244:	0000100f          	fence.i
8000b248:	00ee3233          	sltu	tp,t3,a4
8000b24c:	00cea633          	slt	a2,t4,a2
8000b250:	b35a3893          	sltiu	a7,s4,-1227
8000b254:	0033c233          	xor	tp,t2,gp
8000b258:	015ad993          	srli	s3,s5,0x15
8000b25c:	000706b3          	add	a3,a4,zero
8000b260:	015f1093          	slli	ra,t5,0x15
8000b264:	20648893          	addi	a7,s1,518
8000b268:	00ee3233          	sltu	tp,t3,a4
8000b26c:	b35a3893          	sltiu	a7,s4,-1227
8000b270:	409a5633          	sra	a2,s4,s1
8000b274:	006410b3          	sll	ra,s0,t1
8000b278:	cc92a0b7          	lui	ra,0xcc92a
8000b27c:	01c4dbb3          	srl	s7,s1,t3
8000b280:	000706b3          	add	a3,a4,zero
8000b284:	006410b3          	sll	ra,s0,t1
8000b288:	00ee3233          	sltu	tp,t3,a4
8000b28c:	05a0e863          	bltu	ra,s10,8000b2dc <smode_lsu_program+0x580>
8000b290:	20648893          	addi	a7,s1,518
8000b294:	038d1863          	bne	s10,s8,8000b2c4 <smode_lsu_program+0x568>
8000b298:	4cb37c13          	andi	s8,t1,1227
8000b29c:	00cea633          	slt	a2,t4,a2
8000b2a0:	40ed8c33          	sub	s8,s11,a4
8000b2a4:	000706b3          	add	a3,a4,zero
8000b2a8:	40ed8c33          	sub	s8,s11,a4
8000b2ac:	1d860217          	auipc	tp,0x1d860
8000b2b0:	5dff4793          	xori	a5,t5,1503
8000b2b4:	cc92a0b7          	lui	ra,0xcc92a
8000b2b8:	01a0e463          	bltu	ra,s10,8000b2c0 <smode_lsu_program+0x564>
8000b2bc:	023b4463          	blt	s6,gp,8000b2e4 <smode_lsu_program+0x588>
8000b2c0:	015f1093          	slli	ra,t5,0x15
8000b2c4:	01a0e263          	bltu	ra,s10,8000b2c8 <smode_lsu_program+0x56c>
8000b2c8:	cc92a0b7          	lui	ra,0xcc92a
8000b2cc:	000706b3          	add	a3,a4,zero
8000b2d0:	003b4463          	blt	s6,gp,8000b2d8 <smode_lsu_program+0x57c>
8000b2d4:	015ad993          	srli	s3,s5,0x15
8000b2d8:	006410b3          	sll	ra,s0,t1
8000b2dc:	01bef5b3          	and	a1,t4,s11
8000b2e0:	4111dd93          	srai	s11,gp,0x11
8000b2e4:	00ee3233          	sltu	tp,t3,a4
8000b2e8:	038d1063          	bne	s10,s8,8000b308 <smode_lsu_program+0x5ac>
8000b2ec:	028c8e63          	beq	s9,s0,8000b328 <smode_lsu_program+0x5cc>
8000b2f0:	015ad993          	srli	s3,s5,0x15
8000b2f4:	bce1a693          	slti	a3,gp,-1074
8000b2f8:	409a5633          	sra	a2,s4,s1
8000b2fc:	bce1a693          	slti	a3,gp,-1074
8000b300:	b35a3893          	sltiu	a7,s4,-1227
8000b304:	05457263          	bgeu	a0,s4,8000b348 <smode_lsu_program+0x5ec>
8000b308:	015f1093          	slli	ra,t5,0x15
8000b30c:	5dff4793          	xori	a5,t5,1503
8000b310:	03a0e063          	bltu	ra,s10,8000b330 <smode_lsu_program+0x5d4>
8000b314:	fb4ee413          	ori	s0,t4,-76
8000b318:	4111dd93          	srai	s11,gp,0x11
8000b31c:	40ed8c33          	sub	s8,s11,a4
8000b320:	01bef5b3          	and	a1,t4,s11
8000b324:	b35a3893          	sltiu	a7,s4,-1227
8000b328:	006410b3          	sll	ra,s0,t1
8000b32c:	000706b3          	add	a3,a4,zero
8000b330:	00406333          	or	t1,zero,tp
8000b334:	cc92a0b7          	lui	ra,0xcc92a
8000b338:	cc92a0b7          	lui	ra,0xcc92a
8000b33c:	b35a3893          	sltiu	a7,s4,-1227
8000b340:	0033c233          	xor	tp,t2,gp
8000b344:	20648893          	addi	a7,s1,518
8000b348:	00000013          	nop
8000b34c:	0ff0000f          	fence
8000b350:	043b4263          	blt	s6,gp,8000b394 <smode_lsu_program+0x638>
8000b354:	018d1863          	bne	s10,s8,8000b364 <smode_lsu_program+0x608>
8000b358:	008c8663          	beq	s9,s0,8000b364 <smode_lsu_program+0x608>
8000b35c:	1d860217          	auipc	tp,0x1d860
8000b360:	018d1463          	bne	s10,s8,8000b368 <smode_lsu_program+0x60c>
8000b364:	4111dd93          	srai	s11,gp,0x11
8000b368:	00cea633          	slt	a2,t4,a2
8000b36c:	00000013          	nop
8000b370:	409a5633          	sra	a2,s4,s1
8000b374:	cc92a0b7          	lui	ra,0xcc92a
8000b378:	023b4e63          	blt	s6,gp,8000b3b4 <smode_lsu_program+0x658>
8000b37c:	00406333          	or	t1,zero,tp
8000b380:	00000013          	nop
8000b384:	5dff4793          	xori	a5,t5,1503
8000b388:	4cb37c13          	andi	s8,t1,1227
8000b38c:	4111dd93          	srai	s11,gp,0x11
8000b390:	038d1263          	bne	s10,s8,8000b3b4 <smode_lsu_program+0x658>
8000b394:	01d2da63          	bge	t0,t4,8000b3a8 <smode_lsu_program+0x64c>
8000b398:	01bef5b3          	and	a1,t4,s11
8000b39c:	0ff0000f          	fence
8000b3a0:	5dff4793          	xori	a5,t5,1503
8000b3a4:	003b4863          	blt	s6,gp,8000b3b4 <smode_lsu_program+0x658>
8000b3a8:	018d1663          	bne	s10,s8,8000b3b4 <smode_lsu_program+0x658>
8000b3ac:	40ed8c33          	sub	s8,s11,a4
8000b3b0:	40ed8c33          	sub	s8,s11,a4
8000b3b4:	00cea633          	slt	a2,t4,a2
8000b3b8:	20648893          	addi	a7,s1,518
8000b3bc:	b35a3893          	sltiu	a7,s4,-1227
8000b3c0:	40ed8c33          	sub	s8,s11,a4
8000b3c4:	0033c233          	xor	tp,t2,gp
8000b3c8:	5dff4793          	xori	a5,t5,1503
8000b3cc:	004e2f83          	lw	t6,4(t3)
8000b3d0:	038e0e13          	addi	t3,t3,56
8000b3d4:	4cb37c13          	andi	s8,t1,1227
8000b3d8:	01bef5b3          	and	a1,t4,s11
8000b3dc:	001f8293          	addi	t0,t6,1
8000b3e0:	000282e7          	jalr	t0,t0
8000b3e4:	00000013          	nop
8000b3e8:	00000013          	nop
8000b3ec:	00000013          	nop
8000b3f0:	00000013          	nop
8000b3f4:	00000013          	nop
8000b3f8:	00000013          	nop
8000b3fc:	00000013          	nop
8000b400:	00000013          	nop
8000b404:	00000013          	nop
8000b408:	00000013          	nop
8000b40c:	00000013          	nop
8000b410:	00000013          	nop
8000b414:	00000013          	nop
8000b418:	00000013          	nop
8000b41c:	00000013          	nop
8000b420:	00000013          	nop
8000b424:	00000013          	nop
8000b428:	00000013          	nop
8000b42c:	00000013          	nop
8000b430:	00000013          	nop
8000b434:	00000013          	nop
8000b438:	00000013          	nop
8000b43c:	00000013          	nop
8000b440:	00000013          	nop
8000b444:	00000013          	nop
8000b448:	00000013          	nop
8000b44c:	00000013          	nop
8000b450:	00000013          	nop
8000b454:	00000013          	nop
8000b458:	00000013          	nop
8000b45c:	00000013          	nop
8000b460:	00000013          	nop
8000b464:	00000013          	nop
8000b468:	00000013          	nop
8000b46c:	00000013          	nop
8000b470:	00000013          	nop
8000b474:	00000013          	nop
8000b478:	00000013          	nop
8000b47c:	00000013          	nop
8000b480:	00000013          	nop
8000b484:	00000013          	nop
8000b488:	00000013          	nop
8000b48c:	00000013          	nop
8000b490:	00000013          	nop
8000b494:	00000013          	nop
8000b498:	00000013          	nop
8000b49c:	00000013          	nop
8000b4a0:	00000013          	nop
8000b4a4:	00000013          	nop
8000b4a8:	00000013          	nop
8000b4ac:	00000013          	nop
8000b4b0:	00000013          	nop
8000b4b4:	00000013          	nop
8000b4b8:	00000013          	nop
8000b4bc:	00000013          	nop
8000b4c0:	00000013          	nop
8000b4c4:	00000013          	nop
8000b4c8:	00000013          	nop
8000b4cc:	00000013          	nop
8000b4d0:	00000013          	nop
8000b4d4:	00000013          	nop
8000b4d8:	00000013          	nop
8000b4dc:	00000013          	nop
8000b4e0:	00000013          	nop
8000b4e4:	00000013          	nop
8000b4e8:	00000013          	nop
8000b4ec:	00000013          	nop
8000b4f0:	00000013          	nop
8000b4f4:	00000013          	nop
8000b4f8:	00000013          	nop
8000b4fc:	00000013          	nop
8000b500:	00000013          	nop
8000b504:	00000013          	nop
8000b508:	00000013          	nop
8000b50c:	00000013          	nop
8000b510:	00000013          	nop
8000b514:	00000013          	nop
8000b518:	00000013          	nop
8000b51c:	00000013          	nop
8000b520:	00000013          	nop
8000b524:	00000013          	nop
8000b528:	00000013          	nop
8000b52c:	00000013          	nop
8000b530:	00000013          	nop
8000b534:	00000013          	nop
8000b538:	00000013          	nop
8000b53c:	00000013          	nop
8000b540:	00000013          	nop
8000b544:	00000013          	nop
8000b548:	00000013          	nop
8000b54c:	00000013          	nop
8000b550:	00000013          	nop
8000b554:	00000013          	nop
8000b558:	00000013          	nop
8000b55c:	00000013          	nop
8000b560:	00000013          	nop
8000b564:	00000013          	nop
8000b568:	00000013          	nop
8000b56c:	00000013          	nop
8000b570:	00000013          	nop
8000b574:	00000013          	nop
8000b578:	00000013          	nop
8000b57c:	00000013          	nop
8000b580:	00000013          	nop
8000b584:	00000013          	nop
8000b588:	00000013          	nop
8000b58c:	00000013          	nop
8000b590:	00000013          	nop
8000b594:	00000013          	nop
8000b598:	00000013          	nop
8000b59c:	00000013          	nop
8000b5a0:	00000013          	nop
8000b5a4:	00000013          	nop
8000b5a8:	00000013          	nop
8000b5ac:	00000013          	nop
8000b5b0:	00000013          	nop
8000b5b4:	00000013          	nop
8000b5b8:	00000013          	nop
8000b5bc:	00000013          	nop
8000b5c0:	00000013          	nop
8000b5c4:	00000013          	nop
8000b5c8:	00000013          	nop
8000b5cc:	00000013          	nop
8000b5d0:	00000013          	nop
8000b5d4:	00000013          	nop
8000b5d8:	00000013          	nop
8000b5dc:	00000013          	nop
8000b5e0:	00000013          	nop
8000b5e4:	00000013          	nop
8000b5e8:	00000013          	nop
8000b5ec:	00000013          	nop
8000b5f0:	00000013          	nop
8000b5f4:	00000013          	nop
8000b5f8:	00000013          	nop
8000b5fc:	00000013          	nop
8000b600:	00000013          	nop
8000b604:	00000013          	nop
8000b608:	00000013          	nop
8000b60c:	00000013          	nop
8000b610:	00000013          	nop
8000b614:	00000013          	nop
8000b618:	00000013          	nop
8000b61c:	00000013          	nop
8000b620:	00000013          	nop
8000b624:	00000013          	nop
8000b628:	00000013          	nop
8000b62c:	00000013          	nop
8000b630:	00000013          	nop
8000b634:	00000013          	nop
8000b638:	00000013          	nop
8000b63c:	00000013          	nop
8000b640:	00000013          	nop
8000b644:	00000013          	nop
8000b648:	00000013          	nop
8000b64c:	00000013          	nop
8000b650:	00000013          	nop
8000b654:	00000013          	nop
8000b658:	00000013          	nop
8000b65c:	00000013          	nop
8000b660:	00000013          	nop
8000b664:	00000013          	nop
8000b668:	00000013          	nop
8000b66c:	00000013          	nop
8000b670:	00000013          	nop
8000b674:	00000013          	nop
8000b678:	00000013          	nop
8000b67c:	00000013          	nop
8000b680:	00000013          	nop
8000b684:	00000013          	nop
8000b688:	00000013          	nop
8000b68c:	00000013          	nop
8000b690:	00000013          	nop
8000b694:	00000013          	nop
8000b698:	00000013          	nop
8000b69c:	00000013          	nop
8000b6a0:	00000013          	nop
8000b6a4:	00000013          	nop
8000b6a8:	00000013          	nop
8000b6ac:	00000013          	nop
8000b6b0:	00000013          	nop
8000b6b4:	00000013          	nop
8000b6b8:	00000013          	nop
8000b6bc:	00000013          	nop
8000b6c0:	00000013          	nop
8000b6c4:	00000013          	nop
8000b6c8:	00000013          	nop
8000b6cc:	00000013          	nop
8000b6d0:	00000013          	nop
8000b6d4:	00000013          	nop
8000b6d8:	00000013          	nop
8000b6dc:	00000013          	nop
8000b6e0:	00000013          	nop
8000b6e4:	00000013          	nop
8000b6e8:	00000013          	nop
8000b6ec:	00000013          	nop
8000b6f0:	00000013          	nop
8000b6f4:	00000013          	nop
8000b6f8:	00000013          	nop
8000b6fc:	00000013          	nop
8000b700:	00000013          	nop
8000b704:	00000013          	nop
8000b708:	00000013          	nop
8000b70c:	00000013          	nop
8000b710:	00000013          	nop
8000b714:	00000013          	nop
8000b718:	00000013          	nop
8000b71c:	00000013          	nop
8000b720:	00000013          	nop
8000b724:	00000013          	nop
8000b728:	00000013          	nop
8000b72c:	00000013          	nop
8000b730:	00000013          	nop
8000b734:	00000013          	nop
8000b738:	00000013          	nop
8000b73c:	00000013          	nop
8000b740:	00000013          	nop
8000b744:	00000013          	nop
8000b748:	00000013          	nop
8000b74c:	00000013          	nop
8000b750:	00000013          	nop
8000b754:	00000013          	nop
8000b758:	00000013          	nop
8000b75c:	00000013          	nop
8000b760:	00000013          	nop
8000b764:	00000013          	nop
8000b768:	00000013          	nop
8000b76c:	00000013          	nop
8000b770:	00000013          	nop
8000b774:	00000013          	nop
8000b778:	00000013          	nop
8000b77c:	00000013          	nop
8000b780:	00000013          	nop
8000b784:	00000013          	nop
8000b788:	00000013          	nop
8000b78c:	00000013          	nop
8000b790:	00000013          	nop
8000b794:	00000013          	nop
8000b798:	00000013          	nop
8000b79c:	00000013          	nop
8000b7a0:	00000013          	nop
8000b7a4:	00000013          	nop
8000b7a8:	00000013          	nop
8000b7ac:	00000013          	nop
8000b7b0:	00000013          	nop
8000b7b4:	00000013          	nop
8000b7b8:	00000013          	nop
8000b7bc:	00000013          	nop
8000b7c0:	00000013          	nop
8000b7c4:	00000013          	nop
8000b7c8:	00000013          	nop
8000b7cc:	00000013          	nop
8000b7d0:	00000013          	nop
8000b7d4:	00000013          	nop
8000b7d8:	00000013          	nop
8000b7dc:	00000013          	nop
8000b7e0:	00000013          	nop
8000b7e4:	00000013          	nop
8000b7e8:	00000013          	nop
8000b7ec:	00000013          	nop
8000b7f0:	00000013          	nop
8000b7f4:	00000013          	nop
8000b7f8:	00000013          	nop
8000b7fc:	00000013          	nop
8000b800:	00000013          	nop
8000b804:	00000013          	nop
8000b808:	00000013          	nop
8000b80c:	00000013          	nop
8000b810:	00000013          	nop
8000b814:	00000013          	nop
8000b818:	00000013          	nop
8000b81c:	00000013          	nop
8000b820:	00000013          	nop
8000b824:	00000013          	nop
8000b828:	00000013          	nop
8000b82c:	00000013          	nop
8000b830:	00000013          	nop
8000b834:	00000013          	nop
8000b838:	00000013          	nop
8000b83c:	00000013          	nop
8000b840:	00000013          	nop
8000b844:	00000013          	nop
8000b848:	00000013          	nop
8000b84c:	00000013          	nop
8000b850:	00000013          	nop
8000b854:	00000013          	nop
8000b858:	00000013          	nop
8000b85c:	00000013          	nop
8000b860:	00000013          	nop
8000b864:	00000013          	nop
8000b868:	00000013          	nop
8000b86c:	00000013          	nop
8000b870:	00000013          	nop
8000b874:	00000013          	nop
8000b878:	00000013          	nop
8000b87c:	00000013          	nop
8000b880:	00000013          	nop
8000b884:	00000013          	nop
8000b888:	00000013          	nop
8000b88c:	00000013          	nop
8000b890:	00000013          	nop
8000b894:	00000013          	nop
8000b898:	00000013          	nop
8000b89c:	00000013          	nop
8000b8a0:	00000013          	nop
8000b8a4:	00000013          	nop
8000b8a8:	00000013          	nop
8000b8ac:	00000013          	nop
8000b8b0:	00000013          	nop
8000b8b4:	00000013          	nop
8000b8b8:	00000013          	nop
8000b8bc:	00000013          	nop
8000b8c0:	00000013          	nop
8000b8c4:	00000013          	nop
8000b8c8:	00000013          	nop
8000b8cc:	00000013          	nop
8000b8d0:	00000013          	nop
8000b8d4:	00000013          	nop
8000b8d8:	00000013          	nop
8000b8dc:	00000013          	nop
8000b8e0:	00000013          	nop
8000b8e4:	00000013          	nop
8000b8e8:	00000013          	nop
8000b8ec:	00000013          	nop
8000b8f0:	00000013          	nop
8000b8f4:	00000013          	nop
8000b8f8:	00000013          	nop
8000b8fc:	00000013          	nop
8000b900:	00000013          	nop
8000b904:	00000013          	nop
8000b908:	00000013          	nop
8000b90c:	00000013          	nop
8000b910:	00000013          	nop
8000b914:	00000013          	nop
8000b918:	00000013          	nop
8000b91c:	00000013          	nop
8000b920:	00000013          	nop
8000b924:	00000013          	nop
8000b928:	00000013          	nop
8000b92c:	00000013          	nop
8000b930:	00000013          	nop
8000b934:	00000013          	nop
8000b938:	00000013          	nop
8000b93c:	00000013          	nop
8000b940:	00000013          	nop
8000b944:	00000013          	nop
8000b948:	00000013          	nop
8000b94c:	00000013          	nop
8000b950:	00000013          	nop
8000b954:	00000013          	nop
8000b958:	00000013          	nop
8000b95c:	00000013          	nop
8000b960:	00000013          	nop
8000b964:	00000013          	nop
8000b968:	00000013          	nop
8000b96c:	00000013          	nop
8000b970:	00000013          	nop
8000b974:	00000013          	nop
8000b978:	00000013          	nop
8000b97c:	00000013          	nop
8000b980:	00000013          	nop
8000b984:	00000013          	nop
8000b988:	00000013          	nop
8000b98c:	00000013          	nop
8000b990:	00000013          	nop
8000b994:	00000013          	nop
8000b998:	00000013          	nop
8000b99c:	00000013          	nop
8000b9a0:	00000013          	nop
8000b9a4:	00000013          	nop
8000b9a8:	00000013          	nop
8000b9ac:	00000013          	nop
8000b9b0:	00000013          	nop
8000b9b4:	00000013          	nop
8000b9b8:	00000013          	nop
8000b9bc:	00000013          	nop
8000b9c0:	00000013          	nop
8000b9c4:	00000013          	nop
8000b9c8:	00000013          	nop
8000b9cc:	00000013          	nop
8000b9d0:	00000013          	nop
8000b9d4:	00000013          	nop
8000b9d8:	00000013          	nop
8000b9dc:	00000013          	nop
8000b9e0:	00000013          	nop
8000b9e4:	00000013          	nop
8000b9e8:	00000013          	nop
8000b9ec:	00000013          	nop
8000b9f0:	00000013          	nop
8000b9f4:	00000013          	nop
8000b9f8:	00000013          	nop
8000b9fc:	00000013          	nop
8000ba00:	00000013          	nop
8000ba04:	00000013          	nop
8000ba08:	00000013          	nop
8000ba0c:	00000013          	nop
8000ba10:	00000013          	nop
8000ba14:	00000013          	nop
8000ba18:	00000013          	nop
8000ba1c:	00000013          	nop
8000ba20:	00000013          	nop
8000ba24:	00000013          	nop
8000ba28:	00000013          	nop
8000ba2c:	00000013          	nop
8000ba30:	00000013          	nop
8000ba34:	00000013          	nop
8000ba38:	00000013          	nop
8000ba3c:	00000013          	nop
8000ba40:	00000013          	nop
8000ba44:	00000013          	nop
8000ba48:	00000013          	nop
8000ba4c:	00000013          	nop
8000ba50:	00000013          	nop
8000ba54:	00000013          	nop
8000ba58:	00000013          	nop
8000ba5c:	00000013          	nop
8000ba60:	00000013          	nop
8000ba64:	00000013          	nop
8000ba68:	00000013          	nop
8000ba6c:	00000013          	nop
8000ba70:	00000013          	nop
8000ba74:	00000013          	nop
8000ba78:	00000013          	nop
8000ba7c:	00000013          	nop
8000ba80:	00000013          	nop
8000ba84:	00000013          	nop
8000ba88:	00000013          	nop
8000ba8c:	00000013          	nop
8000ba90:	00000013          	nop
8000ba94:	00000013          	nop
8000ba98:	00000013          	nop
8000ba9c:	00000013          	nop
8000baa0:	00000013          	nop
8000baa4:	00000013          	nop
8000baa8:	00000013          	nop
8000baac:	00000013          	nop
8000bab0:	00000013          	nop
8000bab4:	00000013          	nop
8000bab8:	00000013          	nop
8000babc:	00000013          	nop
8000bac0:	00000013          	nop
8000bac4:	00000013          	nop
8000bac8:	00000013          	nop
8000bacc:	00000013          	nop
8000bad0:	00000013          	nop
8000bad4:	00000013          	nop
8000bad8:	00000013          	nop
8000badc:	00000013          	nop
8000bae0:	00000013          	nop
8000bae4:	00000013          	nop
8000bae8:	00000013          	nop
8000baec:	00000013          	nop
8000baf0:	00000013          	nop
8000baf4:	00000013          	nop
8000baf8:	00000013          	nop
8000bafc:	00000013          	nop
8000bb00:	00000013          	nop
8000bb04:	00000013          	nop
8000bb08:	00000013          	nop
8000bb0c:	00000013          	nop
8000bb10:	00000013          	nop
8000bb14:	00000013          	nop
8000bb18:	00000013          	nop
8000bb1c:	00000013          	nop
8000bb20:	00000013          	nop
8000bb24:	00000013          	nop
8000bb28:	00000013          	nop
8000bb2c:	00000013          	nop
8000bb30:	00000013          	nop
8000bb34:	00000013          	nop
8000bb38:	00000013          	nop
8000bb3c:	00000013          	nop
8000bb40:	00000013          	nop
8000bb44:	00000013          	nop
8000bb48:	00000013          	nop
8000bb4c:	00000013          	nop
8000bb50:	00000013          	nop
8000bb54:	00000013          	nop
8000bb58:	00000013          	nop
8000bb5c:	00000013          	nop
8000bb60:	00000013          	nop
8000bb64:	00000013          	nop
8000bb68:	00000013          	nop
8000bb6c:	00000013          	nop
8000bb70:	00000013          	nop
8000bb74:	00000013          	nop
8000bb78:	00000013          	nop
8000bb7c:	00000013          	nop
8000bb80:	00000013          	nop
8000bb84:	00000013          	nop
8000bb88:	00000013          	nop
8000bb8c:	00000013          	nop
8000bb90:	00000013          	nop
8000bb94:	00000013          	nop
8000bb98:	00000013          	nop
8000bb9c:	00000013          	nop
8000bba0:	00000013          	nop
8000bba4:	00000013          	nop
8000bba8:	00000013          	nop
8000bbac:	00000013          	nop
8000bbb0:	00000013          	nop
8000bbb4:	00000013          	nop
8000bbb8:	00000013          	nop
8000bbbc:	00000013          	nop
8000bbc0:	00000013          	nop
8000bbc4:	00000013          	nop
8000bbc8:	00000013          	nop
8000bbcc:	00000013          	nop
8000bbd0:	00000013          	nop
8000bbd4:	00000013          	nop
8000bbd8:	00000013          	nop
8000bbdc:	00000013          	nop
8000bbe0:	00000013          	nop
8000bbe4:	00000013          	nop
8000bbe8:	00000013          	nop
8000bbec:	00000013          	nop
8000bbf0:	00000013          	nop
8000bbf4:	00000013          	nop
8000bbf8:	00000013          	nop
8000bbfc:	00000013          	nop
8000bc00:	00000013          	nop
8000bc04:	00000013          	nop
8000bc08:	00000013          	nop
8000bc0c:	00000013          	nop
8000bc10:	00000013          	nop
8000bc14:	00000013          	nop
8000bc18:	00000013          	nop
8000bc1c:	00000013          	nop
8000bc20:	00000013          	nop
8000bc24:	00000013          	nop
8000bc28:	00000013          	nop
8000bc2c:	00000013          	nop
8000bc30:	00000013          	nop
8000bc34:	00000013          	nop
8000bc38:	00000013          	nop
8000bc3c:	00000013          	nop
8000bc40:	00000013          	nop
8000bc44:	00000013          	nop
8000bc48:	00000013          	nop
8000bc4c:	00000013          	nop
8000bc50:	00000013          	nop
8000bc54:	00000013          	nop
8000bc58:	00000013          	nop
8000bc5c:	00000013          	nop
8000bc60:	00000013          	nop
8000bc64:	00000013          	nop
8000bc68:	00000013          	nop
8000bc6c:	00000013          	nop
8000bc70:	00000013          	nop
8000bc74:	00000013          	nop
8000bc78:	00000013          	nop
8000bc7c:	00000013          	nop
8000bc80:	00000013          	nop
8000bc84:	00000013          	nop
8000bc88:	00000013          	nop
8000bc8c:	00000013          	nop
8000bc90:	00000013          	nop
8000bc94:	00000013          	nop
8000bc98:	00000013          	nop
8000bc9c:	00000013          	nop
8000bca0:	00000013          	nop
8000bca4:	00000013          	nop
8000bca8:	00000013          	nop
8000bcac:	00000013          	nop
8000bcb0:	00000013          	nop
8000bcb4:	00000013          	nop
8000bcb8:	00000013          	nop
8000bcbc:	00000013          	nop
8000bcc0:	00000013          	nop
8000bcc4:	00000013          	nop
8000bcc8:	00000013          	nop
8000bccc:	00000013          	nop
8000bcd0:	00000013          	nop
8000bcd4:	00000013          	nop
8000bcd8:	00000013          	nop
8000bcdc:	00000013          	nop
8000bce0:	00000013          	nop
8000bce4:	00000013          	nop
8000bce8:	00000013          	nop
8000bcec:	00000013          	nop
8000bcf0:	00000013          	nop
8000bcf4:	00000013          	nop
8000bcf8:	00000013          	nop
8000bcfc:	00000013          	nop
8000bd00:	00000013          	nop
8000bd04:	00000013          	nop
8000bd08:	00000013          	nop
8000bd0c:	00000013          	nop
8000bd10:	00000013          	nop
8000bd14:	00000013          	nop
8000bd18:	00000013          	nop
8000bd1c:	00000013          	nop
8000bd20:	00000013          	nop
8000bd24:	00000013          	nop
8000bd28:	00000013          	nop
8000bd2c:	00000013          	nop
8000bd30:	00000013          	nop
8000bd34:	00000013          	nop
8000bd38:	00000013          	nop
8000bd3c:	00000013          	nop
8000bd40:	00000013          	nop
8000bd44:	00000013          	nop
8000bd48:	00000013          	nop
8000bd4c:	00000013          	nop
8000bd50:	00000013          	nop
8000bd54:	00000013          	nop
8000bd58:	00000013          	nop
8000bd5c:	00000013          	nop
8000bd60:	00000013          	nop
8000bd64:	00000013          	nop
8000bd68:	00000013          	nop
8000bd6c:	00000013          	nop
8000bd70:	00000013          	nop
8000bd74:	00000013          	nop
8000bd78:	00000013          	nop
8000bd7c:	00000013          	nop
8000bd80:	00000013          	nop
8000bd84:	00000013          	nop
8000bd88:	00000013          	nop
8000bd8c:	00000013          	nop
8000bd90:	00000013          	nop
8000bd94:	00000013          	nop
8000bd98:	00000013          	nop
8000bd9c:	00000013          	nop
8000bda0:	00000013          	nop
8000bda4:	00000013          	nop
8000bda8:	00000013          	nop
8000bdac:	00000013          	nop
8000bdb0:	00000013          	nop
8000bdb4:	00000013          	nop
8000bdb8:	00000013          	nop
8000bdbc:	00000013          	nop
8000bdc0:	00000013          	nop
8000bdc4:	00000013          	nop
8000bdc8:	00000013          	nop
8000bdcc:	00000013          	nop
8000bdd0:	00000013          	nop
8000bdd4:	00000013          	nop
8000bdd8:	00000013          	nop
8000bddc:	00000013          	nop
8000bde0:	00000013          	nop
8000bde4:	00000013          	nop
8000bde8:	00000013          	nop
8000bdec:	00000013          	nop
8000bdf0:	00000013          	nop
8000bdf4:	00000013          	nop
8000bdf8:	00000013          	nop
8000bdfc:	00000013          	nop
8000be00:	00000013          	nop
8000be04:	00000013          	nop
8000be08:	00000013          	nop
8000be0c:	00000013          	nop
8000be10:	00000013          	nop
8000be14:	00000013          	nop
8000be18:	00000013          	nop
8000be1c:	00000013          	nop
8000be20:	00000013          	nop
8000be24:	00000013          	nop
8000be28:	00000013          	nop
8000be2c:	00000013          	nop
8000be30:	00000013          	nop
8000be34:	00000013          	nop
8000be38:	00000013          	nop
8000be3c:	00000013          	nop
8000be40:	00000013          	nop
8000be44:	00000013          	nop
8000be48:	00000013          	nop
8000be4c:	00000013          	nop
8000be50:	00000013          	nop
8000be54:	00000013          	nop
8000be58:	00000013          	nop
8000be5c:	00000013          	nop
8000be60:	00000013          	nop
8000be64:	00000013          	nop
8000be68:	00000013          	nop
8000be6c:	00000013          	nop
8000be70:	00000013          	nop
8000be74:	00000013          	nop
8000be78:	00000013          	nop
8000be7c:	00000013          	nop
8000be80:	00000013          	nop
8000be84:	00000013          	nop
8000be88:	00000013          	nop
8000be8c:	00000013          	nop
8000be90:	00000013          	nop
8000be94:	00000013          	nop
8000be98:	00000013          	nop
8000be9c:	00000013          	nop
8000bea0:	00000013          	nop
8000bea4:	00000013          	nop
8000bea8:	00000013          	nop
8000beac:	00000013          	nop
8000beb0:	00000013          	nop
8000beb4:	00000013          	nop
8000beb8:	00000013          	nop
8000bebc:	00000013          	nop
8000bec0:	00000013          	nop
8000bec4:	00000013          	nop
8000bec8:	00000013          	nop
8000becc:	00000013          	nop
8000bed0:	00000013          	nop
8000bed4:	00000013          	nop
8000bed8:	00000013          	nop
8000bedc:	00000013          	nop
8000bee0:	00000013          	nop
8000bee4:	00000013          	nop
8000bee8:	00000013          	nop
8000beec:	00000013          	nop
8000bef0:	00000013          	nop
8000bef4:	00000013          	nop
8000bef8:	00000013          	nop
8000befc:	00000013          	nop
8000bf00:	00000013          	nop
8000bf04:	00000013          	nop
8000bf08:	00000013          	nop
8000bf0c:	00000013          	nop
8000bf10:	00000013          	nop
8000bf14:	00000013          	nop
8000bf18:	00000013          	nop
8000bf1c:	00000013          	nop
8000bf20:	00000013          	nop
8000bf24:	00000013          	nop
8000bf28:	00000013          	nop
8000bf2c:	00000013          	nop
8000bf30:	00000013          	nop
8000bf34:	00000013          	nop
8000bf38:	00000013          	nop
8000bf3c:	00000013          	nop
8000bf40:	00000013          	nop
8000bf44:	00000013          	nop
8000bf48:	00000013          	nop
8000bf4c:	00000013          	nop
8000bf50:	00000013          	nop
8000bf54:	00000013          	nop
8000bf58:	00000013          	nop
8000bf5c:	00000013          	nop
8000bf60:	00000013          	nop
8000bf64:	00000013          	nop
8000bf68:	00000013          	nop
8000bf6c:	00000013          	nop
8000bf70:	00000013          	nop
8000bf74:	00000013          	nop
8000bf78:	00000013          	nop
8000bf7c:	00000013          	nop
8000bf80:	00000013          	nop
8000bf84:	00000013          	nop
8000bf88:	00000013          	nop
8000bf8c:	00000013          	nop
8000bf90:	00000013          	nop
8000bf94:	00000013          	nop
8000bf98:	00000013          	nop
8000bf9c:	00000013          	nop
8000bfa0:	00000013          	nop
8000bfa4:	00000013          	nop
8000bfa8:	00000013          	nop
8000bfac:	00000013          	nop
8000bfb0:	00000013          	nop
8000bfb4:	00000013          	nop
8000bfb8:	00000013          	nop
8000bfbc:	00000013          	nop
8000bfc0:	00000013          	nop
8000bfc4:	00000013          	nop
8000bfc8:	00000013          	nop
8000bfcc:	00000013          	nop
8000bfd0:	00000013          	nop
8000bfd4:	00000013          	nop
8000bfd8:	00000013          	nop
8000bfdc:	00000013          	nop
8000bfe0:	00000013          	nop
8000bfe4:	00000013          	nop
8000bfe8:	00000013          	nop
8000bfec:	00000013          	nop
8000bff0:	00000013          	nop
8000bff4:	00000013          	nop
8000bff8:	00000013          	nop
8000bffc:	00000013          	nop

8000c000 <mtvec_handler>:
8000c000:	340e1e73          	csrrw	t3,mscratch,t3
8000c004:	000a8e33          	add	t3,s5,zero
8000c008:	f84e0e13          	addi	t3,t3,-124
8000c00c:	001e2223          	sw	ra,4(t3)
8000c010:	002e2423          	sw	sp,8(t3)
8000c014:	003e2623          	sw	gp,12(t3)
8000c018:	004e2823          	sw	tp,16(t3)
8000c01c:	005e2a23          	sw	t0,20(t3)
8000c020:	006e2c23          	sw	t1,24(t3)
8000c024:	007e2e23          	sw	t2,28(t3)
8000c028:	028e2023          	sw	s0,32(t3)
8000c02c:	029e2223          	sw	s1,36(t3)
8000c030:	02ae2423          	sw	a0,40(t3)
8000c034:	02be2623          	sw	a1,44(t3)
8000c038:	02ce2823          	sw	a2,48(t3)
8000c03c:	02de2a23          	sw	a3,52(t3)
8000c040:	02ee2c23          	sw	a4,56(t3)
8000c044:	02fe2e23          	sw	a5,60(t3)
8000c048:	050e2023          	sw	a6,64(t3)
8000c04c:	051e2223          	sw	a7,68(t3)
8000c050:	052e2423          	sw	s2,72(t3)
8000c054:	053e2623          	sw	s3,76(t3)
8000c058:	054e2823          	sw	s4,80(t3)
8000c05c:	055e2a23          	sw	s5,84(t3)
8000c060:	056e2c23          	sw	s6,88(t3)
8000c064:	057e2e23          	sw	s7,92(t3)
8000c068:	078e2023          	sw	s8,96(t3)
8000c06c:	079e2223          	sw	s9,100(t3)
8000c070:	07ae2423          	sw	s10,104(t3)
8000c074:	07be2623          	sw	s11,108(t3)
8000c078:	07ce2823          	sw	t3,112(t3)
8000c07c:	07de2a23          	sw	t4,116(t3)
8000c080:	07ee2c23          	sw	t5,120(t3)
8000c084:	07fe2e23          	sw	t6,124(t3)
8000c088:	30002873          	csrr	a6,mstatus
8000c08c:	34202873          	csrr	a6,mcause
8000c090:	01f85813          	srli	a6,a6,0x1f
8000c094:	00080463          	beqz	a6,8000c09c <mmode_exception_handler>
8000c098:	7690006f          	j	8000d000 <mmode_intr_handler>

8000c09c <mmode_exception_handler>:
8000c09c:	34102873          	csrr	a6,mepc
8000c0a0:	34202873          	csrr	a6,mcause
8000c0a4:	00300493          	li	s1,3
8000c0a8:	7a980c63          	beq	a6,s1,8000c860 <ebreak_handler>
8000c0ac:	00800493          	li	s1,8
8000c0b0:	04980e63          	beq	a6,s1,8000c10c <ecall_handler>
8000c0b4:	00900493          	li	s1,9
8000c0b8:	04980a63          	beq	a6,s1,8000c10c <ecall_handler>
8000c0bc:	00b00493          	li	s1,11
8000c0c0:	04980663          	beq	a6,s1,8000c10c <ecall_handler>
8000c0c4:	00100493          	li	s1,1
8000c0c8:	0c980c63          	beq	a6,s1,8000c1a0 <instr_fault_handler>
8000c0cc:	00500493          	li	s1,5
8000c0d0:	30980863          	beq	a6,s1,8000c3e0 <load_fault_handler>
8000c0d4:	00700493          	li	s1,7
8000c0d8:	54980463          	beq	a6,s1,8000c620 <store_fault_handler>
8000c0dc:	00c00493          	li	s1,12
8000c0e0:	0a9808e3          	beq	a6,s1,8000c990 <pt_fault_handler>
8000c0e4:	00d00493          	li	s1,13
8000c0e8:	0a9804e3          	beq	a6,s1,8000c990 <pt_fault_handler>
8000c0ec:	00f00493          	li	s1,15
8000c0f0:	0a9800e3          	beq	a6,s1,8000c990 <pt_fault_handler>
8000c0f4:	00200493          	li	s1,2
8000c0f8:	009800e3          	beq	a6,s1,8000c8f8 <illegal_instr_handler>
8000c0fc:	343024f3          	csrr	s1,mtval
8000c100:	ffff8d17          	auipc	s10,0xffff8
8000c104:	cb0d0d13          	addi	s10,s10,-848 # 80003db0 <test_done>
8000c108:	000d00e7          	jalr	s10

8000c10c <ecall_handler>:
8000c10c:	ffff4817          	auipc	a6,0xffff4
8000c110:	ef480813          	addi	a6,a6,-268 # 80000000 <_start>
8000c114:	00082023          	sw	zero,0(a6)
8000c118:	00182223          	sw	ra,4(a6)
8000c11c:	00282423          	sw	sp,8(a6)
8000c120:	00382623          	sw	gp,12(a6)
8000c124:	00482823          	sw	tp,16(a6)
8000c128:	00582a23          	sw	t0,20(a6)
8000c12c:	00682c23          	sw	t1,24(a6)
8000c130:	00782e23          	sw	t2,28(a6)
8000c134:	02882023          	sw	s0,32(a6)
8000c138:	02982223          	sw	s1,36(a6)
8000c13c:	02a82423          	sw	a0,40(a6)
8000c140:	02b82623          	sw	a1,44(a6)
8000c144:	02c82823          	sw	a2,48(a6)
8000c148:	02d82a23          	sw	a3,52(a6)
8000c14c:	02e82c23          	sw	a4,56(a6)
8000c150:	02f82e23          	sw	a5,60(a6)
8000c154:	05082023          	sw	a6,64(a6)
8000c158:	05182223          	sw	a7,68(a6)
8000c15c:	05282423          	sw	s2,72(a6)
8000c160:	05382623          	sw	s3,76(a6)
8000c164:	05482823          	sw	s4,80(a6)
8000c168:	05582a23          	sw	s5,84(a6)
8000c16c:	05682c23          	sw	s6,88(a6)
8000c170:	05782e23          	sw	s7,92(a6)
8000c174:	07882023          	sw	s8,96(a6)
8000c178:	07982223          	sw	s9,100(a6)
8000c17c:	07a82423          	sw	s10,104(a6)
8000c180:	07b82623          	sw	s11,108(a6)
8000c184:	07c82823          	sw	t3,112(a6)
8000c188:	07d82a23          	sw	t4,116(a6)
8000c18c:	07e82c23          	sw	t5,120(a6)
8000c190:	07f82e23          	sw	t6,124(a6)
8000c194:	ffffed17          	auipc	s10,0xffffe
8000c198:	e74d0d13          	addi	s10,s10,-396 # 8000a008 <write_tohost>
8000c19c:	000d0067          	jr	s10

8000c1a0 <instr_fault_handler>:
8000c1a0:	00000813          	li	a6,0
8000c1a4:	34081073          	csrw	mscratch,a6
8000c1a8:	00000613          	li	a2,0
8000c1ac:	34002873          	csrr	a6,mscratch
8000c1b0:	00080d13          	mv	s10,a6
8000c1b4:	00000d13          	li	s10,0
8000c1b8:	01a80263          	beq	a6,s10,8000c1bc <instr_fault_handler+0x1c>
8000c1bc:	3b0024f3          	csrr	s1,pmpaddr0
8000c1c0:	3a0022f3          	csrr	t0,pmpcfg0
8000c1c4:	0040006f          	j	8000c1c8 <instr_fault_handler+0x28>
8000c1c8:	00400c13          	li	s8,4
8000c1cc:	34002873          	csrr	a6,mscratch
8000c1d0:	01e81813          	slli	a6,a6,0x1e
8000c1d4:	01e85813          	srli	a6,a6,0x1e
8000c1d8:	410c0d33          	sub	s10,s8,a6
8000c1dc:	fffd0d13          	addi	s10,s10,-1
8000c1e0:	003d1d13          	slli	s10,s10,0x3
8000c1e4:	01a29c33          	sll	s8,t0,s10
8000c1e8:	00381813          	slli	a6,a6,0x3
8000c1ec:	010d0d33          	add	s10,s10,a6
8000c1f0:	01ac5c33          	srl	s8,s8,s10
8000c1f4:	01bc1d13          	slli	s10,s8,0x1b
8000c1f8:	01ed5d13          	srli	s10,s10,0x1e
8000c1fc:	040d0863          	beqz	s10,8000c24c <instr_fault_handler+0xac>
8000c200:	00100813          	li	a6,1
8000c204:	050d0663          	beq	s10,a6,8000c250 <instr_fault_handler+0xb0>
8000c208:	00200813          	li	a6,2
8000c20c:	070d0e63          	beq	s10,a6,8000c288 <instr_fault_handler+0xe8>
8000c210:	00300813          	li	a6,3
8000c214:	0b0d0063          	beq	s10,a6,8000c2b4 <instr_fault_handler+0x114>
8000c218:	ffff8817          	auipc	a6,0xffff8
8000c21c:	b9880813          	addi	a6,a6,-1128 # 80003db0 <test_done>
8000c220:	00080067          	jr	a6
8000c224:	34002873          	csrr	a6,mscratch
8000c228:	00048613          	mv	a2,s1
8000c22c:	00180813          	addi	a6,a6,1
8000c230:	34081073          	csrw	mscratch,a6
8000c234:	00100493          	li	s1,1
8000c238:	00985463          	bge	a6,s1,8000c240 <instr_fault_handler+0xa0>
8000c23c:	f71ff06f          	j	8000c1ac <instr_fault_handler+0xc>
8000c240:	ffff8817          	auipc	a6,0xffff8
8000c244:	b7080813          	addi	a6,a6,-1168 # 80003db0 <test_done>
8000c248:	00080067          	jr	a6
8000c24c:	fd9ff06f          	j	8000c224 <instr_fault_handler+0x84>
8000c250:	34002873          	csrr	a6,mscratch
8000c254:	34302d73          	csrr	s10,mtval
8000c258:	002d5d13          	srli	s10,s10,0x2
8000c25c:	00081663          	bnez	a6,8000c268 <instr_fault_handler+0xc8>
8000c260:	fc0d42e3          	bltz	s10,8000c224 <instr_fault_handler+0x84>
8000c264:	0080006f          	j	8000c26c <instr_fault_handler+0xcc>
8000c268:	facd6ee3          	bltu	s10,a2,8000c224 <instr_fault_handler+0x84>
8000c26c:	fa9d7ce3          	bgeu	s10,s1,8000c224 <instr_fault_handler+0x84>
8000c270:	080c7d13          	andi	s10,s8,128
8000c274:	000d0863          	beqz	s10,8000c284 <instr_fault_handler+0xe4>
8000c278:	ffff8817          	auipc	a6,0xffff8
8000c27c:	b3880813          	addi	a6,a6,-1224 # 80003db0 <test_done>
8000c280:	00080067          	jr	a6
8000c284:	06c0006f          	j	8000c2f0 <instr_fault_handler+0x150>
8000c288:	34302873          	csrr	a6,mtval
8000c28c:	00285813          	srli	a6,a6,0x2
8000c290:	00249d13          	slli	s10,s1,0x2
8000c294:	002d5d13          	srli	s10,s10,0x2
8000c298:	f9a816e3          	bne	a6,s10,8000c224 <instr_fault_handler+0x84>
8000c29c:	080c7d13          	andi	s10,s8,128
8000c2a0:	000d0863          	beqz	s10,8000c2b0 <instr_fault_handler+0x110>
8000c2a4:	ffff8817          	auipc	a6,0xffff8
8000c2a8:	b0c80813          	addi	a6,a6,-1268 # 80003db0 <test_done>
8000c2ac:	00080067          	jr	a6
8000c2b0:	0400006f          	j	8000c2f0 <instr_fault_handler+0x150>
8000c2b4:	34302873          	csrr	a6,mtval
8000c2b8:	00285813          	srli	a6,a6,0x2
8000c2bc:	00085813          	srli	a6,a6,0x0
8000c2c0:	00081813          	slli	a6,a6,0x0
8000c2c4:	00249d13          	slli	s10,s1,0x2
8000c2c8:	002d5d13          	srli	s10,s10,0x2
8000c2cc:	000d5d13          	srli	s10,s10,0x0
8000c2d0:	000d1d13          	slli	s10,s10,0x0
8000c2d4:	f5a818e3          	bne	a6,s10,8000c224 <instr_fault_handler+0x84>
8000c2d8:	080c7d13          	andi	s10,s8,128
8000c2dc:	000d0a63          	beqz	s10,8000c2f0 <instr_fault_handler+0x150>
8000c2e0:	ffff8817          	auipc	a6,0xffff8
8000c2e4:	ad080813          	addi	a6,a6,-1328 # 80003db0 <test_done>
8000c2e8:	00080067          	jr	a6
8000c2ec:	0040006f          	j	8000c2f0 <instr_fault_handler+0x150>
8000c2f0:	004c6c13          	ori	s8,s8,4
8000c2f4:	34002873          	csrr	a6,mscratch
8000c2f8:	01e00d13          	li	s10,30
8000c2fc:	01a81833          	sll	a6,a6,s10
8000c300:	01a85833          	srl	a6,a6,s10
8000c304:	00381d13          	slli	s10,a6,0x3
8000c308:	01ac1c33          	sll	s8,s8,s10
8000c30c:	0182e2b3          	or	t0,t0,s8
8000c310:	34002873          	csrr	a6,mscratch
8000c314:	00285813          	srli	a6,a6,0x2
8000c318:	00080e63          	beqz	a6,8000c334 <instr_fault_handler+0x194>
8000c31c:	00100d13          	li	s10,1
8000c320:	01a80e63          	beq	a6,s10,8000c33c <instr_fault_handler+0x19c>
8000c324:	00200d13          	li	s10,2
8000c328:	01a80e63          	beq	a6,s10,8000c344 <instr_fault_handler+0x1a4>
8000c32c:	00300d13          	li	s10,3
8000c330:	01a80e63          	beq	a6,s10,8000c34c <instr_fault_handler+0x1ac>
8000c334:	3a029073          	csrw	pmpcfg0,t0
8000c338:	0180006f          	j	8000c350 <instr_fault_handler+0x1b0>
8000c33c:	3a129073          	csrw	pmpcfg1,t0
8000c340:	0100006f          	j	8000c350 <instr_fault_handler+0x1b0>
8000c344:	3a229073          	csrw	pmpcfg2,t0
8000c348:	0080006f          	j	8000c350 <instr_fault_handler+0x1b0>
8000c34c:	3a329073          	csrw	pmpcfg3,t0
8000c350:	00000013          	nop
8000c354:	004e2083          	lw	ra,4(t3)
8000c358:	008e2103          	lw	sp,8(t3)
8000c35c:	00ce2183          	lw	gp,12(t3)
8000c360:	010e2203          	lw	tp,16(t3)
8000c364:	014e2283          	lw	t0,20(t3)
8000c368:	018e2303          	lw	t1,24(t3)
8000c36c:	01ce2383          	lw	t2,28(t3)
8000c370:	020e2403          	lw	s0,32(t3)
8000c374:	024e2483          	lw	s1,36(t3)
8000c378:	028e2503          	lw	a0,40(t3)
8000c37c:	02ce2583          	lw	a1,44(t3)
8000c380:	030e2603          	lw	a2,48(t3)
8000c384:	034e2683          	lw	a3,52(t3)
8000c388:	038e2703          	lw	a4,56(t3)
8000c38c:	03ce2783          	lw	a5,60(t3)
8000c390:	040e2803          	lw	a6,64(t3)
8000c394:	044e2883          	lw	a7,68(t3)
8000c398:	048e2903          	lw	s2,72(t3)
8000c39c:	04ce2983          	lw	s3,76(t3)
8000c3a0:	050e2a03          	lw	s4,80(t3)
8000c3a4:	054e2a83          	lw	s5,84(t3)
8000c3a8:	058e2b03          	lw	s6,88(t3)
8000c3ac:	05ce2b83          	lw	s7,92(t3)
8000c3b0:	060e2c03          	lw	s8,96(t3)
8000c3b4:	064e2c83          	lw	s9,100(t3)
8000c3b8:	068e2d03          	lw	s10,104(t3)
8000c3bc:	06ce2d83          	lw	s11,108(t3)
8000c3c0:	070e2e03          	lw	t3,112(t3)
8000c3c4:	074e2e83          	lw	t4,116(t3)
8000c3c8:	078e2f03          	lw	t5,120(t3)
8000c3cc:	07ce2f83          	lw	t6,124(t3)
8000c3d0:	07ce0e13          	addi	t3,t3,124
8000c3d4:	000e0ab3          	add	s5,t3,zero
8000c3d8:	340e1e73          	csrrw	t3,mscratch,t3
8000c3dc:	30200073          	mret

8000c3e0 <load_fault_handler>:
8000c3e0:	00000813          	li	a6,0
8000c3e4:	34081073          	csrw	mscratch,a6
8000c3e8:	00000613          	li	a2,0
8000c3ec:	34002873          	csrr	a6,mscratch
8000c3f0:	00080d13          	mv	s10,a6
8000c3f4:	00000d13          	li	s10,0
8000c3f8:	01a80263          	beq	a6,s10,8000c3fc <load_fault_handler+0x1c>
8000c3fc:	3b0024f3          	csrr	s1,pmpaddr0
8000c400:	3a0022f3          	csrr	t0,pmpcfg0
8000c404:	0040006f          	j	8000c408 <load_fault_handler+0x28>
8000c408:	00400c13          	li	s8,4
8000c40c:	34002873          	csrr	a6,mscratch
8000c410:	01e81813          	slli	a6,a6,0x1e
8000c414:	01e85813          	srli	a6,a6,0x1e
8000c418:	410c0d33          	sub	s10,s8,a6
8000c41c:	fffd0d13          	addi	s10,s10,-1
8000c420:	003d1d13          	slli	s10,s10,0x3
8000c424:	01a29c33          	sll	s8,t0,s10
8000c428:	00381813          	slli	a6,a6,0x3
8000c42c:	010d0d33          	add	s10,s10,a6
8000c430:	01ac5c33          	srl	s8,s8,s10
8000c434:	01bc1d13          	slli	s10,s8,0x1b
8000c438:	01ed5d13          	srli	s10,s10,0x1e
8000c43c:	040d0863          	beqz	s10,8000c48c <load_fault_handler+0xac>
8000c440:	00100813          	li	a6,1
8000c444:	050d0663          	beq	s10,a6,8000c490 <load_fault_handler+0xb0>
8000c448:	00200813          	li	a6,2
8000c44c:	070d0e63          	beq	s10,a6,8000c4c8 <load_fault_handler+0xe8>
8000c450:	00300813          	li	a6,3
8000c454:	0b0d0063          	beq	s10,a6,8000c4f4 <load_fault_handler+0x114>
8000c458:	ffff8817          	auipc	a6,0xffff8
8000c45c:	95880813          	addi	a6,a6,-1704 # 80003db0 <test_done>
8000c460:	00080067          	jr	a6
8000c464:	34002873          	csrr	a6,mscratch
8000c468:	00048613          	mv	a2,s1
8000c46c:	00180813          	addi	a6,a6,1
8000c470:	34081073          	csrw	mscratch,a6
8000c474:	00100493          	li	s1,1
8000c478:	00985463          	bge	a6,s1,8000c480 <load_fault_handler+0xa0>
8000c47c:	f71ff06f          	j	8000c3ec <load_fault_handler+0xc>
8000c480:	ffff8817          	auipc	a6,0xffff8
8000c484:	93080813          	addi	a6,a6,-1744 # 80003db0 <test_done>
8000c488:	00080067          	jr	a6
8000c48c:	fd9ff06f          	j	8000c464 <load_fault_handler+0x84>
8000c490:	34002873          	csrr	a6,mscratch
8000c494:	34302d73          	csrr	s10,mtval
8000c498:	002d5d13          	srli	s10,s10,0x2
8000c49c:	00081663          	bnez	a6,8000c4a8 <load_fault_handler+0xc8>
8000c4a0:	fc0d42e3          	bltz	s10,8000c464 <load_fault_handler+0x84>
8000c4a4:	0080006f          	j	8000c4ac <load_fault_handler+0xcc>
8000c4a8:	facd6ee3          	bltu	s10,a2,8000c464 <load_fault_handler+0x84>
8000c4ac:	fa9d7ce3          	bgeu	s10,s1,8000c464 <load_fault_handler+0x84>
8000c4b0:	080c7d13          	andi	s10,s8,128
8000c4b4:	000d0863          	beqz	s10,8000c4c4 <load_fault_handler+0xe4>
8000c4b8:	ffff8817          	auipc	a6,0xffff8
8000c4bc:	8f880813          	addi	a6,a6,-1800 # 80003db0 <test_done>
8000c4c0:	00080067          	jr	a6
8000c4c4:	06c0006f          	j	8000c530 <load_fault_handler+0x150>
8000c4c8:	34302873          	csrr	a6,mtval
8000c4cc:	00285813          	srli	a6,a6,0x2
8000c4d0:	00249d13          	slli	s10,s1,0x2
8000c4d4:	002d5d13          	srli	s10,s10,0x2
8000c4d8:	f9a816e3          	bne	a6,s10,8000c464 <load_fault_handler+0x84>
8000c4dc:	080c7d13          	andi	s10,s8,128
8000c4e0:	000d0863          	beqz	s10,8000c4f0 <load_fault_handler+0x110>
8000c4e4:	ffff8817          	auipc	a6,0xffff8
8000c4e8:	8cc80813          	addi	a6,a6,-1844 # 80003db0 <test_done>
8000c4ec:	00080067          	jr	a6
8000c4f0:	0400006f          	j	8000c530 <load_fault_handler+0x150>
8000c4f4:	34302873          	csrr	a6,mtval
8000c4f8:	00285813          	srli	a6,a6,0x2
8000c4fc:	00085813          	srli	a6,a6,0x0
8000c500:	00081813          	slli	a6,a6,0x0
8000c504:	00249d13          	slli	s10,s1,0x2
8000c508:	002d5d13          	srli	s10,s10,0x2
8000c50c:	000d5d13          	srli	s10,s10,0x0
8000c510:	000d1d13          	slli	s10,s10,0x0
8000c514:	f5a818e3          	bne	a6,s10,8000c464 <load_fault_handler+0x84>
8000c518:	080c7d13          	andi	s10,s8,128
8000c51c:	000d0a63          	beqz	s10,8000c530 <load_fault_handler+0x150>
8000c520:	ffff8817          	auipc	a6,0xffff8
8000c524:	89080813          	addi	a6,a6,-1904 # 80003db0 <test_done>
8000c528:	00080067          	jr	a6
8000c52c:	0040006f          	j	8000c530 <load_fault_handler+0x150>
8000c530:	001c6c13          	ori	s8,s8,1
8000c534:	34002873          	csrr	a6,mscratch
8000c538:	01e00d13          	li	s10,30
8000c53c:	01a81833          	sll	a6,a6,s10
8000c540:	01a85833          	srl	a6,a6,s10
8000c544:	00381d13          	slli	s10,a6,0x3
8000c548:	01ac1c33          	sll	s8,s8,s10
8000c54c:	0182e2b3          	or	t0,t0,s8
8000c550:	34002873          	csrr	a6,mscratch
8000c554:	00285813          	srli	a6,a6,0x2
8000c558:	00080e63          	beqz	a6,8000c574 <load_fault_handler+0x194>
8000c55c:	00100d13          	li	s10,1
8000c560:	01a80e63          	beq	a6,s10,8000c57c <load_fault_handler+0x19c>
8000c564:	00200d13          	li	s10,2
8000c568:	01a80e63          	beq	a6,s10,8000c584 <load_fault_handler+0x1a4>
8000c56c:	00300d13          	li	s10,3
8000c570:	01a80e63          	beq	a6,s10,8000c58c <load_fault_handler+0x1ac>
8000c574:	3a029073          	csrw	pmpcfg0,t0
8000c578:	0180006f          	j	8000c590 <load_fault_handler+0x1b0>
8000c57c:	3a129073          	csrw	pmpcfg1,t0
8000c580:	0100006f          	j	8000c590 <load_fault_handler+0x1b0>
8000c584:	3a229073          	csrw	pmpcfg2,t0
8000c588:	0080006f          	j	8000c590 <load_fault_handler+0x1b0>
8000c58c:	3a329073          	csrw	pmpcfg3,t0
8000c590:	00000013          	nop
8000c594:	004e2083          	lw	ra,4(t3)
8000c598:	008e2103          	lw	sp,8(t3)
8000c59c:	00ce2183          	lw	gp,12(t3)
8000c5a0:	010e2203          	lw	tp,16(t3)
8000c5a4:	014e2283          	lw	t0,20(t3)
8000c5a8:	018e2303          	lw	t1,24(t3)
8000c5ac:	01ce2383          	lw	t2,28(t3)
8000c5b0:	020e2403          	lw	s0,32(t3)
8000c5b4:	024e2483          	lw	s1,36(t3)
8000c5b8:	028e2503          	lw	a0,40(t3)
8000c5bc:	02ce2583          	lw	a1,44(t3)
8000c5c0:	030e2603          	lw	a2,48(t3)
8000c5c4:	034e2683          	lw	a3,52(t3)
8000c5c8:	038e2703          	lw	a4,56(t3)
8000c5cc:	03ce2783          	lw	a5,60(t3)
8000c5d0:	040e2803          	lw	a6,64(t3)
8000c5d4:	044e2883          	lw	a7,68(t3)
8000c5d8:	048e2903          	lw	s2,72(t3)
8000c5dc:	04ce2983          	lw	s3,76(t3)
8000c5e0:	050e2a03          	lw	s4,80(t3)
8000c5e4:	054e2a83          	lw	s5,84(t3)
8000c5e8:	058e2b03          	lw	s6,88(t3)
8000c5ec:	05ce2b83          	lw	s7,92(t3)
8000c5f0:	060e2c03          	lw	s8,96(t3)
8000c5f4:	064e2c83          	lw	s9,100(t3)
8000c5f8:	068e2d03          	lw	s10,104(t3)
8000c5fc:	06ce2d83          	lw	s11,108(t3)
8000c600:	070e2e03          	lw	t3,112(t3)
8000c604:	074e2e83          	lw	t4,116(t3)
8000c608:	078e2f03          	lw	t5,120(t3)
8000c60c:	07ce2f83          	lw	t6,124(t3)
8000c610:	07ce0e13          	addi	t3,t3,124
8000c614:	000e0ab3          	add	s5,t3,zero
8000c618:	340e1e73          	csrrw	t3,mscratch,t3
8000c61c:	30200073          	mret

8000c620 <store_fault_handler>:
8000c620:	00000813          	li	a6,0
8000c624:	34081073          	csrw	mscratch,a6
8000c628:	00000613          	li	a2,0
8000c62c:	34002873          	csrr	a6,mscratch
8000c630:	00080d13          	mv	s10,a6
8000c634:	00000d13          	li	s10,0
8000c638:	01a80263          	beq	a6,s10,8000c63c <store_fault_handler+0x1c>
8000c63c:	3b0024f3          	csrr	s1,pmpaddr0
8000c640:	3a0022f3          	csrr	t0,pmpcfg0
8000c644:	0040006f          	j	8000c648 <store_fault_handler+0x28>
8000c648:	00400c13          	li	s8,4
8000c64c:	34002873          	csrr	a6,mscratch
8000c650:	01e81813          	slli	a6,a6,0x1e
8000c654:	01e85813          	srli	a6,a6,0x1e
8000c658:	410c0d33          	sub	s10,s8,a6
8000c65c:	fffd0d13          	addi	s10,s10,-1
8000c660:	003d1d13          	slli	s10,s10,0x3
8000c664:	01a29c33          	sll	s8,t0,s10
8000c668:	00381813          	slli	a6,a6,0x3
8000c66c:	010d0d33          	add	s10,s10,a6
8000c670:	01ac5c33          	srl	s8,s8,s10
8000c674:	01bc1d13          	slli	s10,s8,0x1b
8000c678:	01ed5d13          	srli	s10,s10,0x1e
8000c67c:	040d0863          	beqz	s10,8000c6cc <store_fault_handler+0xac>
8000c680:	00100813          	li	a6,1
8000c684:	050d0663          	beq	s10,a6,8000c6d0 <store_fault_handler+0xb0>
8000c688:	00200813          	li	a6,2
8000c68c:	070d0e63          	beq	s10,a6,8000c708 <store_fault_handler+0xe8>
8000c690:	00300813          	li	a6,3
8000c694:	0b0d0063          	beq	s10,a6,8000c734 <store_fault_handler+0x114>
8000c698:	ffff7817          	auipc	a6,0xffff7
8000c69c:	71880813          	addi	a6,a6,1816 # 80003db0 <test_done>
8000c6a0:	00080067          	jr	a6
8000c6a4:	34002873          	csrr	a6,mscratch
8000c6a8:	00048613          	mv	a2,s1
8000c6ac:	00180813          	addi	a6,a6,1
8000c6b0:	34081073          	csrw	mscratch,a6
8000c6b4:	00100493          	li	s1,1
8000c6b8:	00985463          	bge	a6,s1,8000c6c0 <store_fault_handler+0xa0>
8000c6bc:	f71ff06f          	j	8000c62c <store_fault_handler+0xc>
8000c6c0:	ffff7817          	auipc	a6,0xffff7
8000c6c4:	6f080813          	addi	a6,a6,1776 # 80003db0 <test_done>
8000c6c8:	00080067          	jr	a6
8000c6cc:	fd9ff06f          	j	8000c6a4 <store_fault_handler+0x84>
8000c6d0:	34002873          	csrr	a6,mscratch
8000c6d4:	34302d73          	csrr	s10,mtval
8000c6d8:	002d5d13          	srli	s10,s10,0x2
8000c6dc:	00081663          	bnez	a6,8000c6e8 <store_fault_handler+0xc8>
8000c6e0:	fc0d42e3          	bltz	s10,8000c6a4 <store_fault_handler+0x84>
8000c6e4:	0080006f          	j	8000c6ec <store_fault_handler+0xcc>
8000c6e8:	facd6ee3          	bltu	s10,a2,8000c6a4 <store_fault_handler+0x84>
8000c6ec:	fa9d7ce3          	bgeu	s10,s1,8000c6a4 <store_fault_handler+0x84>
8000c6f0:	080c7d13          	andi	s10,s8,128
8000c6f4:	000d0863          	beqz	s10,8000c704 <store_fault_handler+0xe4>
8000c6f8:	ffff7817          	auipc	a6,0xffff7
8000c6fc:	6b880813          	addi	a6,a6,1720 # 80003db0 <test_done>
8000c700:	00080067          	jr	a6
8000c704:	06c0006f          	j	8000c770 <store_fault_handler+0x150>
8000c708:	34302873          	csrr	a6,mtval
8000c70c:	00285813          	srli	a6,a6,0x2
8000c710:	00249d13          	slli	s10,s1,0x2
8000c714:	002d5d13          	srli	s10,s10,0x2
8000c718:	f9a816e3          	bne	a6,s10,8000c6a4 <store_fault_handler+0x84>
8000c71c:	080c7d13          	andi	s10,s8,128
8000c720:	000d0863          	beqz	s10,8000c730 <store_fault_handler+0x110>
8000c724:	ffff7817          	auipc	a6,0xffff7
8000c728:	68c80813          	addi	a6,a6,1676 # 80003db0 <test_done>
8000c72c:	00080067          	jr	a6
8000c730:	0400006f          	j	8000c770 <store_fault_handler+0x150>
8000c734:	34302873          	csrr	a6,mtval
8000c738:	00285813          	srli	a6,a6,0x2
8000c73c:	00085813          	srli	a6,a6,0x0
8000c740:	00081813          	slli	a6,a6,0x0
8000c744:	00249d13          	slli	s10,s1,0x2
8000c748:	002d5d13          	srli	s10,s10,0x2
8000c74c:	000d5d13          	srli	s10,s10,0x0
8000c750:	000d1d13          	slli	s10,s10,0x0
8000c754:	f5a818e3          	bne	a6,s10,8000c6a4 <store_fault_handler+0x84>
8000c758:	080c7d13          	andi	s10,s8,128
8000c75c:	000d0a63          	beqz	s10,8000c770 <store_fault_handler+0x150>
8000c760:	ffff7817          	auipc	a6,0xffff7
8000c764:	65080813          	addi	a6,a6,1616 # 80003db0 <test_done>
8000c768:	00080067          	jr	a6
8000c76c:	0040006f          	j	8000c770 <store_fault_handler+0x150>
8000c770:	003c6c13          	ori	s8,s8,3
8000c774:	34002873          	csrr	a6,mscratch
8000c778:	01e00d13          	li	s10,30
8000c77c:	01a81833          	sll	a6,a6,s10
8000c780:	01a85833          	srl	a6,a6,s10
8000c784:	00381d13          	slli	s10,a6,0x3
8000c788:	01ac1c33          	sll	s8,s8,s10
8000c78c:	0182e2b3          	or	t0,t0,s8
8000c790:	34002873          	csrr	a6,mscratch
8000c794:	00285813          	srli	a6,a6,0x2
8000c798:	00080e63          	beqz	a6,8000c7b4 <store_fault_handler+0x194>
8000c79c:	00100d13          	li	s10,1
8000c7a0:	01a80e63          	beq	a6,s10,8000c7bc <store_fault_handler+0x19c>
8000c7a4:	00200d13          	li	s10,2
8000c7a8:	01a80e63          	beq	a6,s10,8000c7c4 <store_fault_handler+0x1a4>
8000c7ac:	00300d13          	li	s10,3
8000c7b0:	01a80e63          	beq	a6,s10,8000c7cc <store_fault_handler+0x1ac>
8000c7b4:	3a029073          	csrw	pmpcfg0,t0
8000c7b8:	0180006f          	j	8000c7d0 <store_fault_handler+0x1b0>
8000c7bc:	3a129073          	csrw	pmpcfg1,t0
8000c7c0:	0100006f          	j	8000c7d0 <store_fault_handler+0x1b0>
8000c7c4:	3a229073          	csrw	pmpcfg2,t0
8000c7c8:	0080006f          	j	8000c7d0 <store_fault_handler+0x1b0>
8000c7cc:	3a329073          	csrw	pmpcfg3,t0
8000c7d0:	00000013          	nop
8000c7d4:	004e2083          	lw	ra,4(t3)
8000c7d8:	008e2103          	lw	sp,8(t3)
8000c7dc:	00ce2183          	lw	gp,12(t3)
8000c7e0:	010e2203          	lw	tp,16(t3)
8000c7e4:	014e2283          	lw	t0,20(t3)
8000c7e8:	018e2303          	lw	t1,24(t3)
8000c7ec:	01ce2383          	lw	t2,28(t3)
8000c7f0:	020e2403          	lw	s0,32(t3)
8000c7f4:	024e2483          	lw	s1,36(t3)
8000c7f8:	028e2503          	lw	a0,40(t3)
8000c7fc:	02ce2583          	lw	a1,44(t3)
8000c800:	030e2603          	lw	a2,48(t3)
8000c804:	034e2683          	lw	a3,52(t3)
8000c808:	038e2703          	lw	a4,56(t3)
8000c80c:	03ce2783          	lw	a5,60(t3)
8000c810:	040e2803          	lw	a6,64(t3)
8000c814:	044e2883          	lw	a7,68(t3)
8000c818:	048e2903          	lw	s2,72(t3)
8000c81c:	04ce2983          	lw	s3,76(t3)
8000c820:	050e2a03          	lw	s4,80(t3)
8000c824:	054e2a83          	lw	s5,84(t3)
8000c828:	058e2b03          	lw	s6,88(t3)
8000c82c:	05ce2b83          	lw	s7,92(t3)
8000c830:	060e2c03          	lw	s8,96(t3)
8000c834:	064e2c83          	lw	s9,100(t3)
8000c838:	068e2d03          	lw	s10,104(t3)
8000c83c:	06ce2d83          	lw	s11,108(t3)
8000c840:	070e2e03          	lw	t3,112(t3)
8000c844:	074e2e83          	lw	t4,116(t3)
8000c848:	078e2f03          	lw	t5,120(t3)
8000c84c:	07ce2f83          	lw	t6,124(t3)
8000c850:	07ce0e13          	addi	t3,t3,124
8000c854:	000e0ab3          	add	s5,t3,zero
8000c858:	340e1e73          	csrrw	t3,mscratch,t3
8000c85c:	30200073          	mret

8000c860 <ebreak_handler>:
8000c860:	34102873          	csrr	a6,mepc
8000c864:	00480813          	addi	a6,a6,4
8000c868:	34181073          	csrw	mepc,a6
8000c86c:	004e2083          	lw	ra,4(t3)
8000c870:	008e2103          	lw	sp,8(t3)
8000c874:	00ce2183          	lw	gp,12(t3)
8000c878:	010e2203          	lw	tp,16(t3)
8000c87c:	014e2283          	lw	t0,20(t3)
8000c880:	018e2303          	lw	t1,24(t3)
8000c884:	01ce2383          	lw	t2,28(t3)
8000c888:	020e2403          	lw	s0,32(t3)
8000c88c:	024e2483          	lw	s1,36(t3)
8000c890:	028e2503          	lw	a0,40(t3)
8000c894:	02ce2583          	lw	a1,44(t3)
8000c898:	030e2603          	lw	a2,48(t3)
8000c89c:	034e2683          	lw	a3,52(t3)
8000c8a0:	038e2703          	lw	a4,56(t3)
8000c8a4:	03ce2783          	lw	a5,60(t3)
8000c8a8:	040e2803          	lw	a6,64(t3)
8000c8ac:	044e2883          	lw	a7,68(t3)
8000c8b0:	048e2903          	lw	s2,72(t3)
8000c8b4:	04ce2983          	lw	s3,76(t3)
8000c8b8:	050e2a03          	lw	s4,80(t3)
8000c8bc:	054e2a83          	lw	s5,84(t3)
8000c8c0:	058e2b03          	lw	s6,88(t3)
8000c8c4:	05ce2b83          	lw	s7,92(t3)
8000c8c8:	060e2c03          	lw	s8,96(t3)
8000c8cc:	064e2c83          	lw	s9,100(t3)
8000c8d0:	068e2d03          	lw	s10,104(t3)
8000c8d4:	06ce2d83          	lw	s11,108(t3)
8000c8d8:	070e2e03          	lw	t3,112(t3)
8000c8dc:	074e2e83          	lw	t4,116(t3)
8000c8e0:	078e2f03          	lw	t5,120(t3)
8000c8e4:	07ce2f83          	lw	t6,124(t3)
8000c8e8:	07ce0e13          	addi	t3,t3,124
8000c8ec:	000e0ab3          	add	s5,t3,zero
8000c8f0:	340e1e73          	csrrw	t3,mscratch,t3
8000c8f4:	30200073          	mret

8000c8f8 <illegal_instr_handler>:
8000c8f8:	34102873          	csrr	a6,mepc
8000c8fc:	00480813          	addi	a6,a6,4
8000c900:	34181073          	csrw	mepc,a6
8000c904:	004e2083          	lw	ra,4(t3)
8000c908:	008e2103          	lw	sp,8(t3)
8000c90c:	00ce2183          	lw	gp,12(t3)
8000c910:	010e2203          	lw	tp,16(t3)
8000c914:	014e2283          	lw	t0,20(t3)
8000c918:	018e2303          	lw	t1,24(t3)
8000c91c:	01ce2383          	lw	t2,28(t3)
8000c920:	020e2403          	lw	s0,32(t3)
8000c924:	024e2483          	lw	s1,36(t3)
8000c928:	028e2503          	lw	a0,40(t3)
8000c92c:	02ce2583          	lw	a1,44(t3)
8000c930:	030e2603          	lw	a2,48(t3)
8000c934:	034e2683          	lw	a3,52(t3)
8000c938:	038e2703          	lw	a4,56(t3)
8000c93c:	03ce2783          	lw	a5,60(t3)
8000c940:	040e2803          	lw	a6,64(t3)
8000c944:	044e2883          	lw	a7,68(t3)
8000c948:	048e2903          	lw	s2,72(t3)
8000c94c:	04ce2983          	lw	s3,76(t3)
8000c950:	050e2a03          	lw	s4,80(t3)
8000c954:	054e2a83          	lw	s5,84(t3)
8000c958:	058e2b03          	lw	s6,88(t3)
8000c95c:	05ce2b83          	lw	s7,92(t3)
8000c960:	060e2c03          	lw	s8,96(t3)
8000c964:	064e2c83          	lw	s9,100(t3)
8000c968:	068e2d03          	lw	s10,104(t3)
8000c96c:	06ce2d83          	lw	s11,108(t3)
8000c970:	070e2e03          	lw	t3,112(t3)
8000c974:	074e2e83          	lw	t4,116(t3)
8000c978:	078e2f03          	lw	t5,120(t3)
8000c97c:	07ce2f83          	lw	t6,124(t3)
8000c980:	07ce0e13          	addi	t3,t3,124
8000c984:	000e0ab3          	add	s5,t3,zero
8000c988:	340e1e73          	csrrw	t3,mscratch,t3
8000c98c:	30200073          	mret

8000c990 <pt_fault_handler>:
8000c990:	12000073          	sfence.vma
8000c994:	00100813          	li	a6,1
8000c998:	001001b7          	lui	gp,0x100
8000c99c:	fff18193          	addi	gp,gp,-1 # fffff <_start-0x7ff00001>
8000c9a0:	34302df3          	csrr	s11,mtval
8000c9a4:	00cddd93          	srli	s11,s11,0xc
8000c9a8:	00cd9d93          	slli	s11,s11,0xc
8000c9ac:	00002117          	auipc	sp,0x2
8000c9b0:	65410113          	addi	sp,sp,1620 # 8000f000 <page_table_0>

8000c9b4 <fix_pte>:
8000c9b4:	016dd893          	srli	a7,s11,0x16
8000c9b8:	00289893          	slli	a7,a7,0x2
8000c9bc:	01110133          	add	sp,sp,a7
8000c9c0:	00012683          	lw	a3,0(sp)
8000c9c4:	01c69893          	slli	a7,a3,0x1c
8000c9c8:	01d8d893          	srli	a7,a7,0x1d
8000c9cc:	03101a63          	bne	zero,a7,8000ca00 <fix_leaf_pte>
8000c9d0:	03000863          	beq	zero,a6,8000ca00 <fix_leaf_pte>
8000c9d4:	00a6d693          	srli	a3,a3,0xa
8000c9d8:	00a69693          	slli	a3,a3,0xa
8000c9dc:	0d100893          	li	a7,209
8000c9e0:	0116e6b3          	or	a3,a3,a7
8000c9e4:	00d12023          	sw	a3,0(sp)
8000c9e8:	00a6d113          	srli	sp,a3,0xa
8000c9ec:	00c11113          	slli	sp,sp,0xc
8000c9f0:	00ad9d93          	slli	s11,s11,0xa
8000c9f4:	fff80813          	addi	a6,a6,-1
8000c9f8:	00a1d193          	srli	gp,gp,0xa
8000c9fc:	fb9ff06f          	j	8000c9b4 <fix_pte>

8000ca00 <fix_leaf_pte>:
8000ca00:	fff1c193          	not	gp,gp
8000ca04:	0036f6b3          	and	a3,a3,gp
8000ca08:	0df00893          	li	a7,223
8000ca0c:	0116e6b3          	or	a3,a3,a7
8000ca10:	00d12023          	sw	a3,0(sp)
8000ca14:	0040006f          	j	8000ca18 <fix_kernel_leaf_pte>

8000ca18 <fix_kernel_leaf_pte>:
8000ca18:	0001e897          	auipc	a7,0x1e
8000ca1c:	5e888893          	addi	a7,a7,1512 # 8002b000 <kernel_instr_start>
8000ca20:	00289893          	slli	a7,a7,0x2
8000ca24:	0028d893          	srli	a7,a7,0x2
8000ca28:	34302df3          	csrr	s11,mtval
8000ca2c:	01b8fa63          	bgeu	a7,s11,8000ca40 <fix_pte_done>
8000ca30:	01000893          	li	a7,16
8000ca34:	fff8c893          	not	a7,a7
8000ca38:	00d8f6b3          	and	a3,a7,a3
8000ca3c:	00d12023          	sw	a3,0(sp)

8000ca40 <fix_pte_done>:
8000ca40:	12000073          	sfence.vma
8000ca44:	01ef1f13          	slli	t5,t5,0x1e
8000ca48:	020f0e63          	beqz	t5,8000ca84 <fix_pte_ret>
8000ca4c:	01ef9f93          	slli	t6,t6,0x1e
8000ca50:	000f0c63          	beqz	t5,8000ca68 <check_mprv>
8000ca54:	300028f3          	csrr	a7,mstatus
8000ca58:	000201b7          	lui	gp,0x20
8000ca5c:	fff1c193          	not	gp,gp
8000ca60:	0038e893          	ori	a7,a7,3
8000ca64:	300898f3          	csrrw	a7,mstatus,a7

8000ca68 <check_mprv>:
8000ca68:	000201b7          	lui	gp,0x20
8000ca6c:	300028f3          	csrr	a7,mstatus
8000ca70:	0038f8b3          	and	a7,a7,gp
8000ca74:	00088663          	beqz	a7,8000ca80 <j_smode>
8000ca78:	ae4fe0ef          	jal	ra,8000ad5c <smode_lsu_program>
8000ca7c:	0080006f          	j	8000ca84 <fix_pte_ret>

8000ca80 <j_smode>:
8000ca80:	c3dfd0ef          	jal	ra,8000a6bc <smode_program>

8000ca84 <fix_pte_ret>:
8000ca84:	004e2083          	lw	ra,4(t3)
8000ca88:	008e2103          	lw	sp,8(t3)
8000ca8c:	00ce2183          	lw	gp,12(t3)
8000ca90:	010e2203          	lw	tp,16(t3)
8000ca94:	014e2283          	lw	t0,20(t3)
8000ca98:	018e2303          	lw	t1,24(t3)
8000ca9c:	01ce2383          	lw	t2,28(t3)
8000caa0:	020e2403          	lw	s0,32(t3)
8000caa4:	024e2483          	lw	s1,36(t3)
8000caa8:	028e2503          	lw	a0,40(t3)
8000caac:	02ce2583          	lw	a1,44(t3)
8000cab0:	030e2603          	lw	a2,48(t3)
8000cab4:	034e2683          	lw	a3,52(t3)
8000cab8:	038e2703          	lw	a4,56(t3)
8000cabc:	03ce2783          	lw	a5,60(t3)
8000cac0:	040e2803          	lw	a6,64(t3)
8000cac4:	044e2883          	lw	a7,68(t3)
8000cac8:	048e2903          	lw	s2,72(t3)
8000cacc:	04ce2983          	lw	s3,76(t3)
8000cad0:	050e2a03          	lw	s4,80(t3)
8000cad4:	054e2a83          	lw	s5,84(t3)
8000cad8:	058e2b03          	lw	s6,88(t3)
8000cadc:	05ce2b83          	lw	s7,92(t3)
8000cae0:	060e2c03          	lw	s8,96(t3)
8000cae4:	064e2c83          	lw	s9,100(t3)
8000cae8:	068e2d03          	lw	s10,104(t3)
8000caec:	06ce2d83          	lw	s11,108(t3)
8000caf0:	070e2e03          	lw	t3,112(t3)
8000caf4:	074e2e83          	lw	t4,116(t3)
8000caf8:	078e2f03          	lw	t5,120(t3)
8000cafc:	07ce2f83          	lw	t6,124(t3)
8000cb00:	07ce0e13          	addi	t3,t3,124
8000cb04:	000e0ab3          	add	s5,t3,zero
8000cb08:	340e1e73          	csrrw	t3,mscratch,t3
8000cb0c:	30200073          	mret
8000cb10:	00000013          	nop
8000cb14:	00000013          	nop
8000cb18:	00000013          	nop
8000cb1c:	00000013          	nop
8000cb20:	00000013          	nop
8000cb24:	00000013          	nop
8000cb28:	00000013          	nop
8000cb2c:	00000013          	nop
8000cb30:	00000013          	nop
8000cb34:	00000013          	nop
8000cb38:	00000013          	nop
8000cb3c:	00000013          	nop
8000cb40:	00000013          	nop
8000cb44:	00000013          	nop
8000cb48:	00000013          	nop
8000cb4c:	00000013          	nop
8000cb50:	00000013          	nop
8000cb54:	00000013          	nop
8000cb58:	00000013          	nop
8000cb5c:	00000013          	nop
8000cb60:	00000013          	nop
8000cb64:	00000013          	nop
8000cb68:	00000013          	nop
8000cb6c:	00000013          	nop
8000cb70:	00000013          	nop
8000cb74:	00000013          	nop
8000cb78:	00000013          	nop
8000cb7c:	00000013          	nop
8000cb80:	00000013          	nop
8000cb84:	00000013          	nop
8000cb88:	00000013          	nop
8000cb8c:	00000013          	nop
8000cb90:	00000013          	nop
8000cb94:	00000013          	nop
8000cb98:	00000013          	nop
8000cb9c:	00000013          	nop
8000cba0:	00000013          	nop
8000cba4:	00000013          	nop
8000cba8:	00000013          	nop
8000cbac:	00000013          	nop
8000cbb0:	00000013          	nop
8000cbb4:	00000013          	nop
8000cbb8:	00000013          	nop
8000cbbc:	00000013          	nop
8000cbc0:	00000013          	nop
8000cbc4:	00000013          	nop
8000cbc8:	00000013          	nop
8000cbcc:	00000013          	nop
8000cbd0:	00000013          	nop
8000cbd4:	00000013          	nop
8000cbd8:	00000013          	nop
8000cbdc:	00000013          	nop
8000cbe0:	00000013          	nop
8000cbe4:	00000013          	nop
8000cbe8:	00000013          	nop
8000cbec:	00000013          	nop
8000cbf0:	00000013          	nop
8000cbf4:	00000013          	nop
8000cbf8:	00000013          	nop
8000cbfc:	00000013          	nop
8000cc00:	00000013          	nop
8000cc04:	00000013          	nop
8000cc08:	00000013          	nop
8000cc0c:	00000013          	nop
8000cc10:	00000013          	nop
8000cc14:	00000013          	nop
8000cc18:	00000013          	nop
8000cc1c:	00000013          	nop
8000cc20:	00000013          	nop
8000cc24:	00000013          	nop
8000cc28:	00000013          	nop
8000cc2c:	00000013          	nop
8000cc30:	00000013          	nop
8000cc34:	00000013          	nop
8000cc38:	00000013          	nop
8000cc3c:	00000013          	nop
8000cc40:	00000013          	nop
8000cc44:	00000013          	nop
8000cc48:	00000013          	nop
8000cc4c:	00000013          	nop
8000cc50:	00000013          	nop
8000cc54:	00000013          	nop
8000cc58:	00000013          	nop
8000cc5c:	00000013          	nop
8000cc60:	00000013          	nop
8000cc64:	00000013          	nop
8000cc68:	00000013          	nop
8000cc6c:	00000013          	nop
8000cc70:	00000013          	nop
8000cc74:	00000013          	nop
8000cc78:	00000013          	nop
8000cc7c:	00000013          	nop
8000cc80:	00000013          	nop
8000cc84:	00000013          	nop
8000cc88:	00000013          	nop
8000cc8c:	00000013          	nop
8000cc90:	00000013          	nop
8000cc94:	00000013          	nop
8000cc98:	00000013          	nop
8000cc9c:	00000013          	nop
8000cca0:	00000013          	nop
8000cca4:	00000013          	nop
8000cca8:	00000013          	nop
8000ccac:	00000013          	nop
8000ccb0:	00000013          	nop
8000ccb4:	00000013          	nop
8000ccb8:	00000013          	nop
8000ccbc:	00000013          	nop
8000ccc0:	00000013          	nop
8000ccc4:	00000013          	nop
8000ccc8:	00000013          	nop
8000cccc:	00000013          	nop
8000ccd0:	00000013          	nop
8000ccd4:	00000013          	nop
8000ccd8:	00000013          	nop
8000ccdc:	00000013          	nop
8000cce0:	00000013          	nop
8000cce4:	00000013          	nop
8000cce8:	00000013          	nop
8000ccec:	00000013          	nop
8000ccf0:	00000013          	nop
8000ccf4:	00000013          	nop
8000ccf8:	00000013          	nop
8000ccfc:	00000013          	nop
8000cd00:	00000013          	nop
8000cd04:	00000013          	nop
8000cd08:	00000013          	nop
8000cd0c:	00000013          	nop
8000cd10:	00000013          	nop
8000cd14:	00000013          	nop
8000cd18:	00000013          	nop
8000cd1c:	00000013          	nop
8000cd20:	00000013          	nop
8000cd24:	00000013          	nop
8000cd28:	00000013          	nop
8000cd2c:	00000013          	nop
8000cd30:	00000013          	nop
8000cd34:	00000013          	nop
8000cd38:	00000013          	nop
8000cd3c:	00000013          	nop
8000cd40:	00000013          	nop
8000cd44:	00000013          	nop
8000cd48:	00000013          	nop
8000cd4c:	00000013          	nop
8000cd50:	00000013          	nop
8000cd54:	00000013          	nop
8000cd58:	00000013          	nop
8000cd5c:	00000013          	nop
8000cd60:	00000013          	nop
8000cd64:	00000013          	nop
8000cd68:	00000013          	nop
8000cd6c:	00000013          	nop
8000cd70:	00000013          	nop
8000cd74:	00000013          	nop
8000cd78:	00000013          	nop
8000cd7c:	00000013          	nop
8000cd80:	00000013          	nop
8000cd84:	00000013          	nop
8000cd88:	00000013          	nop
8000cd8c:	00000013          	nop
8000cd90:	00000013          	nop
8000cd94:	00000013          	nop
8000cd98:	00000013          	nop
8000cd9c:	00000013          	nop
8000cda0:	00000013          	nop
8000cda4:	00000013          	nop
8000cda8:	00000013          	nop
8000cdac:	00000013          	nop
8000cdb0:	00000013          	nop
8000cdb4:	00000013          	nop
8000cdb8:	00000013          	nop
8000cdbc:	00000013          	nop
8000cdc0:	00000013          	nop
8000cdc4:	00000013          	nop
8000cdc8:	00000013          	nop
8000cdcc:	00000013          	nop
8000cdd0:	00000013          	nop
8000cdd4:	00000013          	nop
8000cdd8:	00000013          	nop
8000cddc:	00000013          	nop
8000cde0:	00000013          	nop
8000cde4:	00000013          	nop
8000cde8:	00000013          	nop
8000cdec:	00000013          	nop
8000cdf0:	00000013          	nop
8000cdf4:	00000013          	nop
8000cdf8:	00000013          	nop
8000cdfc:	00000013          	nop
8000ce00:	00000013          	nop
8000ce04:	00000013          	nop
8000ce08:	00000013          	nop
8000ce0c:	00000013          	nop
8000ce10:	00000013          	nop
8000ce14:	00000013          	nop
8000ce18:	00000013          	nop
8000ce1c:	00000013          	nop
8000ce20:	00000013          	nop
8000ce24:	00000013          	nop
8000ce28:	00000013          	nop
8000ce2c:	00000013          	nop
8000ce30:	00000013          	nop
8000ce34:	00000013          	nop
8000ce38:	00000013          	nop
8000ce3c:	00000013          	nop
8000ce40:	00000013          	nop
8000ce44:	00000013          	nop
8000ce48:	00000013          	nop
8000ce4c:	00000013          	nop
8000ce50:	00000013          	nop
8000ce54:	00000013          	nop
8000ce58:	00000013          	nop
8000ce5c:	00000013          	nop
8000ce60:	00000013          	nop
8000ce64:	00000013          	nop
8000ce68:	00000013          	nop
8000ce6c:	00000013          	nop
8000ce70:	00000013          	nop
8000ce74:	00000013          	nop
8000ce78:	00000013          	nop
8000ce7c:	00000013          	nop
8000ce80:	00000013          	nop
8000ce84:	00000013          	nop
8000ce88:	00000013          	nop
8000ce8c:	00000013          	nop
8000ce90:	00000013          	nop
8000ce94:	00000013          	nop
8000ce98:	00000013          	nop
8000ce9c:	00000013          	nop
8000cea0:	00000013          	nop
8000cea4:	00000013          	nop
8000cea8:	00000013          	nop
8000ceac:	00000013          	nop
8000ceb0:	00000013          	nop
8000ceb4:	00000013          	nop
8000ceb8:	00000013          	nop
8000cebc:	00000013          	nop
8000cec0:	00000013          	nop
8000cec4:	00000013          	nop
8000cec8:	00000013          	nop
8000cecc:	00000013          	nop
8000ced0:	00000013          	nop
8000ced4:	00000013          	nop
8000ced8:	00000013          	nop
8000cedc:	00000013          	nop
8000cee0:	00000013          	nop
8000cee4:	00000013          	nop
8000cee8:	00000013          	nop
8000ceec:	00000013          	nop
8000cef0:	00000013          	nop
8000cef4:	00000013          	nop
8000cef8:	00000013          	nop
8000cefc:	00000013          	nop
8000cf00:	00000013          	nop
8000cf04:	00000013          	nop
8000cf08:	00000013          	nop
8000cf0c:	00000013          	nop
8000cf10:	00000013          	nop
8000cf14:	00000013          	nop
8000cf18:	00000013          	nop
8000cf1c:	00000013          	nop
8000cf20:	00000013          	nop
8000cf24:	00000013          	nop
8000cf28:	00000013          	nop
8000cf2c:	00000013          	nop
8000cf30:	00000013          	nop
8000cf34:	00000013          	nop
8000cf38:	00000013          	nop
8000cf3c:	00000013          	nop
8000cf40:	00000013          	nop
8000cf44:	00000013          	nop
8000cf48:	00000013          	nop
8000cf4c:	00000013          	nop
8000cf50:	00000013          	nop
8000cf54:	00000013          	nop
8000cf58:	00000013          	nop
8000cf5c:	00000013          	nop
8000cf60:	00000013          	nop
8000cf64:	00000013          	nop
8000cf68:	00000013          	nop
8000cf6c:	00000013          	nop
8000cf70:	00000013          	nop
8000cf74:	00000013          	nop
8000cf78:	00000013          	nop
8000cf7c:	00000013          	nop
8000cf80:	00000013          	nop
8000cf84:	00000013          	nop
8000cf88:	00000013          	nop
8000cf8c:	00000013          	nop
8000cf90:	00000013          	nop
8000cf94:	00000013          	nop
8000cf98:	00000013          	nop
8000cf9c:	00000013          	nop
8000cfa0:	00000013          	nop
8000cfa4:	00000013          	nop
8000cfa8:	00000013          	nop
8000cfac:	00000013          	nop
8000cfb0:	00000013          	nop
8000cfb4:	00000013          	nop
8000cfb8:	00000013          	nop
8000cfbc:	00000013          	nop
8000cfc0:	00000013          	nop
8000cfc4:	00000013          	nop
8000cfc8:	00000013          	nop
8000cfcc:	00000013          	nop
8000cfd0:	00000013          	nop
8000cfd4:	00000013          	nop
8000cfd8:	00000013          	nop
8000cfdc:	00000013          	nop
8000cfe0:	00000013          	nop
8000cfe4:	00000013          	nop
8000cfe8:	00000013          	nop
8000cfec:	00000013          	nop
8000cff0:	00000013          	nop
8000cff4:	00000013          	nop
8000cff8:	00000013          	nop
8000cffc:	00000013          	nop

8000d000 <mmode_intr_handler>:
8000d000:	30002873          	csrr	a6,mstatus
8000d004:	30402873          	csrr	a6,mie
8000d008:	34402873          	csrr	a6,mip
8000d00c:	34483873          	csrrc	a6,mip,a6
8000d010:	004e2083          	lw	ra,4(t3)
8000d014:	008e2103          	lw	sp,8(t3)
8000d018:	00ce2183          	lw	gp,12(t3)
8000d01c:	010e2203          	lw	tp,16(t3)
8000d020:	014e2283          	lw	t0,20(t3)
8000d024:	018e2303          	lw	t1,24(t3)
8000d028:	01ce2383          	lw	t2,28(t3)
8000d02c:	020e2403          	lw	s0,32(t3)
8000d030:	024e2483          	lw	s1,36(t3)
8000d034:	028e2503          	lw	a0,40(t3)
8000d038:	02ce2583          	lw	a1,44(t3)
8000d03c:	030e2603          	lw	a2,48(t3)
8000d040:	034e2683          	lw	a3,52(t3)
8000d044:	038e2703          	lw	a4,56(t3)
8000d048:	03ce2783          	lw	a5,60(t3)
8000d04c:	040e2803          	lw	a6,64(t3)
8000d050:	044e2883          	lw	a7,68(t3)
8000d054:	048e2903          	lw	s2,72(t3)
8000d058:	04ce2983          	lw	s3,76(t3)
8000d05c:	050e2a03          	lw	s4,80(t3)
8000d060:	054e2a83          	lw	s5,84(t3)
8000d064:	058e2b03          	lw	s6,88(t3)
8000d068:	05ce2b83          	lw	s7,92(t3)
8000d06c:	060e2c03          	lw	s8,96(t3)
8000d070:	064e2c83          	lw	s9,100(t3)
8000d074:	068e2d03          	lw	s10,104(t3)
8000d078:	06ce2d83          	lw	s11,108(t3)
8000d07c:	070e2e03          	lw	t3,112(t3)
8000d080:	074e2e83          	lw	t4,116(t3)
8000d084:	078e2f03          	lw	t5,120(t3)
8000d088:	07ce2f83          	lw	t6,124(t3)
8000d08c:	07ce0e13          	addi	t3,t3,124
8000d090:	000e0ab3          	add	s5,t3,zero
8000d094:	340e1e73          	csrrw	t3,mscratch,t3
8000d098:	30200073          	mret

8000d09c <kernel_instr_end>:
8000d09c:	00000013          	nop
8000d0a0:	00000013          	nop
8000d0a4:	00000013          	nop
8000d0a8:	00000013          	nop
8000d0ac:	00000013          	nop
8000d0b0:	00000013          	nop
8000d0b4:	00000013          	nop
8000d0b8:	00000013          	nop
8000d0bc:	00000013          	nop
8000d0c0:	00000013          	nop
8000d0c4:	00000013          	nop
8000d0c8:	00000013          	nop
8000d0cc:	00000013          	nop
8000d0d0:	00000013          	nop
8000d0d4:	00000013          	nop
8000d0d8:	00000013          	nop
8000d0dc:	00000013          	nop
8000d0e0:	00000013          	nop
8000d0e4:	00000013          	nop
8000d0e8:	00000013          	nop
8000d0ec:	00000013          	nop
8000d0f0:	00000013          	nop
8000d0f4:	00000013          	nop
8000d0f8:	00000013          	nop
8000d0fc:	00000013          	nop
8000d100:	00000013          	nop
8000d104:	00000013          	nop
8000d108:	00000013          	nop
8000d10c:	00000013          	nop
8000d110:	00000013          	nop
8000d114:	00000013          	nop
8000d118:	00000013          	nop
8000d11c:	00000013          	nop
8000d120:	00000013          	nop
8000d124:	00000013          	nop
8000d128:	00000013          	nop
8000d12c:	00000013          	nop
8000d130:	00000013          	nop
8000d134:	00000013          	nop
8000d138:	00000013          	nop
8000d13c:	00000013          	nop
8000d140:	00000013          	nop
8000d144:	00000013          	nop
8000d148:	00000013          	nop
8000d14c:	00000013          	nop
8000d150:	00000013          	nop
8000d154:	00000013          	nop
8000d158:	00000013          	nop
8000d15c:	00000013          	nop
8000d160:	00000013          	nop
8000d164:	00000013          	nop
8000d168:	00000013          	nop
8000d16c:	00000013          	nop
8000d170:	00000013          	nop
8000d174:	00000013          	nop
8000d178:	00000013          	nop
8000d17c:	00000013          	nop
8000d180:	00000013          	nop
8000d184:	00000013          	nop
8000d188:	00000013          	nop
8000d18c:	00000013          	nop
8000d190:	00000013          	nop
8000d194:	00000013          	nop
8000d198:	00000013          	nop
8000d19c:	00000013          	nop
8000d1a0:	00000013          	nop
8000d1a4:	00000013          	nop
8000d1a8:	00000013          	nop
8000d1ac:	00000013          	nop
8000d1b0:	00000013          	nop
8000d1b4:	00000013          	nop
8000d1b8:	00000013          	nop
8000d1bc:	00000013          	nop
8000d1c0:	00000013          	nop
8000d1c4:	00000013          	nop
8000d1c8:	00000013          	nop
8000d1cc:	00000013          	nop
8000d1d0:	00000013          	nop
8000d1d4:	00000013          	nop
8000d1d8:	00000013          	nop
8000d1dc:	00000013          	nop
8000d1e0:	00000013          	nop
8000d1e4:	00000013          	nop
8000d1e8:	00000013          	nop
8000d1ec:	00000013          	nop
8000d1f0:	00000013          	nop
8000d1f4:	00000013          	nop
8000d1f8:	00000013          	nop
8000d1fc:	00000013          	nop
8000d200:	00000013          	nop
8000d204:	00000013          	nop
8000d208:	00000013          	nop
8000d20c:	00000013          	nop
8000d210:	00000013          	nop
8000d214:	00000013          	nop
8000d218:	00000013          	nop
8000d21c:	00000013          	nop
8000d220:	00000013          	nop
8000d224:	00000013          	nop
8000d228:	00000013          	nop
8000d22c:	00000013          	nop
8000d230:	00000013          	nop
8000d234:	00000013          	nop
8000d238:	00000013          	nop
8000d23c:	00000013          	nop
8000d240:	00000013          	nop
8000d244:	00000013          	nop
8000d248:	00000013          	nop
8000d24c:	00000013          	nop
8000d250:	00000013          	nop
8000d254:	00000013          	nop
8000d258:	00000013          	nop
8000d25c:	00000013          	nop
8000d260:	00000013          	nop
8000d264:	00000013          	nop
8000d268:	00000013          	nop
8000d26c:	00000013          	nop
8000d270:	00000013          	nop
8000d274:	00000013          	nop
8000d278:	00000013          	nop
8000d27c:	00000013          	nop
8000d280:	00000013          	nop
8000d284:	00000013          	nop
8000d288:	00000013          	nop
8000d28c:	00000013          	nop
8000d290:	00000013          	nop
8000d294:	00000013          	nop
8000d298:	00000013          	nop
8000d29c:	00000013          	nop
8000d2a0:	00000013          	nop
8000d2a4:	00000013          	nop
8000d2a8:	00000013          	nop
8000d2ac:	00000013          	nop
8000d2b0:	00000013          	nop
8000d2b4:	00000013          	nop
8000d2b8:	00000013          	nop
8000d2bc:	00000013          	nop
8000d2c0:	00000013          	nop
8000d2c4:	00000013          	nop
8000d2c8:	00000013          	nop
8000d2cc:	00000013          	nop
8000d2d0:	00000013          	nop
8000d2d4:	00000013          	nop
8000d2d8:	00000013          	nop
8000d2dc:	00000013          	nop
8000d2e0:	00000013          	nop
8000d2e4:	00000013          	nop
8000d2e8:	00000013          	nop
8000d2ec:	00000013          	nop
8000d2f0:	00000013          	nop
8000d2f4:	00000013          	nop
8000d2f8:	00000013          	nop
8000d2fc:	00000013          	nop
8000d300:	00000013          	nop
8000d304:	00000013          	nop
8000d308:	00000013          	nop
8000d30c:	00000013          	nop
8000d310:	00000013          	nop
8000d314:	00000013          	nop
8000d318:	00000013          	nop
8000d31c:	00000013          	nop
8000d320:	00000013          	nop
8000d324:	00000013          	nop
8000d328:	00000013          	nop
8000d32c:	00000013          	nop
8000d330:	00000013          	nop
8000d334:	00000013          	nop
8000d338:	00000013          	nop
8000d33c:	00000013          	nop
8000d340:	00000013          	nop
8000d344:	00000013          	nop
8000d348:	00000013          	nop
8000d34c:	00000013          	nop
8000d350:	00000013          	nop
8000d354:	00000013          	nop
8000d358:	00000013          	nop
8000d35c:	00000013          	nop
8000d360:	00000013          	nop
8000d364:	00000013          	nop
8000d368:	00000013          	nop
8000d36c:	00000013          	nop
8000d370:	00000013          	nop
8000d374:	00000013          	nop
8000d378:	00000013          	nop
8000d37c:	00000013          	nop
8000d380:	00000013          	nop
8000d384:	00000013          	nop
8000d388:	00000013          	nop
8000d38c:	00000013          	nop
8000d390:	00000013          	nop
8000d394:	00000013          	nop
8000d398:	00000013          	nop
8000d39c:	00000013          	nop
8000d3a0:	00000013          	nop
8000d3a4:	00000013          	nop
8000d3a8:	00000013          	nop
8000d3ac:	00000013          	nop
8000d3b0:	00000013          	nop
8000d3b4:	00000013          	nop
8000d3b8:	00000013          	nop
8000d3bc:	00000013          	nop
8000d3c0:	00000013          	nop
8000d3c4:	00000013          	nop
8000d3c8:	00000013          	nop
8000d3cc:	00000013          	nop
8000d3d0:	00000013          	nop
8000d3d4:	00000013          	nop
8000d3d8:	00000013          	nop
8000d3dc:	00000013          	nop
8000d3e0:	00000013          	nop
8000d3e4:	00000013          	nop
8000d3e8:	00000013          	nop
8000d3ec:	00000013          	nop
8000d3f0:	00000013          	nop
8000d3f4:	00000013          	nop
8000d3f8:	00000013          	nop
8000d3fc:	00000013          	nop
8000d400:	00000013          	nop
8000d404:	00000013          	nop
8000d408:	00000013          	nop
8000d40c:	00000013          	nop
8000d410:	00000013          	nop
8000d414:	00000013          	nop
8000d418:	00000013          	nop
8000d41c:	00000013          	nop
8000d420:	00000013          	nop
8000d424:	00000013          	nop
8000d428:	00000013          	nop
8000d42c:	00000013          	nop
8000d430:	00000013          	nop
8000d434:	00000013          	nop
8000d438:	00000013          	nop
8000d43c:	00000013          	nop
8000d440:	00000013          	nop
8000d444:	00000013          	nop
8000d448:	00000013          	nop
8000d44c:	00000013          	nop
8000d450:	00000013          	nop
8000d454:	00000013          	nop
8000d458:	00000013          	nop
8000d45c:	00000013          	nop
8000d460:	00000013          	nop
8000d464:	00000013          	nop
8000d468:	00000013          	nop
8000d46c:	00000013          	nop
8000d470:	00000013          	nop
8000d474:	00000013          	nop
8000d478:	00000013          	nop
8000d47c:	00000013          	nop
8000d480:	00000013          	nop
8000d484:	00000013          	nop
8000d488:	00000013          	nop
8000d48c:	00000013          	nop
8000d490:	00000013          	nop
8000d494:	00000013          	nop
8000d498:	00000013          	nop
8000d49c:	00000013          	nop
8000d4a0:	00000013          	nop
8000d4a4:	00000013          	nop
8000d4a8:	00000013          	nop
8000d4ac:	00000013          	nop
8000d4b0:	00000013          	nop
8000d4b4:	00000013          	nop
8000d4b8:	00000013          	nop
8000d4bc:	00000013          	nop
8000d4c0:	00000013          	nop
8000d4c4:	00000013          	nop
8000d4c8:	00000013          	nop
8000d4cc:	00000013          	nop
8000d4d0:	00000013          	nop
8000d4d4:	00000013          	nop
8000d4d8:	00000013          	nop
8000d4dc:	00000013          	nop
8000d4e0:	00000013          	nop
8000d4e4:	00000013          	nop
8000d4e8:	00000013          	nop
8000d4ec:	00000013          	nop
8000d4f0:	00000013          	nop
8000d4f4:	00000013          	nop
8000d4f8:	00000013          	nop
8000d4fc:	00000013          	nop
8000d500:	00000013          	nop
8000d504:	00000013          	nop
8000d508:	00000013          	nop
8000d50c:	00000013          	nop
8000d510:	00000013          	nop
8000d514:	00000013          	nop
8000d518:	00000013          	nop
8000d51c:	00000013          	nop
8000d520:	00000013          	nop
8000d524:	00000013          	nop
8000d528:	00000013          	nop
8000d52c:	00000013          	nop
8000d530:	00000013          	nop
8000d534:	00000013          	nop
8000d538:	00000013          	nop
8000d53c:	00000013          	nop
8000d540:	00000013          	nop
8000d544:	00000013          	nop
8000d548:	00000013          	nop
8000d54c:	00000013          	nop
8000d550:	00000013          	nop
8000d554:	00000013          	nop
8000d558:	00000013          	nop
8000d55c:	00000013          	nop
8000d560:	00000013          	nop
8000d564:	00000013          	nop
8000d568:	00000013          	nop
8000d56c:	00000013          	nop
8000d570:	00000013          	nop
8000d574:	00000013          	nop
8000d578:	00000013          	nop
8000d57c:	00000013          	nop
8000d580:	00000013          	nop
8000d584:	00000013          	nop
8000d588:	00000013          	nop
8000d58c:	00000013          	nop
8000d590:	00000013          	nop
8000d594:	00000013          	nop
8000d598:	00000013          	nop
8000d59c:	00000013          	nop
8000d5a0:	00000013          	nop
8000d5a4:	00000013          	nop
8000d5a8:	00000013          	nop
8000d5ac:	00000013          	nop
8000d5b0:	00000013          	nop
8000d5b4:	00000013          	nop
8000d5b8:	00000013          	nop
8000d5bc:	00000013          	nop
8000d5c0:	00000013          	nop
8000d5c4:	00000013          	nop
8000d5c8:	00000013          	nop
8000d5cc:	00000013          	nop
8000d5d0:	00000013          	nop
8000d5d4:	00000013          	nop
8000d5d8:	00000013          	nop
8000d5dc:	00000013          	nop
8000d5e0:	00000013          	nop
8000d5e4:	00000013          	nop
8000d5e8:	00000013          	nop
8000d5ec:	00000013          	nop
8000d5f0:	00000013          	nop
8000d5f4:	00000013          	nop
8000d5f8:	00000013          	nop
8000d5fc:	00000013          	nop
8000d600:	00000013          	nop
8000d604:	00000013          	nop
8000d608:	00000013          	nop
8000d60c:	00000013          	nop
8000d610:	00000013          	nop
8000d614:	00000013          	nop
8000d618:	00000013          	nop
8000d61c:	00000013          	nop
8000d620:	00000013          	nop
8000d624:	00000013          	nop
8000d628:	00000013          	nop
8000d62c:	00000013          	nop
8000d630:	00000013          	nop
8000d634:	00000013          	nop
8000d638:	00000013          	nop
8000d63c:	00000013          	nop
8000d640:	00000013          	nop
8000d644:	00000013          	nop
8000d648:	00000013          	nop
8000d64c:	00000013          	nop
8000d650:	00000013          	nop
8000d654:	00000013          	nop
8000d658:	00000013          	nop
8000d65c:	00000013          	nop
8000d660:	00000013          	nop
8000d664:	00000013          	nop
8000d668:	00000013          	nop
8000d66c:	00000013          	nop
8000d670:	00000013          	nop
8000d674:	00000013          	nop
8000d678:	00000013          	nop
8000d67c:	00000013          	nop
8000d680:	00000013          	nop
8000d684:	00000013          	nop
8000d688:	00000013          	nop
8000d68c:	00000013          	nop
8000d690:	00000013          	nop
8000d694:	00000013          	nop
8000d698:	00000013          	nop
8000d69c:	00000013          	nop
8000d6a0:	00000013          	nop
8000d6a4:	00000013          	nop
8000d6a8:	00000013          	nop
8000d6ac:	00000013          	nop
8000d6b0:	00000013          	nop
8000d6b4:	00000013          	nop
8000d6b8:	00000013          	nop
8000d6bc:	00000013          	nop
8000d6c0:	00000013          	nop
8000d6c4:	00000013          	nop
8000d6c8:	00000013          	nop
8000d6cc:	00000013          	nop
8000d6d0:	00000013          	nop
8000d6d4:	00000013          	nop
8000d6d8:	00000013          	nop
8000d6dc:	00000013          	nop
8000d6e0:	00000013          	nop
8000d6e4:	00000013          	nop
8000d6e8:	00000013          	nop
8000d6ec:	00000013          	nop
8000d6f0:	00000013          	nop
8000d6f4:	00000013          	nop
8000d6f8:	00000013          	nop
8000d6fc:	00000013          	nop
8000d700:	00000013          	nop
8000d704:	00000013          	nop
8000d708:	00000013          	nop
8000d70c:	00000013          	nop
8000d710:	00000013          	nop
8000d714:	00000013          	nop
8000d718:	00000013          	nop
8000d71c:	00000013          	nop
8000d720:	00000013          	nop
8000d724:	00000013          	nop
8000d728:	00000013          	nop
8000d72c:	00000013          	nop
8000d730:	00000013          	nop
8000d734:	00000013          	nop
8000d738:	00000013          	nop
8000d73c:	00000013          	nop
8000d740:	00000013          	nop
8000d744:	00000013          	nop
8000d748:	00000013          	nop
8000d74c:	00000013          	nop
8000d750:	00000013          	nop
8000d754:	00000013          	nop
8000d758:	00000013          	nop
8000d75c:	00000013          	nop
8000d760:	00000013          	nop
8000d764:	00000013          	nop
8000d768:	00000013          	nop
8000d76c:	00000013          	nop
8000d770:	00000013          	nop
8000d774:	00000013          	nop
8000d778:	00000013          	nop
8000d77c:	00000013          	nop
8000d780:	00000013          	nop
8000d784:	00000013          	nop
8000d788:	00000013          	nop
8000d78c:	00000013          	nop
8000d790:	00000013          	nop
8000d794:	00000013          	nop
8000d798:	00000013          	nop
8000d79c:	00000013          	nop
8000d7a0:	00000013          	nop
8000d7a4:	00000013          	nop
8000d7a8:	00000013          	nop
8000d7ac:	00000013          	nop
8000d7b0:	00000013          	nop
8000d7b4:	00000013          	nop
8000d7b8:	00000013          	nop
8000d7bc:	00000013          	nop
8000d7c0:	00000013          	nop
8000d7c4:	00000013          	nop
8000d7c8:	00000013          	nop
8000d7cc:	00000013          	nop
8000d7d0:	00000013          	nop
8000d7d4:	00000013          	nop
8000d7d8:	00000013          	nop
8000d7dc:	00000013          	nop
8000d7e0:	00000013          	nop
8000d7e4:	00000013          	nop
8000d7e8:	00000013          	nop
8000d7ec:	00000013          	nop
8000d7f0:	00000013          	nop
8000d7f4:	00000013          	nop
8000d7f8:	00000013          	nop
8000d7fc:	00000013          	nop
8000d800:	00000013          	nop
8000d804:	00000013          	nop
8000d808:	00000013          	nop
8000d80c:	00000013          	nop
8000d810:	00000013          	nop
8000d814:	00000013          	nop
8000d818:	00000013          	nop
8000d81c:	00000013          	nop
8000d820:	00000013          	nop
8000d824:	00000013          	nop
8000d828:	00000013          	nop
8000d82c:	00000013          	nop
8000d830:	00000013          	nop
8000d834:	00000013          	nop
8000d838:	00000013          	nop
8000d83c:	00000013          	nop
8000d840:	00000013          	nop
8000d844:	00000013          	nop
8000d848:	00000013          	nop
8000d84c:	00000013          	nop
8000d850:	00000013          	nop
8000d854:	00000013          	nop
8000d858:	00000013          	nop
8000d85c:	00000013          	nop
8000d860:	00000013          	nop
8000d864:	00000013          	nop
8000d868:	00000013          	nop
8000d86c:	00000013          	nop
8000d870:	00000013          	nop
8000d874:	00000013          	nop
8000d878:	00000013          	nop
8000d87c:	00000013          	nop
8000d880:	00000013          	nop
8000d884:	00000013          	nop
8000d888:	00000013          	nop
8000d88c:	00000013          	nop
8000d890:	00000013          	nop
8000d894:	00000013          	nop
8000d898:	00000013          	nop
8000d89c:	00000013          	nop
8000d8a0:	00000013          	nop
8000d8a4:	00000013          	nop
8000d8a8:	00000013          	nop
8000d8ac:	00000013          	nop
8000d8b0:	00000013          	nop
8000d8b4:	00000013          	nop
8000d8b8:	00000013          	nop
8000d8bc:	00000013          	nop
8000d8c0:	00000013          	nop
8000d8c4:	00000013          	nop
8000d8c8:	00000013          	nop
8000d8cc:	00000013          	nop
8000d8d0:	00000013          	nop
8000d8d4:	00000013          	nop
8000d8d8:	00000013          	nop
8000d8dc:	00000013          	nop
8000d8e0:	00000013          	nop
8000d8e4:	00000013          	nop
8000d8e8:	00000013          	nop
8000d8ec:	00000013          	nop
8000d8f0:	00000013          	nop
8000d8f4:	00000013          	nop
8000d8f8:	00000013          	nop
8000d8fc:	00000013          	nop
8000d900:	00000013          	nop
8000d904:	00000013          	nop
8000d908:	00000013          	nop
8000d90c:	00000013          	nop
8000d910:	00000013          	nop
8000d914:	00000013          	nop
8000d918:	00000013          	nop
8000d91c:	00000013          	nop
8000d920:	00000013          	nop
8000d924:	00000013          	nop
8000d928:	00000013          	nop
8000d92c:	00000013          	nop
8000d930:	00000013          	nop
8000d934:	00000013          	nop
8000d938:	00000013          	nop
8000d93c:	00000013          	nop
8000d940:	00000013          	nop
8000d944:	00000013          	nop
8000d948:	00000013          	nop
8000d94c:	00000013          	nop
8000d950:	00000013          	nop
8000d954:	00000013          	nop
8000d958:	00000013          	nop
8000d95c:	00000013          	nop
8000d960:	00000013          	nop
8000d964:	00000013          	nop
8000d968:	00000013          	nop
8000d96c:	00000013          	nop
8000d970:	00000013          	nop
8000d974:	00000013          	nop
8000d978:	00000013          	nop
8000d97c:	00000013          	nop
8000d980:	00000013          	nop
8000d984:	00000013          	nop
8000d988:	00000013          	nop
8000d98c:	00000013          	nop
8000d990:	00000013          	nop
8000d994:	00000013          	nop
8000d998:	00000013          	nop
8000d99c:	00000013          	nop
8000d9a0:	00000013          	nop
8000d9a4:	00000013          	nop
8000d9a8:	00000013          	nop
8000d9ac:	00000013          	nop
8000d9b0:	00000013          	nop
8000d9b4:	00000013          	nop
8000d9b8:	00000013          	nop
8000d9bc:	00000013          	nop
8000d9c0:	00000013          	nop
8000d9c4:	00000013          	nop
8000d9c8:	00000013          	nop
8000d9cc:	00000013          	nop
8000d9d0:	00000013          	nop
8000d9d4:	00000013          	nop
8000d9d8:	00000013          	nop
8000d9dc:	00000013          	nop
8000d9e0:	00000013          	nop
8000d9e4:	00000013          	nop
8000d9e8:	00000013          	nop
8000d9ec:	00000013          	nop
8000d9f0:	00000013          	nop
8000d9f4:	00000013          	nop
8000d9f8:	00000013          	nop
8000d9fc:	00000013          	nop
8000da00:	00000013          	nop
8000da04:	00000013          	nop
8000da08:	00000013          	nop
8000da0c:	00000013          	nop
8000da10:	00000013          	nop
8000da14:	00000013          	nop
8000da18:	00000013          	nop
8000da1c:	00000013          	nop
8000da20:	00000013          	nop
8000da24:	00000013          	nop
8000da28:	00000013          	nop
8000da2c:	00000013          	nop
8000da30:	00000013          	nop
8000da34:	00000013          	nop
8000da38:	00000013          	nop
8000da3c:	00000013          	nop
8000da40:	00000013          	nop
8000da44:	00000013          	nop
8000da48:	00000013          	nop
8000da4c:	00000013          	nop
8000da50:	00000013          	nop
8000da54:	00000013          	nop
8000da58:	00000013          	nop
8000da5c:	00000013          	nop
8000da60:	00000013          	nop
8000da64:	00000013          	nop
8000da68:	00000013          	nop
8000da6c:	00000013          	nop
8000da70:	00000013          	nop
8000da74:	00000013          	nop
8000da78:	00000013          	nop
8000da7c:	00000013          	nop
8000da80:	00000013          	nop
8000da84:	00000013          	nop
8000da88:	00000013          	nop
8000da8c:	00000013          	nop
8000da90:	00000013          	nop
8000da94:	00000013          	nop
8000da98:	00000013          	nop
8000da9c:	00000013          	nop
8000daa0:	00000013          	nop
8000daa4:	00000013          	nop
8000daa8:	00000013          	nop
8000daac:	00000013          	nop
8000dab0:	00000013          	nop
8000dab4:	00000013          	nop
8000dab8:	00000013          	nop
8000dabc:	00000013          	nop
8000dac0:	00000013          	nop
8000dac4:	00000013          	nop
8000dac8:	00000013          	nop
8000dacc:	00000013          	nop
8000dad0:	00000013          	nop
8000dad4:	00000013          	nop
8000dad8:	00000013          	nop
8000dadc:	00000013          	nop
8000dae0:	00000013          	nop
8000dae4:	00000013          	nop
8000dae8:	00000013          	nop
8000daec:	00000013          	nop
8000daf0:	00000013          	nop
8000daf4:	00000013          	nop
8000daf8:	00000013          	nop
8000dafc:	00000013          	nop
8000db00:	00000013          	nop
8000db04:	00000013          	nop
8000db08:	00000013          	nop
8000db0c:	00000013          	nop
8000db10:	00000013          	nop
8000db14:	00000013          	nop
8000db18:	00000013          	nop
8000db1c:	00000013          	nop
8000db20:	00000013          	nop
8000db24:	00000013          	nop
8000db28:	00000013          	nop
8000db2c:	00000013          	nop
8000db30:	00000013          	nop
8000db34:	00000013          	nop
8000db38:	00000013          	nop
8000db3c:	00000013          	nop
8000db40:	00000013          	nop
8000db44:	00000013          	nop
8000db48:	00000013          	nop
8000db4c:	00000013          	nop
8000db50:	00000013          	nop
8000db54:	00000013          	nop
8000db58:	00000013          	nop
8000db5c:	00000013          	nop
8000db60:	00000013          	nop
8000db64:	00000013          	nop
8000db68:	00000013          	nop
8000db6c:	00000013          	nop
8000db70:	00000013          	nop
8000db74:	00000013          	nop
8000db78:	00000013          	nop
8000db7c:	00000013          	nop
8000db80:	00000013          	nop
8000db84:	00000013          	nop
8000db88:	00000013          	nop
8000db8c:	00000013          	nop
8000db90:	00000013          	nop
8000db94:	00000013          	nop
8000db98:	00000013          	nop
8000db9c:	00000013          	nop
8000dba0:	00000013          	nop
8000dba4:	00000013          	nop
8000dba8:	00000013          	nop
8000dbac:	00000013          	nop
8000dbb0:	00000013          	nop
8000dbb4:	00000013          	nop
8000dbb8:	00000013          	nop
8000dbbc:	00000013          	nop
8000dbc0:	00000013          	nop
8000dbc4:	00000013          	nop
8000dbc8:	00000013          	nop
8000dbcc:	00000013          	nop
8000dbd0:	00000013          	nop
8000dbd4:	00000013          	nop
8000dbd8:	00000013          	nop
8000dbdc:	00000013          	nop
8000dbe0:	00000013          	nop
8000dbe4:	00000013          	nop
8000dbe8:	00000013          	nop
8000dbec:	00000013          	nop
8000dbf0:	00000013          	nop
8000dbf4:	00000013          	nop
8000dbf8:	00000013          	nop
8000dbfc:	00000013          	nop
8000dc00:	00000013          	nop
8000dc04:	00000013          	nop
8000dc08:	00000013          	nop
8000dc0c:	00000013          	nop
8000dc10:	00000013          	nop
8000dc14:	00000013          	nop
8000dc18:	00000013          	nop
8000dc1c:	00000013          	nop
8000dc20:	00000013          	nop
8000dc24:	00000013          	nop
8000dc28:	00000013          	nop
8000dc2c:	00000013          	nop
8000dc30:	00000013          	nop
8000dc34:	00000013          	nop
8000dc38:	00000013          	nop
8000dc3c:	00000013          	nop
8000dc40:	00000013          	nop
8000dc44:	00000013          	nop
8000dc48:	00000013          	nop
8000dc4c:	00000013          	nop
8000dc50:	00000013          	nop
8000dc54:	00000013          	nop
8000dc58:	00000013          	nop
8000dc5c:	00000013          	nop
8000dc60:	00000013          	nop
8000dc64:	00000013          	nop
8000dc68:	00000013          	nop
8000dc6c:	00000013          	nop
8000dc70:	00000013          	nop
8000dc74:	00000013          	nop
8000dc78:	00000013          	nop
8000dc7c:	00000013          	nop
8000dc80:	00000013          	nop
8000dc84:	00000013          	nop
8000dc88:	00000013          	nop
8000dc8c:	00000013          	nop
8000dc90:	00000013          	nop
8000dc94:	00000013          	nop
8000dc98:	00000013          	nop
8000dc9c:	00000013          	nop
8000dca0:	00000013          	nop
8000dca4:	00000013          	nop
8000dca8:	00000013          	nop
8000dcac:	00000013          	nop
8000dcb0:	00000013          	nop
8000dcb4:	00000013          	nop
8000dcb8:	00000013          	nop
8000dcbc:	00000013          	nop
8000dcc0:	00000013          	nop
8000dcc4:	00000013          	nop
8000dcc8:	00000013          	nop
8000dccc:	00000013          	nop
8000dcd0:	00000013          	nop
8000dcd4:	00000013          	nop
8000dcd8:	00000013          	nop
8000dcdc:	00000013          	nop
8000dce0:	00000013          	nop
8000dce4:	00000013          	nop
8000dce8:	00000013          	nop
8000dcec:	00000013          	nop
8000dcf0:	00000013          	nop
8000dcf4:	00000013          	nop
8000dcf8:	00000013          	nop
8000dcfc:	00000013          	nop
8000dd00:	00000013          	nop
8000dd04:	00000013          	nop
8000dd08:	00000013          	nop
8000dd0c:	00000013          	nop
8000dd10:	00000013          	nop
8000dd14:	00000013          	nop
8000dd18:	00000013          	nop
8000dd1c:	00000013          	nop
8000dd20:	00000013          	nop
8000dd24:	00000013          	nop
8000dd28:	00000013          	nop
8000dd2c:	00000013          	nop
8000dd30:	00000013          	nop
8000dd34:	00000013          	nop
8000dd38:	00000013          	nop
8000dd3c:	00000013          	nop
8000dd40:	00000013          	nop
8000dd44:	00000013          	nop
8000dd48:	00000013          	nop
8000dd4c:	00000013          	nop
8000dd50:	00000013          	nop
8000dd54:	00000013          	nop
8000dd58:	00000013          	nop
8000dd5c:	00000013          	nop
8000dd60:	00000013          	nop
8000dd64:	00000013          	nop
8000dd68:	00000013          	nop
8000dd6c:	00000013          	nop
8000dd70:	00000013          	nop
8000dd74:	00000013          	nop
8000dd78:	00000013          	nop
8000dd7c:	00000013          	nop
8000dd80:	00000013          	nop
8000dd84:	00000013          	nop
8000dd88:	00000013          	nop
8000dd8c:	00000013          	nop
8000dd90:	00000013          	nop
8000dd94:	00000013          	nop
8000dd98:	00000013          	nop
8000dd9c:	00000013          	nop
8000dda0:	00000013          	nop
8000dda4:	00000013          	nop
8000dda8:	00000013          	nop
8000ddac:	00000013          	nop
8000ddb0:	00000013          	nop
8000ddb4:	00000013          	nop
8000ddb8:	00000013          	nop
8000ddbc:	00000013          	nop
8000ddc0:	00000013          	nop
8000ddc4:	00000013          	nop
8000ddc8:	00000013          	nop
8000ddcc:	00000013          	nop
8000ddd0:	00000013          	nop
8000ddd4:	00000013          	nop
8000ddd8:	00000013          	nop
8000dddc:	00000013          	nop
8000dde0:	00000013          	nop
8000dde4:	00000013          	nop
8000dde8:	00000013          	nop
8000ddec:	00000013          	nop
8000ddf0:	00000013          	nop
8000ddf4:	00000013          	nop
8000ddf8:	00000013          	nop
8000ddfc:	00000013          	nop
8000de00:	00000013          	nop
8000de04:	00000013          	nop
8000de08:	00000013          	nop
8000de0c:	00000013          	nop
8000de10:	00000013          	nop
8000de14:	00000013          	nop
8000de18:	00000013          	nop
8000de1c:	00000013          	nop
8000de20:	00000013          	nop
8000de24:	00000013          	nop
8000de28:	00000013          	nop
8000de2c:	00000013          	nop
8000de30:	00000013          	nop
8000de34:	00000013          	nop
8000de38:	00000013          	nop
8000de3c:	00000013          	nop
8000de40:	00000013          	nop
8000de44:	00000013          	nop
8000de48:	00000013          	nop
8000de4c:	00000013          	nop
8000de50:	00000013          	nop
8000de54:	00000013          	nop
8000de58:	00000013          	nop
8000de5c:	00000013          	nop
8000de60:	00000013          	nop
8000de64:	00000013          	nop
8000de68:	00000013          	nop
8000de6c:	00000013          	nop
8000de70:	00000013          	nop
8000de74:	00000013          	nop
8000de78:	00000013          	nop
8000de7c:	00000013          	nop
8000de80:	00000013          	nop
8000de84:	00000013          	nop
8000de88:	00000013          	nop
8000de8c:	00000013          	nop
8000de90:	00000013          	nop
8000de94:	00000013          	nop
8000de98:	00000013          	nop
8000de9c:	00000013          	nop
8000dea0:	00000013          	nop
8000dea4:	00000013          	nop
8000dea8:	00000013          	nop
8000deac:	00000013          	nop
8000deb0:	00000013          	nop
8000deb4:	00000013          	nop
8000deb8:	00000013          	nop
8000debc:	00000013          	nop
8000dec0:	00000013          	nop
8000dec4:	00000013          	nop
8000dec8:	00000013          	nop
8000decc:	00000013          	nop
8000ded0:	00000013          	nop
8000ded4:	00000013          	nop
8000ded8:	00000013          	nop
8000dedc:	00000013          	nop
8000dee0:	00000013          	nop
8000dee4:	00000013          	nop
8000dee8:	00000013          	nop
8000deec:	00000013          	nop
8000def0:	00000013          	nop
8000def4:	00000013          	nop
8000def8:	00000013          	nop
8000defc:	00000013          	nop
8000df00:	00000013          	nop
8000df04:	00000013          	nop
8000df08:	00000013          	nop
8000df0c:	00000013          	nop
8000df10:	00000013          	nop
8000df14:	00000013          	nop
8000df18:	00000013          	nop
8000df1c:	00000013          	nop
8000df20:	00000013          	nop
8000df24:	00000013          	nop
8000df28:	00000013          	nop
8000df2c:	00000013          	nop
8000df30:	00000013          	nop
8000df34:	00000013          	nop
8000df38:	00000013          	nop
8000df3c:	00000013          	nop
8000df40:	00000013          	nop
8000df44:	00000013          	nop
8000df48:	00000013          	nop
8000df4c:	00000013          	nop
8000df50:	00000013          	nop
8000df54:	00000013          	nop
8000df58:	00000013          	nop
8000df5c:	00000013          	nop
8000df60:	00000013          	nop
8000df64:	00000013          	nop
8000df68:	00000013          	nop
8000df6c:	00000013          	nop
8000df70:	00000013          	nop
8000df74:	00000013          	nop
8000df78:	00000013          	nop
8000df7c:	00000013          	nop
8000df80:	00000013          	nop
8000df84:	00000013          	nop
8000df88:	00000013          	nop
8000df8c:	00000013          	nop
8000df90:	00000013          	nop
8000df94:	00000013          	nop
8000df98:	00000013          	nop
8000df9c:	00000013          	nop
8000dfa0:	00000013          	nop
8000dfa4:	00000013          	nop
8000dfa8:	00000013          	nop
8000dfac:	00000013          	nop
8000dfb0:	00000013          	nop
8000dfb4:	00000013          	nop
8000dfb8:	00000013          	nop
8000dfbc:	00000013          	nop
8000dfc0:	00000013          	nop
8000dfc4:	00000013          	nop
8000dfc8:	00000013          	nop
8000dfcc:	00000013          	nop
8000dfd0:	00000013          	nop
8000dfd4:	00000013          	nop
8000dfd8:	00000013          	nop
8000dfdc:	00000013          	nop
8000dfe0:	00000013          	nop
8000dfe4:	00000013          	nop
8000dfe8:	00000013          	nop
8000dfec:	00000013          	nop
8000dff0:	00000013          	nop
8000dff4:	00000013          	nop
8000dff8:	00000013          	nop
8000dffc:	00000013          	nop

8000e000 <kernel_data_start>:
	...
